
t186ref/build-t186/user_tasks/app/sample/ashish_test_ta/ashish_test_ta.syms.elf:     file format elf32-littlearm


Disassembly of section .text:

00008000 <exit>:
    8000:	e92d4010 	push	{r4, lr}
    8004:	eb0000c2 	bl	8314 <__cxa_finalize>
    8008:	eb000b1a 	bl	ac78 <exit_group>

0000800c <main>:
    800c:	e59f0128 	ldr	r0, [pc, #296]	; 813c <main+0x130>
    8010:	e3a0301b 	mov	r3, #27
    8014:	e59fc124 	ldr	ip, [pc, #292]	; 8140 <main+0x134>
    8018:	e08f0000 	add	r0, pc, r0
    801c:	e92d40f0 	push	{r4, r5, r6, r7, lr}
    8020:	e59f511c 	ldr	r5, [pc, #284]	; 8144 <main+0x138>
    8024:	e24dd00c 	sub	sp, sp, #12
    8028:	e59f1118 	ldr	r1, [pc, #280]	; 8148 <main+0x13c>
    802c:	e790400c 	ldr	r4, [r0, ip]
    8030:	e08f5005 	add	r5, pc, r5
    8034:	e3a06001 	mov	r6, #1
    8038:	e08f1001 	add	r1, pc, r1
    803c:	e2844028 	add	r4, r4, #40	; 0x28
    8040:	e1a02005 	mov	r2, r5
    8044:	e58d6000 	str	r6, [sp]
    8048:	e1a00004 	mov	r0, r4
    804c:	eb000ff8 	bl	c034 <fprintf>
    8050:	e59f00f4 	ldr	r0, [pc, #244]	; 814c <main+0x140>
    8054:	e1a03006 	mov	r3, r6
    8058:	e1a01006 	mov	r1, r6
    805c:	e3a02b01 	mov	r2, #1024	; 0x400
    8060:	e08f0000 	add	r0, pc, r0
    8064:	eb000b06 	bl	ac84 <port_create>
    8068:	e2507000 	subs	r7, r0, #0
    806c:	e58d7000 	str	r7, [sp]
    8070:	ba000023 	blt	8104 <main+0xf8>
    8074:	e59f10d4 	ldr	r1, [pc, #212]	; 8150 <main+0x144>
    8078:	e3a03029 	mov	r3, #41	; 0x29
    807c:	e1a02005 	mov	r2, r5
    8080:	e1a00004 	mov	r0, r4
    8084:	e08f1001 	add	r1, pc, r1
    8088:	eb000fe9 	bl	c034 <fprintf>
    808c:	e59f10c0 	ldr	r1, [pc, #192]	; 8154 <main+0x148>
    8090:	e3a03030 	mov	r3, #48	; 0x30
    8094:	e1a02005 	mov	r2, r5
    8098:	e08f1001 	add	r1, pc, r1
    809c:	e1a00004 	mov	r0, r4
    80a0:	eb000fe3 	bl	c034 <fprintf>
    80a4:	e59f00ac 	ldr	r0, [pc, #172]	; 8158 <main+0x14c>
    80a8:	e1a01006 	mov	r1, r6
    80ac:	e08f0000 	add	r0, pc, r0
    80b0:	eb000af6 	bl	ac90 <connect>
    80b4:	e2506000 	subs	r6, r0, #0
    80b8:	aa000018 	bge	8120 <main+0x114>
    80bc:	e59f1098 	ldr	r1, [pc, #152]	; 815c <main+0x150>
    80c0:	e3a03036 	mov	r3, #54	; 0x36
    80c4:	e1a02005 	mov	r2, r5
    80c8:	e58d6000 	str	r6, [sp]
    80cc:	e08f1001 	add	r1, pc, r1
    80d0:	e1a00004 	mov	r0, r4
    80d4:	eb000fd6 	bl	c034 <fprintf>
    80d8:	e59f1080 	ldr	r1, [pc, #128]	; 8160 <main+0x154>
    80dc:	e58d6000 	str	r6, [sp]
    80e0:	e1a02005 	mov	r2, r5
    80e4:	e1a00004 	mov	r0, r4
    80e8:	e3a0303d 	mov	r3, #61	; 0x3d
    80ec:	e08f1001 	add	r1, pc, r1
    80f0:	e3a07000 	mov	r7, #0
    80f4:	eb000fce 	bl	c034 <fprintf>
    80f8:	e1a00007 	mov	r0, r7
    80fc:	e28dd00c 	add	sp, sp, #12
    8100:	e8bd80f0 	pop	{r4, r5, r6, r7, pc}
    8104:	e59f1058 	ldr	r1, [pc, #88]	; 8164 <main+0x158>
    8108:	e1a02005 	mov	r2, r5
    810c:	e1a00004 	mov	r0, r4
    8110:	e3a03025 	mov	r3, #37	; 0x25
    8114:	e08f1001 	add	r1, pc, r1
    8118:	eb000fc5 	bl	c034 <fprintf>
    811c:	eafffff5 	b	80f8 <main+0xec>
    8120:	e59f1040 	ldr	r1, [pc, #64]	; 8168 <main+0x15c>
    8124:	e1a02005 	mov	r2, r5
    8128:	e3a03039 	mov	r3, #57	; 0x39
    812c:	e1a00004 	mov	r0, r4
    8130:	e08f1001 	add	r1, pc, r1
    8134:	eb000fbe 	bl	c034 <fprintf>
    8138:	eb00003c 	bl	8230 <abort>
    813c:	00004ffc 	.word	0x00004ffc
    8140:	00000010 	.word	0x00000010
    8144:	000046a8 	.word	0x000046a8
    8148:	000046b0 	.word	0x000046b0
    814c:	000046f0 	.word	0x000046f0
    8150:	00004734 	.word	0x00004734
    8154:	00004758 	.word	0x00004758
    8158:	0000477c 	.word	0x0000477c
    815c:	00004780 	.word	0x00004780
    8160:	000047bc 	.word	0x000047bc
    8164:	00004660 	.word	0x00004660
    8168:	000047d0 	.word	0x000047d0

0000816c <__guard_setup>:
    816c:	e92d4010 	push	{r4, lr}
    8170:	e59f4018 	ldr	r4, [pc, #24]	; 8190 <__guard_setup+0x24>
    8174:	e08f4004 	add	r4, pc, r4
    8178:	e5943000 	ldr	r3, [r4]
    817c:	e3530000 	cmp	r3, #0
    8180:	18bd8010 	popne	{r4, pc}
    8184:	eb000f9c 	bl	bffc <rand>
    8188:	e5840000 	str	r0, [r4]
    818c:	e8bd8010 	pop	{r4, pc}
    8190:	00004f18 	.word	0x00004f18

00008194 <_start>:
    8194:	e92d4800 	push	{fp, lr}
    8198:	e28db004 	add	fp, sp, #4
    819c:	e24dd018 	sub	sp, sp, #24
    81a0:	e50b0018 	str	r0, [fp, #-24]	; 0xffffffe8
    81a4:	e59f3068 	ldr	r3, [pc, #104]	; 8214 <_start+0x80>
    81a8:	e08f3003 	add	r3, pc, r3
    81ac:	e59f2064 	ldr	r2, [pc, #100]	; 8218 <_start+0x84>
    81b0:	e7932002 	ldr	r2, [r3, r2]
    81b4:	e5922000 	ldr	r2, [r2]
    81b8:	e50b2008 	str	r2, [fp, #-8]
    81bc:	e59f2058 	ldr	r2, [pc, #88]	; 821c <_start+0x88>
    81c0:	e08f2002 	add	r2, pc, r2
    81c4:	e50b2014 	str	r2, [fp, #-20]	; 0xffffffec
    81c8:	e59f2050 	ldr	r2, [pc, #80]	; 8220 <_start+0x8c>
    81cc:	e08f2002 	add	r2, pc, r2
    81d0:	e50b2010 	str	r2, [fp, #-16]
    81d4:	e59f2048 	ldr	r2, [pc, #72]	; 8224 <_start+0x90>
    81d8:	e08f2002 	add	r2, pc, r2
    81dc:	e5922000 	ldr	r2, [r2]
    81e0:	e3520000 	cmp	r2, #0
    81e4:	0a000002 	beq	81f4 <_start+0x60>
    81e8:	e59f2038 	ldr	r2, [pc, #56]	; 8228 <_start+0x94>
    81ec:	e08f2002 	add	r2, pc, r2
    81f0:	ea000000 	b	81f8 <_start+0x64>
    81f4:	e3a02000 	mov	r2, #0
    81f8:	e50b200c 	str	r2, [fp, #-12]
    81fc:	e24b2014 	sub	r2, fp, #20
    8200:	e59f1024 	ldr	r1, [pc, #36]	; 822c <_start+0x98>
    8204:	e7933001 	ldr	r3, [r3, r1]
    8208:	e1a01003 	mov	r1, r3
    820c:	e51b0018 	ldr	r0, [fp, #-24]	; 0xffffffe8
    8210:	eb000a56 	bl	ab70 <__libc_init>
    8214:	00004e6c 	.word	0x00004e6c
    8218:	0000000c 	.word	0x0000000c
    821c:	00004e38 	.word	0x00004e38
    8220:	00004e34 	.word	0x00004e34
    8224:	00004e34 	.word	0x00004e34
    8228:	00004e20 	.word	0x00004e20
    822c:	00000018 	.word	0x00000018

00008230 <abort>:
    8230:	e92d4010 	push	{r4, lr}
    8234:	e3a00001 	mov	r0, #1
    8238:	ebffff70 	bl	8000 <exit>

0000823c <__cxa_atexit>:
    823c:	e59f30c4 	ldr	r3, [pc, #196]	; 8308 <__cxa_atexit+0xcc>
    8240:	e59f20c4 	ldr	r2, [pc, #196]	; 830c <__cxa_atexit+0xd0>
    8244:	e08f3003 	add	r3, pc, r3
    8248:	e92d41f0 	push	{r4, r5, r6, r7, r8, lr}
    824c:	e1a06000 	mov	r6, r0
    8250:	e1a05001 	mov	r5, r1
    8254:	e7937002 	ldr	r7, [r3, r2]
    8258:	e5974000 	ldr	r4, [r7]
    825c:	e3540000 	cmp	r4, #0
    8260:	0a000004 	beq	8278 <__cxa_atexit+0x3c>
    8264:	e5943004 	ldr	r3, [r4, #4]
    8268:	e5941008 	ldr	r1, [r4, #8]
    826c:	e2832001 	add	r2, r3, #1
    8270:	e1520001 	cmp	r2, r1
    8274:	ba000014 	blt	82cc <__cxa_atexit+0x90>
    8278:	e3a00040 	mov	r0, #64	; 0x40
    827c:	eb00011c 	bl	86f4 <malloc>
    8280:	e2504000 	subs	r4, r0, #0
    8284:	0a00001d 	beq	8300 <__cxa_atexit+0xc4>
    8288:	e5971000 	ldr	r1, [r7]
    828c:	e3510000 	cmp	r1, #0
    8290:	13a03000 	movne	r3, #0
    8294:	15843004 	strne	r3, [r4, #4]
    8298:	0a000011 	beq	82e4 <__cxa_atexit+0xa8>
    829c:	e59f206c 	ldr	r2, [pc, #108]	; 8310 <__cxa_atexit+0xd4>
    82a0:	e3a03006 	mov	r3, #6
    82a4:	e5843008 	str	r3, [r4, #8]
    82a8:	e08f2002 	add	r2, pc, r2
    82ac:	e5841000 	str	r1, [r4]
    82b0:	e5874000 	str	r4, [r7]
    82b4:	e5923000 	ldr	r3, [r2]
    82b8:	e3530000 	cmp	r3, #0
    82bc:	e5943004 	ldr	r3, [r4, #4]
    82c0:	13a01000 	movne	r1, #0
    82c4:	15821000 	strne	r1, [r2]
    82c8:	e2832001 	add	r2, r3, #1
    82cc:	e0843183 	add	r3, r4, r3, lsl #3
    82d0:	e5842004 	str	r2, [r4, #4]
    82d4:	e3a00000 	mov	r0, #0
    82d8:	e583600c 	str	r6, [r3, #12]
    82dc:	e5835010 	str	r5, [r3, #16]
    82e0:	e8bd81f0 	pop	{r4, r5, r6, r7, r8, pc}
    82e4:	e3a02008 	mov	r2, #8
    82e8:	e284000c 	add	r0, r4, #12
    82ec:	eb000f7c 	bl	c0e4 <memset>
    82f0:	e3a03001 	mov	r3, #1
    82f4:	e5971000 	ldr	r1, [r7]
    82f8:	e5843004 	str	r3, [r4, #4]
    82fc:	eaffffe6 	b	829c <__cxa_atexit+0x60>
    8300:	e3e00000 	mvn	r0, #0
    8304:	e8bd81f0 	pop	{r4, r5, r6, r7, r8, pc}
    8308:	00004dd0 	.word	0x00004dd0
    830c:	00000014 	.word	0x00000014
    8310:	00004d88 	.word	0x00004d88

00008314 <__cxa_finalize>:
    8314:	e59f30c8 	ldr	r3, [pc, #200]	; 83e4 <__cxa_finalize+0xd0>
    8318:	e92d41f0 	push	{r4, r5, r6, r7, r8, lr}
    831c:	e08f3003 	add	r3, pc, r3
    8320:	e59f20c0 	ldr	r2, [pc, #192]	; 83e8 <__cxa_finalize+0xd4>
    8324:	e5936000 	ldr	r6, [r3]
    8328:	e08f2002 	add	r2, pc, r2
    832c:	e3560000 	cmp	r6, #0
    8330:	18bd81f0 	popne	{r4, r5, r6, r7, r8, pc}
    8334:	e59f00b0 	ldr	r0, [pc, #176]	; 83ec <__cxa_finalize+0xd8>
    8338:	e59f10b0 	ldr	r1, [pc, #176]	; 83f0 <__cxa_finalize+0xdc>
    833c:	e08f0000 	add	r0, pc, r0
    8340:	e5903000 	ldr	r3, [r0]
    8344:	e2833001 	add	r3, r3, #1
    8348:	e5803000 	str	r3, [r0]
    834c:	e7928001 	ldr	r8, [r2, r1]
    8350:	e5987000 	ldr	r7, [r8]
    8354:	e3570000 	cmp	r7, #0
    8358:	0a000011 	beq	83a4 <__cxa_finalize+0x90>
    835c:	e5975004 	ldr	r5, [r7, #4]
    8360:	e0874185 	add	r4, r7, r5, lsl #3
    8364:	ea000006 	b	8384 <__cxa_finalize+0x70>
    8368:	e5943004 	ldr	r3, [r4, #4]
    836c:	e3530000 	cmp	r3, #0
    8370:	0a000002 	beq	8380 <__cxa_finalize+0x6c>
    8374:	e5940008 	ldr	r0, [r4, #8]
    8378:	e5846004 	str	r6, [r4, #4]
    837c:	e12fff33 	blx	r3
    8380:	e2444008 	sub	r4, r4, #8
    8384:	e2555001 	subs	r5, r5, #1
    8388:	5afffff6 	bpl	8368 <__cxa_finalize+0x54>
    838c:	e5977000 	ldr	r7, [r7]
    8390:	e3570000 	cmp	r7, #0
    8394:	1afffff0 	bne	835c <__cxa_finalize+0x48>
    8398:	e59f3054 	ldr	r3, [pc, #84]	; 83f4 <__cxa_finalize+0xe0>
    839c:	e08f3003 	add	r3, pc, r3
    83a0:	e5933000 	ldr	r3, [r3]
    83a4:	e59f204c 	ldr	r2, [pc, #76]	; 83f8 <__cxa_finalize+0xe4>
    83a8:	e2433001 	sub	r3, r3, #1
    83ac:	e3530000 	cmp	r3, #0
    83b0:	e08f2002 	add	r2, pc, r2
    83b4:	e5823000 	str	r3, [r2]
    83b8:	18bd81f0 	popne	{r4, r5, r6, r7, r8, pc}
    83bc:	e5980000 	ldr	r0, [r8]
    83c0:	e3500000 	cmp	r0, #0
    83c4:	0a000003 	beq	83d8 <__cxa_finalize+0xc4>
    83c8:	e5904000 	ldr	r4, [r0]
    83cc:	eb000772 	bl	a19c <free>
    83d0:	e2540000 	subs	r0, r4, #0
    83d4:	1afffffb 	bne	83c8 <__cxa_finalize+0xb4>
    83d8:	e3a03000 	mov	r3, #0
    83dc:	e5883000 	str	r3, [r8]
    83e0:	e8bd81f0 	pop	{r4, r5, r6, r7, r8, pc}
    83e4:	00004d14 	.word	0x00004d14
    83e8:	00004cec 	.word	0x00004cec
    83ec:	00004d94 	.word	0x00004d94
    83f0:	00000014 	.word	0x00000014
    83f4:	00004d34 	.word	0x00004d34
    83f8:	00004d20 	.word	0x00004d20

000083fc <sbrk>:
    83fc:	e92d4070 	push	{r4, r5, r6, lr}
    8400:	e1a04000 	mov	r4, r0
    8404:	e59f5050 	ldr	r5, [pc, #80]	; 845c <sbrk+0x60>
    8408:	e08f5005 	add	r5, pc, r5
    840c:	e5950000 	ldr	r0, [r5]
    8410:	e3500000 	cmp	r0, #0
    8414:	0a00000d 	beq	8450 <sbrk+0x54>
    8418:	e280001f 	add	r0, r0, #31
    841c:	e284401f 	add	r4, r4, #31
    8420:	e3c0501f 	bic	r5, r0, #31
    8424:	e3c4401f 	bic	r4, r4, #31
    8428:	e0854004 	add	r4, r5, r4
    842c:	e1a00004 	mov	r0, r4
    8430:	eb000a0d 	bl	ac6c <brk>
    8434:	e1540000 	cmp	r4, r0
    8438:	83e05000 	mvnhi	r5, #0
    843c:	959f301c 	ldrls	r3, [pc, #28]	; 8460 <sbrk+0x64>
    8440:	908f3003 	addls	r3, pc, r3
    8444:	95830000 	strls	r0, [r3]
    8448:	e1a00005 	mov	r0, r5
    844c:	e8bd8070 	pop	{r4, r5, r6, pc}
    8450:	eb000a05 	bl	ac6c <brk>
    8454:	e5850000 	str	r0, [r5]
    8458:	eaffffee 	b	8418 <sbrk+0x1c>
    845c:	00004ccc 	.word	0x00004ccc
    8460:	00004c94 	.word	0x00004c94

00008464 <init_mparams.part.2>:
    8464:	e59f1084 	ldr	r1, [pc, #132]	; 84f0 <init_mparams.part.2+0x8c>
    8468:	e3052550 	movw	r2, #21840	; 0x5550
    846c:	e3452555 	movt	r2, #21845	; 0x5555
    8470:	e59fc07c 	ldr	ip, [pc, #124]	; 84f4 <init_mparams.part.2+0x90>
    8474:	e08f1001 	add	r1, pc, r1
    8478:	e92d4010 	push	{r4, lr}
    847c:	e3e04000 	mvn	r4, #0
    8480:	e59f3070 	ldr	r3, [pc, #112]	; 84f8 <init_mparams.part.2+0x94>
    8484:	e24dd008 	sub	sp, sp, #8
    8488:	e791e00c 	ldr	lr, [r1, ip]
    848c:	e08f3003 	add	r3, pc, r3
    8490:	e1a0000d 	mov	r0, sp
    8494:	e3a01602 	mov	r1, #2097152	; 0x200000
    8498:	e0222000 	eor	r2, r2, r0
    849c:	e59f0058 	ldr	r0, [pc, #88]	; 84fc <init_mparams.part.2+0x98>
    84a0:	e5831010 	str	r1, [r3, #16]
    84a4:	e3822008 	orr	r2, r2, #8
    84a8:	e59e1000 	ldr	r1, [lr]
    84ac:	e08f0000 	add	r0, pc, r0
    84b0:	e58d1004 	str	r1, [sp, #4]
    84b4:	e3a0ca01 	mov	ip, #4096	; 0x1000
    84b8:	e5832000 	str	r2, [r3]
    84bc:	e3a01000 	mov	r1, #0
    84c0:	e583400c 	str	r4, [r3, #12]
    84c4:	e59d4004 	ldr	r4, [sp, #4]
    84c8:	e59e2000 	ldr	r2, [lr]
    84cc:	e583c008 	str	ip, [r3, #8]
    84d0:	e1540002 	cmp	r4, r2
    84d4:	e583c004 	str	ip, [r3, #4]
    84d8:	e5831014 	str	r1, [r3, #20]
    84dc:	e58011bc 	str	r1, [r0, #444]	; 0x1bc
    84e0:	1a000001 	bne	84ec <init_mparams.part.2+0x88>
    84e4:	e28dd008 	add	sp, sp, #8
    84e8:	e8bd8010 	pop	{r4, pc}
    84ec:	eb000eec 	bl	c0a4 <__stack_chk_fail>
    84f0:	00004ba0 	.word	0x00004ba0
    84f4:	0000000c 	.word	0x0000000c
    84f8:	00004e24 	.word	0x00004e24
    84fc:	00004c2c 	.word	0x00004c2c

00008500 <sys_trim.constprop.7>:
    8500:	e59f31c8 	ldr	r3, [pc, #456]	; 86d0 <sys_trim.constprop.7+0x1d0>
    8504:	e92d4070 	push	{r4, r5, r6, lr}
    8508:	e1a05000 	mov	r5, r0
    850c:	e08f3003 	add	r3, pc, r3
    8510:	e5933000 	ldr	r3, [r3]
    8514:	e3530000 	cmp	r3, #0
    8518:	0a000036 	beq	85f8 <sys_trim.constprop.7+0xf8>
    851c:	e3750041 	cmn	r5, #65	; 0x41
    8520:	8a000032 	bhi	85f0 <sys_trim.constprop.7+0xf0>
    8524:	e59f41a8 	ldr	r4, [pc, #424]	; 86d4 <sys_trim.constprop.7+0x1d4>
    8528:	e08f4004 	add	r4, pc, r4
    852c:	e5942018 	ldr	r2, [r4, #24]
    8530:	e3520000 	cmp	r2, #0
    8534:	0a00002d 	beq	85f0 <sys_trim.constprop.7+0xf0>
    8538:	e594100c 	ldr	r1, [r4, #12]
    853c:	e2855028 	add	r5, r5, #40	; 0x28
    8540:	e1550001 	cmp	r5, r1
    8544:	2a000024 	bcs	85dc <sys_trim.constprop.7+0xdc>
    8548:	e2844d07 	add	r4, r4, #448	; 0x1c0
    854c:	e5943000 	ldr	r3, [r4]
    8550:	e1520003 	cmp	r2, r3
    8554:	3a000003 	bcc	8568 <sys_trim.constprop.7+0x68>
    8558:	e5940004 	ldr	r0, [r4, #4]
    855c:	e0833000 	add	r3, r3, r0
    8560:	e1520003 	cmp	r2, r3
    8564:	3a000004 	bcc	857c <sys_trim.constprop.7+0x7c>
    8568:	e5944008 	ldr	r4, [r4, #8]
    856c:	e3540000 	cmp	r4, #0
    8570:	1afffff5 	bne	854c <sys_trim.constprop.7+0x4c>
    8574:	e594300c 	ldr	r3, [r4, #12]
    8578:	e7f000f0 	udf	#0
    857c:	e594300c 	ldr	r3, [r4, #12]
    8580:	e3130008 	tst	r3, #8
    8584:	1a000014 	bne	85dc <sys_trim.constprop.7+0xdc>
    8588:	e59f3148 	ldr	r3, [pc, #328]	; 86d8 <sys_trim.constprop.7+0x1d8>
    858c:	e3a00000 	mov	r0, #0
    8590:	e08f3003 	add	r3, pc, r3
    8594:	e5933008 	ldr	r3, [r3, #8]
    8598:	e0811003 	add	r1, r1, r3
    859c:	e2411001 	sub	r1, r1, #1
    85a0:	e0415005 	sub	r5, r1, r5
    85a4:	e735f315 	udiv	r5, r5, r3
    85a8:	e2455001 	sub	r5, r5, #1
    85ac:	e0050593 	mul	r5, r3, r5
    85b0:	e375010a 	cmn	r5, #-2147483646	; 0x80000002
    85b4:	82635102 	rsbhi	r5, r3, #-2147483648	; 0x80000000
    85b8:	ebffff8f 	bl	83fc <sbrk>
    85bc:	e1c420d0 	ldrd	r2, [r4]
    85c0:	e1a06000 	mov	r6, r0
    85c4:	e0833002 	add	r3, r3, r2
    85c8:	e1500003 	cmp	r0, r3
    85cc:	0a00000f 	beq	8610 <sys_trim.constprop.7+0x110>
    85d0:	e59f3104 	ldr	r3, [pc, #260]	; 86dc <sys_trim.constprop.7+0x1dc>
    85d4:	e08f3003 	add	r3, pc, r3
    85d8:	e593100c 	ldr	r1, [r3, #12]
    85dc:	e59f30fc 	ldr	r3, [pc, #252]	; 86e0 <sys_trim.constprop.7+0x1e0>
    85e0:	e08f3003 	add	r3, pc, r3
    85e4:	e593201c 	ldr	r2, [r3, #28]
    85e8:	e1520001 	cmp	r2, r1
    85ec:	3a000003 	bcc	8600 <sys_trim.constprop.7+0x100>
    85f0:	e3a00000 	mov	r0, #0
    85f4:	e8bd8070 	pop	{r4, r5, r6, pc}
    85f8:	ebffff99 	bl	8464 <init_mparams.part.2>
    85fc:	eaffffc6 	b	851c <sys_trim.constprop.7+0x1c>
    8600:	e3e02000 	mvn	r2, #0
    8604:	e3a00000 	mov	r0, #0
    8608:	e583201c 	str	r2, [r3, #28]
    860c:	e8bd8070 	pop	{r4, r5, r6, pc}
    8610:	e2650000 	rsb	r0, r5, #0
    8614:	ebffff78 	bl	83fc <sbrk>
    8618:	e1a05000 	mov	r5, r0
    861c:	e3a00000 	mov	r0, #0
    8620:	ebffff75 	bl	83fc <sbrk>
    8624:	e3750001 	cmn	r5, #1
    8628:	11560000 	cmpne	r6, r0
    862c:	9a000023 	bls	86c0 <sys_trim.constprop.7+0x1c0>
    8630:	e0566000 	subs	r6, r6, r0
    8634:	0a000021 	beq	86c0 <sys_trim.constprop.7+0x1c0>
    8638:	e59f00a4 	ldr	r0, [pc, #164]	; 86e4 <sys_trim.constprop.7+0x1e4>
    863c:	e5943004 	ldr	r3, [r4, #4]
    8640:	e08f0000 	add	r0, pc, r0
    8644:	e0433006 	sub	r3, r3, r6
    8648:	e5843004 	str	r3, [r4, #4]
    864c:	e3a04028 	mov	r4, #40	; 0x28
    8650:	e5902018 	ldr	r2, [r0, #24]
    8654:	e590100c 	ldr	r1, [r0, #12]
    8658:	e2823008 	add	r3, r2, #8
    865c:	e590c1b0 	ldr	ip, [r0, #432]	; 0x1b0
    8660:	e3130007 	tst	r3, #7
    8664:	12633000 	rsbne	r3, r3, #0
    8668:	e04cc006 	sub	ip, ip, r6
    866c:	12033007 	andne	r3, r3, #7
    8670:	e580c1b0 	str	ip, [r0, #432]	; 0x1b0
    8674:	e0416006 	sub	r6, r1, r6
    8678:	e59f0068 	ldr	r0, [pc, #104]	; 86e8 <sys_trim.constprop.7+0x1e8>
    867c:	1082c003 	addne	ip, r2, r3
    8680:	01a0c002 	moveq	ip, r2
    8684:	e0821006 	add	r1, r2, r6
    8688:	e59f205c 	ldr	r2, [pc, #92]	; 86ec <sys_trim.constprop.7+0x1ec>
    868c:	e08f0000 	add	r0, pc, r0
    8690:	10463003 	subne	r3, r6, r3
    8694:	e08f2002 	add	r2, pc, r2
    8698:	01a03006 	moveq	r3, r6
    869c:	e3835001 	orr	r5, r3, #1
    86a0:	e590e010 	ldr	lr, [r0, #16]
    86a4:	e3a00001 	mov	r0, #1
    86a8:	e582c018 	str	ip, [r2, #24]
    86ac:	e582300c 	str	r3, [r2, #12]
    86b0:	e58c5004 	str	r5, [ip, #4]
    86b4:	e5814004 	str	r4, [r1, #4]
    86b8:	e582e01c 	str	lr, [r2, #28]
    86bc:	e8bd8070 	pop	{r4, r5, r6, pc}
    86c0:	e59f3028 	ldr	r3, [pc, #40]	; 86f0 <sys_trim.constprop.7+0x1f0>
    86c4:	e08f3003 	add	r3, pc, r3
    86c8:	e593100c 	ldr	r1, [r3, #12]
    86cc:	eaffffc2 	b	85dc <sys_trim.constprop.7+0xdc>
    86d0:	00004da4 	.word	0x00004da4
    86d4:	00004bb0 	.word	0x00004bb0
    86d8:	00004d20 	.word	0x00004d20
    86dc:	00004b04 	.word	0x00004b04
    86e0:	00004af8 	.word	0x00004af8
    86e4:	00004a98 	.word	0x00004a98
    86e8:	00004c24 	.word	0x00004c24
    86ec:	00004a44 	.word	0x00004a44
    86f0:	00004a14 	.word	0x00004a14

000086f4 <malloc>:
    86f4:	e92d4ff0 	push	{r4, r5, r6, r7, r8, r9, sl, fp, lr}
    86f8:	e35000f4 	cmp	r0, #244	; 0xf4
    86fc:	e24dd00c 	sub	sp, sp, #12
    8700:	8a00002d 	bhi	87bc <malloc+0xc8>
    8704:	e59fefdc 	ldr	lr, [pc, #4060]	; 96e8 <malloc+0xff4>
    8708:	e350000a 	cmp	r0, #10
    870c:	8280400b 	addhi	r4, r0, #11
    8710:	93a01002 	movls	r1, #2
    8714:	e08fe00e 	add	lr, pc, lr
    8718:	83c44007 	bichi	r4, r4, #7
    871c:	93a04010 	movls	r4, #16
    8720:	81a011a4 	lsrhi	r1, r4, #3
    8724:	e59ec000 	ldr	ip, [lr]
    8728:	e1a0313c 	lsr	r3, ip, r1
    872c:	e3130003 	tst	r3, #3
    8730:	0a00004e 	beq	8870 <malloc+0x17c>
    8734:	e1e03003 	mvn	r3, r3
    8738:	e2033001 	and	r3, r3, #1
    873c:	e0833001 	add	r3, r3, r1
    8740:	e08e1183 	add	r1, lr, r3, lsl #3
    8744:	e2811028 	add	r1, r1, #40	; 0x28
    8748:	e5910008 	ldr	r0, [r1, #8]
    874c:	e5902004 	ldr	r2, [r0, #4]
    8750:	e3c22007 	bic	r2, r2, #7
    8754:	e1520183 	cmp	r2, r3, lsl #3
    8758:	1a0001e9 	bne	8f04 <malloc+0x810>
    875c:	e1510000 	cmp	r1, r0
    8760:	e5904008 	ldr	r4, [r0, #8]
    8764:	0a0001e6 	beq	8f04 <malloc+0x810>
    8768:	e1500004 	cmp	r0, r4
    876c:	0a0001e4 	beq	8f04 <malloc+0x810>
    8770:	e1510004 	cmp	r1, r4
    8774:	0a00019c 	beq	8dec <malloc+0x6f8>
    8778:	e59e3010 	ldr	r3, [lr, #16]
    877c:	e1530004 	cmp	r3, r4
    8780:	8a0001df 	bhi	8f04 <malloc+0x810>
    8784:	e594300c 	ldr	r3, [r4, #12]
    8788:	e1530000 	cmp	r3, r0
    878c:	1a0001dc 	bne	8f04 <malloc+0x810>
    8790:	e584100c 	str	r1, [r4, #12]
    8794:	e5814008 	str	r4, [r1, #8]
    8798:	e0801002 	add	r1, r0, r2
    879c:	e3822003 	orr	r2, r2, #3
    87a0:	e5802004 	str	r2, [r0, #4]
    87a4:	e2800008 	add	r0, r0, #8
    87a8:	e5913004 	ldr	r3, [r1, #4]
    87ac:	e3833001 	orr	r3, r3, #1
    87b0:	e5813004 	str	r3, [r1, #4]
    87b4:	e28dd00c 	add	sp, sp, #12
    87b8:	e8bd8ff0 	pop	{r4, r5, r6, r7, r8, r9, sl, fp, pc}
    87bc:	e59f3f28 	ldr	r3, [pc, #3880]	; 96ec <malloc+0xff8>
    87c0:	e3700041 	cmn	r0, #65	; 0x41
    87c4:	e08f3003 	add	r3, pc, r3
    87c8:	e5932008 	ldr	r2, [r3, #8]
    87cc:	9a00000f 	bls	8810 <malloc+0x11c>
    87d0:	e3720001 	cmn	r2, #1
    87d4:	1a000090 	bne	8a1c <malloc+0x328>
    87d8:	e5930014 	ldr	r0, [r3, #20]
    87dc:	e240c001 	sub	ip, r0, #1
    87e0:	e59f3f08 	ldr	r3, [pc, #3848]	; 96f0 <malloc+0xffc>
    87e4:	e3a01000 	mov	r1, #0
    87e8:	e08f3003 	add	r3, pc, r3
    87ec:	e5831008 	str	r1, [r3, #8]
    87f0:	e5831014 	str	r1, [r3, #20]
    87f4:	e5802004 	str	r2, [r0, #4]
    87f8:	e59c3004 	ldr	r3, [ip, #4]
    87fc:	e3833001 	orr	r3, r3, #1
    8800:	e58c3004 	str	r3, [ip, #4]
    8804:	e2800008 	add	r0, r0, #8
    8808:	e28dd00c 	add	sp, sp, #12
    880c:	e8bd8ff0 	pop	{r4, r5, r6, r7, r8, r9, sl, fp, pc}
    8810:	e5931004 	ldr	r1, [r3, #4]
    8814:	e280400b 	add	r4, r0, #11
    8818:	e3c44007 	bic	r4, r4, #7
    881c:	e3510000 	cmp	r1, #0
    8820:	1a0000ea 	bne	8bd0 <malloc+0x4dc>
    8824:	e1540002 	cmp	r4, r2
    8828:	9a00006b 	bls	89dc <malloc+0x2e8>
    882c:	e59f2ec0 	ldr	r2, [pc, #3776]	; 96f4 <malloc+0x1000>
    8830:	e08f2002 	add	r2, pc, r2
    8834:	e592300c 	ldr	r3, [r2, #12]
    8838:	e1530004 	cmp	r3, r4
    883c:	9a00064c 	bls	a174 <malloc+0x1a80>
    8840:	e5921018 	ldr	r1, [r2, #24]
    8844:	e0433004 	sub	r3, r3, r4
    8848:	e383c001 	orr	ip, r3, #1
    884c:	e582300c 	str	r3, [r2, #12]
    8850:	e0813004 	add	r3, r1, r4
    8854:	e2810008 	add	r0, r1, #8
    8858:	e5823018 	str	r3, [r2, #24]
    885c:	e3844003 	orr	r4, r4, #3
    8860:	e583c004 	str	ip, [r3, #4]
    8864:	e5814004 	str	r4, [r1, #4]
    8868:	e28dd00c 	add	sp, sp, #12
    886c:	e8bd8ff0 	pop	{r4, r5, r6, r7, r8, r9, sl, fp, pc}
    8870:	e59e2008 	ldr	r2, [lr, #8]
    8874:	e1520004 	cmp	r2, r4
    8878:	2a000057 	bcs	89dc <malloc+0x2e8>
    887c:	e3530000 	cmp	r3, #0
    8880:	0a0001a1 	beq	8f0c <malloc+0x818>
    8884:	e3a05001 	mov	r5, #1
    8888:	e1a00115 	lsl	r0, r5, r1
    888c:	e1a06510 	lsl	r6, r0, r5
    8890:	e2660000 	rsb	r0, r6, #0
    8894:	e1800006 	orr	r0, r0, r6
    8898:	e0001113 	and	r1, r0, r3, lsl r1
    889c:	e2613000 	rsb	r3, r1, #0
    88a0:	e0033001 	and	r3, r3, r1
    88a4:	e2433001 	sub	r3, r3, #1
    88a8:	e1a01623 	lsr	r1, r3, #12
    88ac:	e2011010 	and	r1, r1, #16
    88b0:	e1a03133 	lsr	r3, r3, r1
    88b4:	e1a002a3 	lsr	r0, r3, #5
    88b8:	e2000008 	and	r0, r0, #8
    88bc:	e1811000 	orr	r1, r1, r0
    88c0:	e1a03033 	lsr	r3, r3, r0
    88c4:	e1a00123 	lsr	r0, r3, #2
    88c8:	e2000004 	and	r0, r0, #4
    88cc:	e0811000 	add	r1, r1, r0
    88d0:	e1a03033 	lsr	r3, r3, r0
    88d4:	e1a00533 	lsr	r0, r3, r5
    88d8:	e2000002 	and	r0, r0, #2
    88dc:	e0811000 	add	r1, r1, r0
    88e0:	e1a03033 	lsr	r3, r3, r0
    88e4:	e7e000d3 	ubfx	r0, r3, #1, #1
    88e8:	e0811000 	add	r1, r1, r0
    88ec:	e0813033 	add	r3, r1, r3, lsr r0
    88f0:	e08e1183 	add	r1, lr, r3, lsl #3
    88f4:	e2811028 	add	r1, r1, #40	; 0x28
    88f8:	e5910008 	ldr	r0, [r1, #8]
    88fc:	e5907004 	ldr	r7, [r0, #4]
    8900:	e3c77007 	bic	r7, r7, #7
    8904:	e1570183 	cmp	r7, r3, lsl #3
    8908:	1a00017d 	bne	8f04 <malloc+0x810>
    890c:	e1510000 	cmp	r1, r0
    8910:	e5906008 	ldr	r6, [r0, #8]
    8914:	0a00017a 	beq	8f04 <malloc+0x810>
    8918:	e1500006 	cmp	r0, r6
    891c:	0a000178 	beq	8f04 <malloc+0x810>
    8920:	e1510006 	cmp	r1, r6
    8924:	01cc3315 	biceq	r3, ip, r5, lsl r3
    8928:	058e3000 	streq	r3, [lr]
    892c:	0a000007 	beq	8950 <malloc+0x25c>
    8930:	e59e3010 	ldr	r3, [lr, #16]
    8934:	e1530006 	cmp	r3, r6
    8938:	8a000171 	bhi	8f04 <malloc+0x810>
    893c:	e596300c 	ldr	r3, [r6, #12]
    8940:	e1530000 	cmp	r3, r0
    8944:	1a00016e 	bne	8f04 <malloc+0x810>
    8948:	e586100c 	str	r1, [r6, #12]
    894c:	e5816008 	str	r6, [r1, #8]
    8950:	e080e004 	add	lr, r0, r4
    8954:	e047c004 	sub	ip, r7, r4
    8958:	e38c3001 	orr	r3, ip, #1
    895c:	e3844003 	orr	r4, r4, #3
    8960:	e3520000 	cmp	r2, #0
    8964:	e5804004 	str	r4, [r0, #4]
    8968:	e1a051a2 	lsr	r5, r2, #3
    896c:	e58e3004 	str	r3, [lr, #4]
    8970:	e780c007 	str	ip, [r0, r7]
    8974:	0a000012 	beq	89c4 <malloc+0x2d0>
    8978:	e59f1d78 	ldr	r1, [pc, #3448]	; 96f8 <malloc+0x1004>
    897c:	e352000f 	cmp	r2, #15
    8980:	e08f1001 	add	r1, pc, r1
    8984:	e0813185 	add	r3, r1, r5, lsl #3
    8988:	e2833028 	add	r3, r3, #40	; 0x28
    898c:	e5912014 	ldr	r2, [r1, #20]
    8990:	9a00015b 	bls	8f04 <malloc+0x810>
    8994:	e3a04001 	mov	r4, #1
    8998:	e5916000 	ldr	r6, [r1]
    899c:	e1a04514 	lsl	r4, r4, r5
    89a0:	e1160004 	tst	r6, r4
    89a4:	1a0003da 	bne	9914 <malloc+0x1220>
    89a8:	e1a05003 	mov	r5, r3
    89ac:	e1864004 	orr	r4, r6, r4
    89b0:	e5814000 	str	r4, [r1]
    89b4:	e5832008 	str	r2, [r3, #8]
    89b8:	e585200c 	str	r2, [r5, #12]
    89bc:	e5825008 	str	r5, [r2, #8]
    89c0:	e582300c 	str	r3, [r2, #12]
    89c4:	e59f3d30 	ldr	r3, [pc, #3376]	; 96fc <malloc+0x1008>
    89c8:	e2800008 	add	r0, r0, #8
    89cc:	e08f3003 	add	r3, pc, r3
    89d0:	e583c008 	str	ip, [r3, #8]
    89d4:	e583e014 	str	lr, [r3, #20]
    89d8:	eaffff75 	b	87b4 <malloc+0xc0>
    89dc:	e59f1d1c 	ldr	r1, [pc, #3356]	; 9700 <malloc+0x100c>
    89e0:	e0423004 	sub	r3, r2, r4
    89e4:	e353000f 	cmp	r3, #15
    89e8:	e08f1001 	add	r1, pc, r1
    89ec:	e5910014 	ldr	r0, [r1, #20]
    89f0:	e080c002 	add	ip, r0, r2
    89f4:	9a000408 	bls	9a1c <malloc+0x1328>
    89f8:	e080c004 	add	ip, r0, r4
    89fc:	e5813008 	str	r3, [r1, #8]
    8a00:	e581c014 	str	ip, [r1, #20]
    8a04:	e3844003 	orr	r4, r4, #3
    8a08:	e3831001 	orr	r1, r3, #1
    8a0c:	e58c1004 	str	r1, [ip, #4]
    8a10:	e7803002 	str	r3, [r0, r2]
    8a14:	e5804004 	str	r4, [r0, #4]
    8a18:	eaffff79 	b	8804 <malloc+0x110>
    8a1c:	e59f3ce0 	ldr	r3, [pc, #3296]	; 9704 <malloc+0x1010>
    8a20:	e08f3003 	add	r3, pc, r3
    8a24:	e5933000 	ldr	r3, [r3]
    8a28:	e3530000 	cmp	r3, #0
    8a2c:	1a00012a 	bne	8edc <malloc+0x7e8>
    8a30:	e3e04000 	mvn	r4, #0
    8a34:	ebfffe8a 	bl	8464 <init_mparams.part.2>
    8a38:	e59f3cc8 	ldr	r3, [pc, #3272]	; 9708 <malloc+0x1014>
    8a3c:	e08f3003 	add	r3, pc, r3
    8a40:	e5936008 	ldr	r6, [r3, #8]
    8a44:	e286002f 	add	r0, r6, #47	; 0x2f
    8a48:	e266c000 	rsb	ip, r6, #0
    8a4c:	e0848000 	add	r8, r4, r0
    8a50:	e008800c 	and	r8, r8, ip
    8a54:	e1580004 	cmp	r8, r4
    8a58:	9a00011f 	bls	8edc <malloc+0x7e8>
    8a5c:	e59f3ca8 	ldr	r3, [pc, #3240]	; 970c <malloc+0x1018>
    8a60:	e08f3003 	add	r3, pc, r3
    8a64:	e59321b8 	ldr	r2, [r3, #440]	; 0x1b8
    8a68:	e3520000 	cmp	r2, #0
    8a6c:	0a000008 	beq	8a94 <malloc+0x3a0>
    8a70:	e59331b0 	ldr	r3, [r3, #432]	; 0x1b0
    8a74:	e0881003 	add	r1, r8, r3
    8a78:	e1530001 	cmp	r3, r1
    8a7c:	33a03000 	movcc	r3, #0
    8a80:	23a03001 	movcs	r3, #1
    8a84:	e1520001 	cmp	r2, r1
    8a88:	33833001 	orrcc	r3, r3, #1
    8a8c:	e3530000 	cmp	r3, #0
    8a90:	1a000111 	bne	8edc <malloc+0x7e8>
    8a94:	e59f7c74 	ldr	r7, [pc, #3188]	; 9710 <malloc+0x101c>
    8a98:	e08f7007 	add	r7, pc, r7
    8a9c:	e597e1bc 	ldr	lr, [r7, #444]	; 0x1bc
    8aa0:	e31e0004 	tst	lr, #4
    8aa4:	0a0000d4 	beq	8dfc <malloc+0x708>
    8aa8:	e378010a 	cmn	r8, #-2147483646	; 0x80000002
    8aac:	8a00010a 	bhi	8edc <malloc+0x7e8>
    8ab0:	e1a00008 	mov	r0, r8
    8ab4:	ebfffe50 	bl	83fc <sbrk>
    8ab8:	e1a05000 	mov	r5, r0
    8abc:	e3a00000 	mov	r0, #0
    8ac0:	ebfffe4d 	bl	83fc <sbrk>
    8ac4:	e3700001 	cmn	r0, #1
    8ac8:	13750001 	cmnne	r5, #1
    8acc:	13a03001 	movne	r3, #1
    8ad0:	03a03000 	moveq	r3, #0
    8ad4:	e1550000 	cmp	r5, r0
    8ad8:	23a03000 	movcs	r3, #0
    8adc:	32033001 	andcc	r3, r3, #1
    8ae0:	e3530000 	cmp	r3, #0
    8ae4:	0a0000fc 	beq	8edc <malloc+0x7e8>
    8ae8:	e0406005 	sub	r6, r0, r5
    8aec:	e2843028 	add	r3, r4, #40	; 0x28
    8af0:	e1560003 	cmp	r6, r3
    8af4:	9a0000f8 	bls	8edc <malloc+0x7e8>
    8af8:	e3750001 	cmn	r5, #1
    8afc:	0a0000f6 	beq	8edc <malloc+0x7e8>
    8b00:	e59f2c0c 	ldr	r2, [pc, #3084]	; 9714 <malloc+0x1020>
    8b04:	e08f2002 	add	r2, pc, r2
    8b08:	e59231b0 	ldr	r3, [r2, #432]	; 0x1b0
    8b0c:	e59211b4 	ldr	r1, [r2, #436]	; 0x1b4
    8b10:	e0863003 	add	r3, r6, r3
    8b14:	e58231b0 	str	r3, [r2, #432]	; 0x1b0
    8b18:	e1530001 	cmp	r3, r1
    8b1c:	858231b4 	strhi	r3, [r2, #436]	; 0x1b4
    8b20:	e59f3bf0 	ldr	r3, [pc, #3056]	; 9718 <malloc+0x1024>
    8b24:	e08f3003 	add	r3, pc, r3
    8b28:	e593e018 	ldr	lr, [r3, #24]
    8b2c:	e35e0000 	cmp	lr, #0
    8b30:	12833d07 	addne	r3, r3, #448	; 0x1c0
    8b34:	0a000271 	beq	9500 <malloc+0xe0c>
    8b38:	e5932000 	ldr	r2, [r3]
    8b3c:	e5931004 	ldr	r1, [r3, #4]
    8b40:	e0820001 	add	r0, r2, r1
    8b44:	e1500005 	cmp	r0, r5
    8b48:	0a00018e 	beq	9188 <malloc+0xa94>
    8b4c:	e5933008 	ldr	r3, [r3, #8]
    8b50:	e3530000 	cmp	r3, #0
    8b54:	1afffff7 	bne	8b38 <malloc+0x444>
    8b58:	e59f3bbc 	ldr	r3, [pc, #3004]	; 971c <malloc+0x1028>
    8b5c:	e0851006 	add	r1, r5, r6
    8b60:	e08f3003 	add	r3, pc, r3
    8b64:	e5932010 	ldr	r2, [r3, #16]
    8b68:	e1520005 	cmp	r2, r5
    8b6c:	85835010 	strhi	r5, [r3, #16]
    8b70:	e59f3ba8 	ldr	r3, [pc, #2984]	; 9720 <malloc+0x102c>
    8b74:	e08f3003 	add	r3, pc, r3
    8b78:	e2833d07 	add	r3, r3, #448	; 0x1c0
    8b7c:	e5932000 	ldr	r2, [r3]
    8b80:	e1520001 	cmp	r2, r1
    8b84:	0a000178 	beq	916c <malloc+0xa78>
    8b88:	e5933008 	ldr	r3, [r3, #8]
    8b8c:	e3530000 	cmp	r3, #0
    8b90:	1afffff9 	bne	8b7c <malloc+0x488>
    8b94:	e59f3b88 	ldr	r3, [pc, #2952]	; 9724 <malloc+0x1030>
    8b98:	e08f3003 	add	r3, pc, r3
    8b9c:	e2833d07 	add	r3, r3, #448	; 0x1c0
    8ba0:	e5932000 	ldr	r2, [r3]
    8ba4:	e15e0002 	cmp	lr, r2
    8ba8:	3a000003 	bcc	8bbc <malloc+0x4c8>
    8bac:	e5931004 	ldr	r1, [r3, #4]
    8bb0:	e0822001 	add	r2, r2, r1
    8bb4:	e15e0002 	cmp	lr, r2
    8bb8:	3a0001a3 	bcc	924c <malloc+0xb58>
    8bbc:	e5933008 	ldr	r3, [r3, #8]
    8bc0:	e3530000 	cmp	r3, #0
    8bc4:	1afffff5 	bne	8ba0 <malloc+0x4ac>
    8bc8:	e5933000 	ldr	r3, [r3]
    8bcc:	e7f000f0 	udf	#0
    8bd0:	e2646000 	rsb	r6, r4, #0
    8bd4:	e1b07424 	lsrs	r7, r4, #8
    8bd8:	1a00015b 	bne	914c <malloc+0xa58>
    8bdc:	e593c130 	ldr	ip, [r3, #304]	; 0x130
    8be0:	e35c0000 	cmp	ip, #0
    8be4:	01a08006 	moveq	r8, r6
    8be8:	03e07001 	mvneq	r7, #1
    8bec:	0a0001f4 	beq	93c4 <malloc+0xcd0>
    8bf0:	e3a0e019 	mov	lr, #25
    8bf4:	e1a0ee14 	lsl	lr, r4, lr
    8bf8:	e3a05000 	mov	r5, #0
    8bfc:	e1a00005 	mov	r0, r5
    8c00:	ea000000 	b	8c08 <malloc+0x514>
    8c04:	e1a0e08e 	lsl	lr, lr, #1
    8c08:	e59c8004 	ldr	r8, [ip, #4]
    8c0c:	e3c88007 	bic	r8, r8, #7
    8c10:	e0488004 	sub	r8, r8, r4
    8c14:	e1580006 	cmp	r8, r6
    8c18:	2a000003 	bcs	8c2c <malloc+0x538>
    8c1c:	e3580000 	cmp	r8, #0
    8c20:	0a00027e 	beq	9620 <malloc+0xf2c>
    8c24:	e1a06008 	mov	r6, r8
    8c28:	e1a0000c 	mov	r0, ip
    8c2c:	e1a03fae 	lsr	r3, lr, #31
    8c30:	e59c8014 	ldr	r8, [ip, #20]
    8c34:	e2833004 	add	r3, r3, #4
    8c38:	e79cc103 	ldr	ip, [ip, r3, lsl #2]
    8c3c:	e3580000 	cmp	r8, #0
    8c40:	1158000c 	cmpne	r8, ip
    8c44:	11a05008 	movne	r5, r8
    8c48:	e35c0000 	cmp	ip, #0
    8c4c:	1affffec 	bne	8c04 <malloc+0x510>
    8c50:	e3550000 	cmp	r5, #0
    8c54:	03500000 	cmpeq	r0, #0
    8c58:	0a0001d6 	beq	93b8 <malloc+0xcc4>
    8c5c:	e3550000 	cmp	r5, #0
    8c60:	e1a08006 	mov	r8, r6
    8c64:	11a0c005 	movne	ip, r5
    8c68:	1a000001 	bne	8c74 <malloc+0x580>
    8c6c:	ea00000c 	b	8ca4 <malloc+0x5b0>
    8c70:	e1a0c00e 	mov	ip, lr
    8c74:	e59c3004 	ldr	r3, [ip, #4]
    8c78:	e59ce010 	ldr	lr, [ip, #16]
    8c7c:	e3c33007 	bic	r3, r3, #7
    8c80:	e0433004 	sub	r3, r3, r4
    8c84:	e1530008 	cmp	r3, r8
    8c88:	31a08003 	movcc	r8, r3
    8c8c:	31a0000c 	movcc	r0, ip
    8c90:	e35e0000 	cmp	lr, #0
    8c94:	1afffff5 	bne	8c70 <malloc+0x57c>
    8c98:	e59ce014 	ldr	lr, [ip, #20]
    8c9c:	e35e0000 	cmp	lr, #0
    8ca0:	1afffff2 	bne	8c70 <malloc+0x57c>
    8ca4:	e3500000 	cmp	r0, #0
    8ca8:	0afffedd 	beq	8824 <malloc+0x130>
    8cac:	e0423004 	sub	r3, r2, r4
    8cb0:	e1530008 	cmp	r3, r8
    8cb4:	9afffeda 	bls	8824 <malloc+0x130>
    8cb8:	e59fca68 	ldr	ip, [pc, #2664]	; 9728 <malloc+0x1034>
    8cbc:	e08fc00c 	add	ip, pc, ip
    8cc0:	e59c6010 	ldr	r6, [ip, #16]
    8cc4:	e1560000 	cmp	r6, r0
    8cc8:	8a00008d 	bhi	8f04 <malloc+0x810>
    8ccc:	e5905004 	ldr	r5, [r0, #4]
    8cd0:	e0843008 	add	r3, r4, r8
    8cd4:	e0807004 	add	r7, r0, r4
    8cd8:	e3c55007 	bic	r5, r5, #7
    8cdc:	e1550003 	cmp	r5, r3
    8ce0:	1a000087 	bne	8f04 <malloc+0x810>
    8ce4:	e1570000 	cmp	r7, r0
    8ce8:	9a000085 	bls	8f04 <malloc+0x810>
    8cec:	e590200c 	ldr	r2, [r0, #12]
    8cf0:	e5909018 	ldr	r9, [r0, #24]
    8cf4:	e1520000 	cmp	r2, r0
    8cf8:	0a000262 	beq	9688 <malloc+0xf94>
    8cfc:	e5903008 	ldr	r3, [r0, #8]
    8d00:	e1560003 	cmp	r6, r3
    8d04:	8a00007e 	bhi	8f04 <malloc+0x810>
    8d08:	e593100c 	ldr	r1, [r3, #12]
    8d0c:	e1510000 	cmp	r1, r0
    8d10:	1a00007b 	bne	8f04 <malloc+0x810>
    8d14:	e5921008 	ldr	r1, [r2, #8]
    8d18:	e1510000 	cmp	r1, r0
    8d1c:	1a000078 	bne	8f04 <malloc+0x810>
    8d20:	e583200c 	str	r2, [r3, #12]
    8d24:	e5823008 	str	r3, [r2, #8]
    8d28:	e3590000 	cmp	r9, #0
    8d2c:	0a000020 	beq	8db4 <malloc+0x6c0>
    8d30:	e590301c 	ldr	r3, [r0, #28]
    8d34:	e59f19f0 	ldr	r1, [pc, #2544]	; 972c <malloc+0x1038>
    8d38:	e283304c 	add	r3, r3, #76	; 0x4c
    8d3c:	e08f1001 	add	r1, pc, r1
    8d40:	e791c103 	ldr	ip, [r1, r3, lsl #2]
    8d44:	e15c0000 	cmp	ip, r0
    8d48:	07812103 	streq	r2, [r1, r3, lsl #2]
    8d4c:	0a000007 	beq	8d70 <malloc+0x67c>
    8d50:	e1560009 	cmp	r6, r9
    8d54:	8a00006a 	bhi	8f04 <malloc+0x810>
    8d58:	e5993010 	ldr	r3, [r9, #16]
    8d5c:	e1530000 	cmp	r3, r0
    8d60:	05892010 	streq	r2, [r9, #16]
    8d64:	15892014 	strne	r2, [r9, #20]
    8d68:	e3520000 	cmp	r2, #0
    8d6c:	0a000010 	beq	8db4 <malloc+0x6c0>
    8d70:	e1560002 	cmp	r6, r2
    8d74:	8a000062 	bhi	8f04 <malloc+0x810>
    8d78:	e5903010 	ldr	r3, [r0, #16]
    8d7c:	e5829018 	str	r9, [r2, #24]
    8d80:	e3530000 	cmp	r3, #0
    8d84:	0a000003 	beq	8d98 <malloc+0x6a4>
    8d88:	e1560003 	cmp	r6, r3
    8d8c:	8a00005c 	bhi	8f04 <malloc+0x810>
    8d90:	e5823010 	str	r3, [r2, #16]
    8d94:	e5832018 	str	r2, [r3, #24]
    8d98:	e5903014 	ldr	r3, [r0, #20]
    8d9c:	e3530000 	cmp	r3, #0
    8da0:	0a000003 	beq	8db4 <malloc+0x6c0>
    8da4:	e1560003 	cmp	r6, r3
    8da8:	8a000055 	bhi	8f04 <malloc+0x810>
    8dac:	e5823014 	str	r3, [r2, #20]
    8db0:	e5832018 	str	r2, [r3, #24]
    8db4:	e358000f 	cmp	r8, #15
    8db8:	8a00021a 	bhi	9628 <malloc+0xf34>
    8dbc:	e0802005 	add	r2, r0, r5
    8dc0:	e3855003 	orr	r5, r5, #3
    8dc4:	e5805004 	str	r5, [r0, #4]
    8dc8:	e5923004 	ldr	r3, [r2, #4]
    8dcc:	e3833001 	orr	r3, r3, #1
    8dd0:	e5823004 	str	r3, [r2, #4]
    8dd4:	e2900008 	adds	r0, r0, #8
    8dd8:	1afffe75 	bne	87b4 <malloc+0xc0>
    8ddc:	e59f394c 	ldr	r3, [pc, #2380]	; 9730 <malloc+0x103c>
    8de0:	e08f3003 	add	r3, pc, r3
    8de4:	e5932008 	ldr	r2, [r3, #8]
    8de8:	eafffe8d 	b	8824 <malloc+0x130>
    8dec:	e3a01001 	mov	r1, #1
    8df0:	e1cc3311 	bic	r3, ip, r1, lsl r3
    8df4:	e58e3000 	str	r3, [lr]
    8df8:	eafffe66 	b	8798 <malloc+0xa4>
    8dfc:	e5971018 	ldr	r1, [r7, #24]
    8e00:	e3510000 	cmp	r1, #0
    8e04:	0a00000a 	beq	8e34 <malloc+0x740>
    8e08:	e2877d07 	add	r7, r7, #448	; 0x1c0
    8e0c:	e5973000 	ldr	r3, [r7]
    8e10:	e1510003 	cmp	r1, r3
    8e14:	3a000003 	bcc	8e28 <malloc+0x734>
    8e18:	e5972004 	ldr	r2, [r7, #4]
    8e1c:	e0833002 	add	r3, r3, r2
    8e20:	e1510003 	cmp	r1, r3
    8e24:	3a000185 	bcc	9440 <malloc+0xd4c>
    8e28:	e5977008 	ldr	r7, [r7, #8]
    8e2c:	e3570000 	cmp	r7, #0
    8e30:	1afffff5 	bne	8e0c <malloc+0x718>
    8e34:	e3a00000 	mov	r0, #0
    8e38:	ebfffd6f 	bl	83fc <sbrk>
    8e3c:	e1a07000 	mov	r7, r0
    8e40:	e3700001 	cmn	r0, #1
    8e44:	0a00001b 	beq	8eb8 <malloc+0x7c4>
    8e48:	e59f38e4 	ldr	r3, [pc, #2276]	; 9734 <malloc+0x1040>
    8e4c:	e08f3003 	add	r3, pc, r3
    8e50:	e5932004 	ldr	r2, [r3, #4]
    8e54:	e2423001 	sub	r3, r2, #1
    8e58:	e1100003 	tst	r0, r3
    8e5c:	10836000 	addne	r6, r3, r0
    8e60:	12622000 	rsbne	r2, r2, #0
    8e64:	10483000 	subne	r3, r8, r0
    8e68:	10066002 	andne	r6, r6, r2
    8e6c:	10866003 	addne	r6, r6, r3
    8e70:	01a06008 	moveq	r6, r8
    8e74:	e1560004 	cmp	r6, r4
    8e78:	83a03001 	movhi	r3, #1
    8e7c:	93a03000 	movls	r3, #0
    8e80:	e376010a 	cmn	r6, #-2147483646	; 0x80000002
    8e84:	83a03000 	movhi	r3, #0
    8e88:	e3530000 	cmp	r3, #0
    8e8c:	0a000009 	beq	8eb8 <malloc+0x7c4>
    8e90:	e59f38a0 	ldr	r3, [pc, #2208]	; 9738 <malloc+0x1044>
    8e94:	e08f3003 	add	r3, pc, r3
    8e98:	e59321b8 	ldr	r2, [r3, #440]	; 0x1b8
    8e9c:	e59331b0 	ldr	r3, [r3, #432]	; 0x1b0
    8ea0:	e3520000 	cmp	r2, #0
    8ea4:	0a0003bd 	beq	9da0 <malloc+0x16ac>
    8ea8:	e0831006 	add	r1, r3, r6
    8eac:	e1510002 	cmp	r1, r2
    8eb0:	91530001 	cmpls	r3, r1
    8eb4:	3a0003b9 	bcc	9da0 <malloc+0x16ac>
    8eb8:	e59f387c 	ldr	r3, [pc, #2172]	; 973c <malloc+0x1048>
    8ebc:	e08f3003 	add	r3, pc, r3
    8ec0:	e593e1bc 	ldr	lr, [r3, #444]	; 0x1bc
    8ec4:	e59f3874 	ldr	r3, [pc, #2164]	; 9740 <malloc+0x104c>
    8ec8:	e38ee004 	orr	lr, lr, #4
    8ecc:	e378010a 	cmn	r8, #-2147483646	; 0x80000002
    8ed0:	e08f3003 	add	r3, pc, r3
    8ed4:	e583e1bc 	str	lr, [r3, #444]	; 0x1bc
    8ed8:	9afffef4 	bls	8ab0 <malloc+0x3bc>
    8edc:	e3a00000 	mov	r0, #0
    8ee0:	eafffe33 	b	87b4 <malloc+0xc0>
    8ee4:	e59f7858 	ldr	r7, [pc, #2136]	; 9744 <malloc+0x1050>
    8ee8:	e08f7007 	add	r7, pc, r7
    8eec:	e5977010 	ldr	r7, [r7, #16]
    8ef0:	e1540007 	cmp	r4, r7
    8ef4:	3a000002 	bcc	8f04 <malloc+0x810>
    8ef8:	e594700c 	ldr	r7, [r4, #12]
    8efc:	e1570002 	cmp	r7, r2
    8f00:	0a0003c2 	beq	9e10 <malloc+0x171c>
    8f04:	e3e00000 	mvn	r0, #0
    8f08:	ebfffc3c 	bl	8000 <exit>
    8f0c:	e59e5004 	ldr	r5, [lr, #4]
    8f10:	e3550000 	cmp	r5, #0
    8f14:	0afffe44 	beq	882c <malloc+0x138>
    8f18:	e2653000 	rsb	r3, r5, #0
    8f1c:	e0033005 	and	r3, r3, r5
    8f20:	e2433001 	sub	r3, r3, #1
    8f24:	e1a01623 	lsr	r1, r3, #12
    8f28:	e2011010 	and	r1, r1, #16
    8f2c:	e1a03133 	lsr	r3, r3, r1
    8f30:	e1a002a3 	lsr	r0, r3, #5
    8f34:	e2000008 	and	r0, r0, #8
    8f38:	e1811000 	orr	r1, r1, r0
    8f3c:	e1a03033 	lsr	r3, r3, r0
    8f40:	e1a00123 	lsr	r0, r3, #2
    8f44:	e2000004 	and	r0, r0, #4
    8f48:	e0811000 	add	r1, r1, r0
    8f4c:	e1a03033 	lsr	r3, r3, r0
    8f50:	e1a000a3 	lsr	r0, r3, #1
    8f54:	e2000002 	and	r0, r0, #2
    8f58:	e0811000 	add	r1, r1, r0
    8f5c:	e1a03033 	lsr	r3, r3, r0
    8f60:	e7e000d3 	ubfx	r0, r3, #1, #1
    8f64:	e0811000 	add	r1, r1, r0
    8f68:	e0813033 	add	r3, r1, r3, lsr r0
    8f6c:	e283304c 	add	r3, r3, #76	; 0x4c
    8f70:	e79e6103 	ldr	r6, [lr, r3, lsl #2]
    8f74:	e1a00006 	mov	r0, r6
    8f78:	e596e004 	ldr	lr, [r6, #4]
    8f7c:	e3cee007 	bic	lr, lr, #7
    8f80:	e04ee004 	sub	lr, lr, r4
    8f84:	ea000006 	b	8fa4 <malloc+0x8b0>
    8f88:	e5913004 	ldr	r3, [r1, #4]
    8f8c:	e1a06001 	mov	r6, r1
    8f90:	e3c33007 	bic	r3, r3, #7
    8f94:	e0433004 	sub	r3, r3, r4
    8f98:	e153000e 	cmp	r3, lr
    8f9c:	31a0e003 	movcc	lr, r3
    8fa0:	31a00001 	movcc	r0, r1
    8fa4:	e5961010 	ldr	r1, [r6, #16]
    8fa8:	e3510000 	cmp	r1, #0
    8fac:	1afffff5 	bne	8f88 <malloc+0x894>
    8fb0:	e5961014 	ldr	r1, [r6, #20]
    8fb4:	e3510000 	cmp	r1, #0
    8fb8:	1afffff2 	bne	8f88 <malloc+0x894>
    8fbc:	e59fb784 	ldr	fp, [pc, #1924]	; 9748 <malloc+0x1054>
    8fc0:	e08fb00b 	add	fp, pc, fp
    8fc4:	e59b9010 	ldr	r9, [fp, #16]
    8fc8:	e1590000 	cmp	r9, r0
    8fcc:	8affffcc 	bhi	8f04 <malloc+0x810>
    8fd0:	e5907004 	ldr	r7, [r0, #4]
    8fd4:	e084300e 	add	r3, r4, lr
    8fd8:	e0808004 	add	r8, r0, r4
    8fdc:	e3c77007 	bic	r7, r7, #7
    8fe0:	e1570003 	cmp	r7, r3
    8fe4:	1affffc6 	bne	8f04 <malloc+0x810>
    8fe8:	e1580000 	cmp	r8, r0
    8fec:	9affffc4 	bls	8f04 <malloc+0x810>
    8ff0:	e590600c 	ldr	r6, [r0, #12]
    8ff4:	e590a018 	ldr	sl, [r0, #24]
    8ff8:	e1560000 	cmp	r6, r0
    8ffc:	0a0002d7 	beq	9b60 <malloc+0x146c>
    9000:	e5903008 	ldr	r3, [r0, #8]
    9004:	e1590003 	cmp	r9, r3
    9008:	8affffbd 	bhi	8f04 <malloc+0x810>
    900c:	e593100c 	ldr	r1, [r3, #12]
    9010:	e1510000 	cmp	r1, r0
    9014:	1affffba 	bne	8f04 <malloc+0x810>
    9018:	e5961008 	ldr	r1, [r6, #8]
    901c:	e1510000 	cmp	r1, r0
    9020:	1affffb7 	bne	8f04 <malloc+0x810>
    9024:	e583600c 	str	r6, [r3, #12]
    9028:	e5863008 	str	r3, [r6, #8]
    902c:	e35a0000 	cmp	sl, #0
    9030:	0a000020 	beq	90b8 <malloc+0x9c4>
    9034:	e590301c 	ldr	r3, [r0, #28]
    9038:	e59f170c 	ldr	r1, [pc, #1804]	; 974c <malloc+0x1058>
    903c:	e283304c 	add	r3, r3, #76	; 0x4c
    9040:	e08f1001 	add	r1, pc, r1
    9044:	e7915103 	ldr	r5, [r1, r3, lsl #2]
    9048:	e1550000 	cmp	r5, r0
    904c:	07816103 	streq	r6, [r1, r3, lsl #2]
    9050:	0a000007 	beq	9074 <malloc+0x980>
    9054:	e159000a 	cmp	r9, sl
    9058:	8affffa9 	bhi	8f04 <malloc+0x810>
    905c:	e59a3010 	ldr	r3, [sl, #16]
    9060:	e1530000 	cmp	r3, r0
    9064:	058a6010 	streq	r6, [sl, #16]
    9068:	158a6014 	strne	r6, [sl, #20]
    906c:	e3560000 	cmp	r6, #0
    9070:	0a000010 	beq	90b8 <malloc+0x9c4>
    9074:	e1590006 	cmp	r9, r6
    9078:	8affffa1 	bhi	8f04 <malloc+0x810>
    907c:	e5903010 	ldr	r3, [r0, #16]
    9080:	e586a018 	str	sl, [r6, #24]
    9084:	e3530000 	cmp	r3, #0
    9088:	0a000003 	beq	909c <malloc+0x9a8>
    908c:	e1590003 	cmp	r9, r3
    9090:	8affff9b 	bhi	8f04 <malloc+0x810>
    9094:	e5863010 	str	r3, [r6, #16]
    9098:	e5836018 	str	r6, [r3, #24]
    909c:	e5903014 	ldr	r3, [r0, #20]
    90a0:	e3530000 	cmp	r3, #0
    90a4:	0a000003 	beq	90b8 <malloc+0x9c4>
    90a8:	e1590003 	cmp	r9, r3
    90ac:	8affff94 	bhi	8f04 <malloc+0x810>
    90b0:	e5863014 	str	r3, [r6, #20]
    90b4:	e5836018 	str	r6, [r3, #24]
    90b8:	e35e000f 	cmp	lr, #15
    90bc:	9a0002a0 	bls	9b44 <malloc+0x1450>
    90c0:	e3843003 	orr	r3, r4, #3
    90c4:	e3520000 	cmp	r2, #0
    90c8:	e5803004 	str	r3, [r0, #4]
    90cc:	e38e3001 	orr	r3, lr, #1
    90d0:	e5883004 	str	r3, [r8, #4]
    90d4:	e788e00e 	str	lr, [r8, lr]
    90d8:	0a000011 	beq	9124 <malloc+0xa30>
    90dc:	e59f566c 	ldr	r5, [pc, #1644]	; 9750 <malloc+0x105c>
    90e0:	e1a061a2 	lsr	r6, r2, #3
    90e4:	e352000f 	cmp	r2, #15
    90e8:	e08f5005 	add	r5, pc, r5
    90ec:	e0853186 	add	r3, r5, r6, lsl #3
    90f0:	e2833028 	add	r3, r3, #40	; 0x28
    90f4:	e5951014 	ldr	r1, [r5, #20]
    90f8:	9affff81 	bls	8f04 <malloc+0x810>
    90fc:	e3a02001 	mov	r2, #1
    9100:	e1a02612 	lsl	r2, r2, r6
    9104:	e11c0002 	tst	ip, r2
    9108:	1a000382 	bne	9f18 <malloc+0x1824>
    910c:	e18cc002 	orr	ip, ip, r2
    9110:	e1a02003 	mov	r2, r3
    9114:	e585c000 	str	ip, [r5]
    9118:	e5831008 	str	r1, [r3, #8]
    911c:	e582100c 	str	r1, [r2, #12]
    9120:	e1c120f8 	strd	r2, [r1, #8]
    9124:	e59f3628 	ldr	r3, [pc, #1576]	; 9754 <malloc+0x1060>
    9128:	e08f3003 	add	r3, pc, r3
    912c:	e583e008 	str	lr, [r3, #8]
    9130:	e5838014 	str	r8, [r3, #20]
    9134:	e2900008 	adds	r0, r0, #8
    9138:	1afffd9d 	bne	87b4 <malloc+0xc0>
    913c:	e59f3614 	ldr	r3, [pc, #1556]	; 9758 <malloc+0x1064>
    9140:	e08f3003 	add	r3, pc, r3
    9144:	e5932008 	ldr	r2, [r3, #8]
    9148:	eafffdb5 	b	8824 <malloc+0x130>
    914c:	e3570801 	cmp	r7, #65536	; 0x10000
    9150:	3a000114 	bcc	95a8 <malloc+0xeb4>
    9154:	e593c1ac 	ldr	ip, [r3, #428]	; 0x1ac
    9158:	e35c0000 	cmp	ip, #0
    915c:	11a0e004 	movne	lr, r4
    9160:	13a0701f 	movne	r7, #31
    9164:	1afffea3 	bne	8bf8 <malloc+0x504>
    9168:	eafffdad 	b	8824 <malloc+0x130>
    916c:	e593100c 	ldr	r1, [r3, #12]
    9170:	e3110008 	tst	r1, #8
    9174:	0a0001eb 	beq	9928 <malloc+0x1234>
    9178:	e59f35dc 	ldr	r3, [pc, #1500]	; 975c <malloc+0x1068>
    917c:	e08f3003 	add	r3, pc, r3
    9180:	e2833d07 	add	r3, r3, #448	; 0x1c0
    9184:	eafffe85 	b	8ba0 <malloc+0x4ac>
    9188:	e593000c 	ldr	r0, [r3, #12]
    918c:	e3100008 	tst	r0, #8
    9190:	1afffe70 	bne	8b58 <malloc+0x464>
    9194:	e15e0002 	cmp	lr, r2
    9198:	3afffe6e 	bcc	8b58 <malloc+0x464>
    919c:	e15e0005 	cmp	lr, r5
    91a0:	2afffe6c 	bcs	8b58 <malloc+0x464>
    91a4:	e59f05b4 	ldr	r0, [pc, #1460]	; 9760 <malloc+0x106c>
    91a8:	e28e2008 	add	r2, lr, #8
    91ac:	e0811006 	add	r1, r1, r6
    91b0:	e5831004 	str	r1, [r3, #4]
    91b4:	e08f0000 	add	r0, pc, r0
    91b8:	e3120007 	tst	r2, #7
    91bc:	01a0c00e 	moveq	ip, lr
    91c0:	e590300c 	ldr	r3, [r0, #12]
    91c4:	e59f0598 	ldr	r0, [pc, #1432]	; 9764 <malloc+0x1070>
    91c8:	e0866003 	add	r6, r6, r3
    91cc:	12623000 	rsbne	r3, r2, #0
    91d0:	e59f2590 	ldr	r2, [pc, #1424]	; 9768 <malloc+0x1074>
    91d4:	12033007 	andne	r3, r3, #7
    91d8:	108ec003 	addne	ip, lr, r3
    91dc:	01a03006 	moveq	r3, r6
    91e0:	10463003 	subne	r3, r6, r3
    91e4:	e08f0000 	add	r0, pc, r0
    91e8:	e08e6006 	add	r6, lr, r6
    91ec:	e08f2002 	add	r2, pc, r2
    91f0:	e5900010 	ldr	r0, [r0, #16]
    91f4:	e3831001 	orr	r1, r3, #1
    91f8:	e582c018 	str	ip, [r2, #24]
    91fc:	e3a0e028 	mov	lr, #40	; 0x28
    9200:	e582300c 	str	r3, [r2, #12]
    9204:	e58c1004 	str	r1, [ip, #4]
    9208:	e586e004 	str	lr, [r6, #4]
    920c:	e582001c 	str	r0, [r2, #28]
    9210:	e1540003 	cmp	r4, r3
    9214:	2affff30 	bcs	8edc <malloc+0x7e8>
    9218:	e59f154c 	ldr	r1, [pc, #1356]	; 976c <malloc+0x1078>
    921c:	e0433004 	sub	r3, r3, r4
    9220:	e384c003 	orr	ip, r4, #3
    9224:	e383e001 	orr	lr, r3, #1
    9228:	e08f1001 	add	r1, pc, r1
    922c:	e5912018 	ldr	r2, [r1, #24]
    9230:	e581300c 	str	r3, [r1, #12]
    9234:	e0824004 	add	r4, r2, r4
    9238:	e2820008 	add	r0, r2, #8
    923c:	e5814018 	str	r4, [r1, #24]
    9240:	e584e004 	str	lr, [r4, #4]
    9244:	e582c004 	str	ip, [r2, #4]
    9248:	eafffd59 	b	87b4 <malloc+0xc0>
    924c:	e2423027 	sub	r3, r2, #39	; 0x27
    9250:	e1a0c002 	mov	ip, r2
    9254:	e3130007 	tst	r3, #7
    9258:	e59fa510 	ldr	sl, [pc, #1296]	; 9770 <malloc+0x107c>
    925c:	12638000 	rsbne	r8, r3, #0
    9260:	e28e3010 	add	r3, lr, #16
    9264:	12088007 	andne	r8, r8, #7
    9268:	03e0802e 	mvneq	r8, #46	; 0x2e
    926c:	1248802f 	subne	r8, r8, #47	; 0x2f
    9270:	e2461028 	sub	r1, r6, #40	; 0x28
    9274:	e0828008 	add	r8, r2, r8
    9278:	e08fa00a 	add	sl, pc, sl
    927c:	e1580003 	cmp	r8, r3
    9280:	e2853008 	add	r3, r5, #8
    9284:	31a0800e 	movcc	r8, lr
    9288:	e3130007 	tst	r3, #7
    928c:	e2882008 	add	r2, r8, #8
    9290:	12633000 	rsbne	r3, r3, #0
    9294:	e1a09002 	mov	r9, r2
    9298:	e59f24d4 	ldr	r2, [pc, #1236]	; 9774 <malloc+0x1080>
    929c:	12033007 	andne	r3, r3, #7
    92a0:	01a03001 	moveq	r3, r1
    92a4:	e08f2002 	add	r2, pc, r2
    92a8:	10850003 	addne	r0, r5, r3
    92ac:	01a00005 	moveq	r0, r5
    92b0:	10413003 	subne	r3, r1, r3
    92b4:	e0851001 	add	r1, r5, r1
    92b8:	e3837001 	orr	r7, r3, #1
    92bc:	e5922010 	ldr	r2, [r2, #16]
    92c0:	e58a300c 	str	r3, [sl, #12]
    92c4:	e3a03028 	mov	r3, #40	; 0x28
    92c8:	e58a0018 	str	r0, [sl, #24]
    92cc:	e5807004 	str	r7, [r0, #4]
    92d0:	e1a07009 	mov	r7, r9
    92d4:	e5813004 	str	r3, [r1, #4]
    92d8:	e2191007 	ands	r1, r9, #7
    92dc:	e58a201c 	str	r2, [sl, #28]
    92e0:	1affff07 	bne	8f04 <malloc+0x810>
    92e4:	e28a3d07 	add	r3, sl, #448	; 0x1c0
    92e8:	e1a09001 	mov	r9, r1
    92ec:	e3a0201b 	mov	r2, #27
    92f0:	e58d1004 	str	r1, [sp, #4]
    92f4:	e5882004 	str	r2, [r8, #4]
    92f8:	e3a0b007 	mov	fp, #7
    92fc:	e893000f 	ldm	r3, {r0, r1, r2, r3}
    9300:	e887000f 	stm	r7, {r0, r1, r2, r3}
    9304:	e58a71c8 	str	r7, [sl, #456]	; 0x1c8
    9308:	e288701c 	add	r7, r8, #28
    930c:	e58a51c0 	str	r5, [sl, #448]	; 0x1c0
    9310:	e58a61c4 	str	r6, [sl, #452]	; 0x1c4
    9314:	e58a91cc 	str	r9, [sl, #460]	; 0x1cc
    9318:	e487b004 	str	fp, [r7], #4
    931c:	e2899001 	add	r9, r9, #1
    9320:	e15c0007 	cmp	ip, r7
    9324:	8afffffb 	bhi	9318 <malloc+0xc24>
    9328:	e3590001 	cmp	r9, #1
    932c:	0afffef4 	beq	8f04 <malloc+0x810>
    9330:	e15e0008 	cmp	lr, r8
    9334:	0a0001ba 	beq	9a24 <malloc+0x1330>
    9338:	e048100e 	sub	r1, r8, lr
    933c:	e5983004 	ldr	r3, [r8, #4]
    9340:	e3812001 	orr	r2, r1, #1
    9344:	e3c33001 	bic	r3, r3, #1
    9348:	e5883004 	str	r3, [r8, #4]
    934c:	e1a031a1 	lsr	r3, r1, #3
    9350:	e58e2004 	str	r2, [lr, #4]
    9354:	e353001f 	cmp	r3, #31
    9358:	e5881000 	str	r1, [r8]
    935c:	8a000127 	bhi	9800 <malloc+0x110c>
    9360:	e59f0410 	ldr	r0, [pc, #1040]	; 9778 <malloc+0x1084>
    9364:	e351000f 	cmp	r1, #15
    9368:	e08f0000 	add	r0, pc, r0
    936c:	e0802183 	add	r2, r0, r3, lsl #3
    9370:	e2822028 	add	r2, r2, #40	; 0x28
    9374:	9afffee2 	bls	8f04 <malloc+0x810>
    9378:	e3a01001 	mov	r1, #1
    937c:	e590c000 	ldr	ip, [r0]
    9380:	e1a03311 	lsl	r3, r1, r3
    9384:	e11c0003 	tst	ip, r3
    9388:	1a0001da 	bne	9af8 <malloc+0x1404>
    938c:	e1a01002 	mov	r1, r2
    9390:	e18c3003 	orr	r3, ip, r3
    9394:	e5803000 	str	r3, [r0]
    9398:	e59f33dc 	ldr	r3, [pc, #988]	; 977c <malloc+0x1088>
    939c:	e582e008 	str	lr, [r2, #8]
    93a0:	e08f3003 	add	r3, pc, r3
    93a4:	e581e00c 	str	lr, [r1, #12]
    93a8:	e58e1008 	str	r1, [lr, #8]
    93ac:	e58e200c 	str	r2, [lr, #12]
    93b0:	e593300c 	ldr	r3, [r3, #12]
    93b4:	eaffff95 	b	9210 <malloc+0xb1c>
    93b8:	e3e03001 	mvn	r3, #1
    93bc:	e1a08006 	mov	r8, r6
    93c0:	e1a07713 	lsl	r7, r3, r7
    93c4:	e0117007 	ands	r7, r1, r7
    93c8:	0afffd15 	beq	8824 <malloc+0x130>
    93cc:	e2673000 	rsb	r3, r7, #0
    93d0:	e59fc3a8 	ldr	ip, [pc, #936]	; 9780 <malloc+0x108c>
    93d4:	e0033007 	and	r3, r3, r7
    93d8:	e2433001 	sub	r3, r3, #1
    93dc:	e08fc00c 	add	ip, pc, ip
    93e0:	e1a00623 	lsr	r0, r3, #12
    93e4:	e2000010 	and	r0, r0, #16
    93e8:	e1a03033 	lsr	r3, r3, r0
    93ec:	e1a0e2a3 	lsr	lr, r3, #5
    93f0:	e20ee008 	and	lr, lr, #8
    93f4:	e180000e 	orr	r0, r0, lr
    93f8:	e1a03e33 	lsr	r3, r3, lr
    93fc:	e1a0e123 	lsr	lr, r3, #2
    9400:	e20ee004 	and	lr, lr, #4
    9404:	e080000e 	add	r0, r0, lr
    9408:	e1a03e33 	lsr	r3, r3, lr
    940c:	e1a0e0a3 	lsr	lr, r3, #1
    9410:	e20ee002 	and	lr, lr, #2
    9414:	e080000e 	add	r0, r0, lr
    9418:	e1a03e33 	lsr	r3, r3, lr
    941c:	e7e0e0d3 	ubfx	lr, r3, #1, #1
    9420:	e080000e 	add	r0, r0, lr
    9424:	e0803e33 	add	r3, r0, r3, lsr lr
    9428:	e283304c 	add	r3, r3, #76	; 0x4c
    942c:	e79cc103 	ldr	ip, [ip, r3, lsl #2]
    9430:	e35c0000 	cmp	ip, #0
    9434:	13a00000 	movne	r0, #0
    9438:	1afffe0d 	bne	8c74 <malloc+0x580>
    943c:	eafffcf8 	b	8824 <malloc+0x130>
    9440:	e59f333c 	ldr	r3, [pc, #828]	; 9784 <malloc+0x1090>
    9444:	e08f3003 	add	r3, pc, r3
    9448:	e593600c 	ldr	r6, [r3, #12]
    944c:	e0406006 	sub	r6, r0, r6
    9450:	e0866004 	add	r6, r6, r4
    9454:	e006600c 	and	r6, r6, ip
    9458:	e376010a 	cmn	r6, #-2147483646	; 0x80000002
    945c:	8afffe98 	bhi	8ec4 <malloc+0x7d0>
    9460:	e1a00006 	mov	r0, r6
    9464:	ebfffbe4 	bl	83fc <sbrk>
    9468:	e5972000 	ldr	r2, [r7]
    946c:	e5971004 	ldr	r1, [r7, #4]
    9470:	e3700001 	cmn	r0, #1
    9474:	13a03000 	movne	r3, #0
    9478:	03a03001 	moveq	r3, #1
    947c:	e0822001 	add	r2, r2, r1
    9480:	e1a05000 	mov	r5, r0
    9484:	e1500002 	cmp	r0, r2
    9488:	13833001 	orrne	r3, r3, #1
    948c:	e3530000 	cmp	r3, #0
    9490:	0afffd9a 	beq	8b00 <malloc+0x40c>
    9494:	e3750001 	cmn	r5, #1
    9498:	0a00033b 	beq	a18c <malloc+0x1a98>
    949c:	e2843030 	add	r3, r4, #48	; 0x30
    94a0:	e1530006 	cmp	r3, r6
    94a4:	9afffd95 	bls	8b00 <malloc+0x40c>
    94a8:	e59f32d8 	ldr	r3, [pc, #728]	; 9788 <malloc+0x1094>
    94ac:	e2669000 	rsb	r9, r6, #0
    94b0:	e08f3003 	add	r3, pc, r3
    94b4:	e5933008 	ldr	r3, [r3, #8]
    94b8:	e283702f 	add	r7, r3, #47	; 0x2f
    94bc:	e2633000 	rsb	r3, r3, #0
    94c0:	e0877004 	add	r7, r7, r4
    94c4:	e0477006 	sub	r7, r7, r6
    94c8:	e0077003 	and	r7, r7, r3
    94cc:	e377010a 	cmn	r7, #-2147483646	; 0x80000002
    94d0:	8afffd8a 	bhi	8b00 <malloc+0x40c>
    94d4:	e1a00007 	mov	r0, r7
    94d8:	ebfffbc7 	bl	83fc <sbrk>
    94dc:	e3700001 	cmn	r0, #1
    94e0:	10866007 	addne	r6, r6, r7
    94e4:	1afffd85 	bne	8b00 <malloc+0x40c>
    94e8:	e1a00009 	mov	r0, r9
    94ec:	ebfffbc2 	bl	83fc <sbrk>
    94f0:	e59f3294 	ldr	r3, [pc, #660]	; 978c <malloc+0x1098>
    94f4:	e08f3003 	add	r3, pc, r3
    94f8:	e593e1bc 	ldr	lr, [r3, #444]	; 0x1bc
    94fc:	eafffe70 	b	8ec4 <malloc+0x7d0>
    9500:	e5931010 	ldr	r1, [r3, #16]
    9504:	e3e00000 	mvn	r0, #0
    9508:	e1510005 	cmp	r1, r5
    950c:	93a02000 	movls	r2, #0
    9510:	83a02001 	movhi	r2, #1
    9514:	e3510000 	cmp	r1, #0
    9518:	e59f1270 	ldr	r1, [pc, #624]	; 9790 <malloc+0x109c>
    951c:	03a02001 	moveq	r2, #1
    9520:	e3520000 	cmp	r2, #0
    9524:	15835010 	strne	r5, [r3, #16]
    9528:	e59f3264 	ldr	r3, [pc, #612]	; 9794 <malloc+0x10a0>
    952c:	e08f1001 	add	r1, pc, r1
    9530:	e3a02000 	mov	r2, #0
    9534:	e08f3003 	add	r3, pc, r3
    9538:	e58121cc 	str	r2, [r1, #460]	; 0x1cc
    953c:	e2812f4a 	add	r2, r1, #296	; 0x128
    9540:	e58151c0 	str	r5, [r1, #448]	; 0x1c0
    9544:	e5933000 	ldr	r3, [r3]
    9548:	e5813024 	str	r3, [r1, #36]	; 0x24
    954c:	e2813028 	add	r3, r1, #40	; 0x28
    9550:	e58161c4 	str	r6, [r1, #452]	; 0x1c4
    9554:	e5810020 	str	r0, [r1, #32]
    9558:	e583300c 	str	r3, [r3, #12]
    955c:	e5833008 	str	r3, [r3, #8]
    9560:	e2833008 	add	r3, r3, #8
    9564:	e1520003 	cmp	r2, r3
    9568:	1afffffa 	bne	9558 <malloc+0xe64>
    956c:	e2853008 	add	r3, r5, #8
    9570:	e59f0220 	ldr	r0, [pc, #544]	; 9798 <malloc+0x10a4>
    9574:	e3130007 	tst	r3, #7
    9578:	e59f221c 	ldr	r2, [pc, #540]	; 979c <malloc+0x10a8>
    957c:	12633000 	rsbne	r3, r3, #0
    9580:	e2466028 	sub	r6, r6, #40	; 0x28
    9584:	12033007 	andne	r3, r3, #7
    9588:	01a03006 	moveq	r3, r6
    958c:	1085c003 	addne	ip, r5, r3
    9590:	01a0c005 	moveq	ip, r5
    9594:	10463003 	subne	r3, r6, r3
    9598:	e08f0000 	add	r0, pc, r0
    959c:	e0856006 	add	r6, r5, r6
    95a0:	e08f2002 	add	r2, pc, r2
    95a4:	eaffff11 	b	91f0 <malloc+0xafc>
    95a8:	e2470c01 	sub	r0, r7, #256	; 0x100
    95ac:	e1a00820 	lsr	r0, r0, #16
    95b0:	e2000008 	and	r0, r0, #8
    95b4:	e1a07017 	lsl	r7, r7, r0
    95b8:	e247ca01 	sub	ip, r7, #4096	; 0x1000
    95bc:	e1a0c82c 	lsr	ip, ip, #16
    95c0:	e20cc004 	and	ip, ip, #4
    95c4:	e180000c 	orr	r0, r0, ip
    95c8:	e1a07c17 	lsl	r7, r7, ip
    95cc:	e247c901 	sub	ip, r7, #16384	; 0x4000
    95d0:	e1a0c82c 	lsr	ip, ip, #16
    95d4:	e20cc002 	and	ip, ip, #2
    95d8:	e080000c 	add	r0, r0, ip
    95dc:	e1a07c17 	lsl	r7, r7, ip
    95e0:	e06077a7 	rsb	r7, r0, r7, lsr #15
    95e4:	e2870015 	add	r0, r7, #21
    95e8:	e287700e 	add	r7, r7, #14
    95ec:	e1a00034 	lsr	r0, r4, r0
    95f0:	e2000001 	and	r0, r0, #1
    95f4:	e0807087 	add	r7, r0, r7, lsl #1
    95f8:	e287004c 	add	r0, r7, #76	; 0x4c
    95fc:	e793c100 	ldr	ip, [r3, r0, lsl #2]
    9600:	e35c0000 	cmp	ip, #0
    9604:	0affff6b 	beq	93b8 <malloc+0xcc4>
    9608:	e357001f 	cmp	r7, #31
    960c:	01a0e004 	moveq	lr, r4
    9610:	0afffd78 	beq	8bf8 <malloc+0x504>
    9614:	e1a0e0a7 	lsr	lr, r7, #1
    9618:	e26ee019 	rsb	lr, lr, #25
    961c:	eafffd74 	b	8bf4 <malloc+0x500>
    9620:	e1a0000c 	mov	r0, ip
    9624:	eafffd92 	b	8c74 <malloc+0x580>
    9628:	e1a031a8 	lsr	r3, r8, #3
    962c:	e3842003 	orr	r2, r4, #3
    9630:	e353001f 	cmp	r3, #31
    9634:	e5802004 	str	r2, [r0, #4]
    9638:	e3882001 	orr	r2, r8, #1
    963c:	e5872004 	str	r2, [r7, #4]
    9640:	e7878008 	str	r8, [r7, r8]
    9644:	8a0000fa 	bhi	9a34 <malloc+0x1340>
    9648:	e59f1150 	ldr	r1, [pc, #336]	; 97a0 <malloc+0x10ac>
    964c:	e3a02001 	mov	r2, #1
    9650:	e08f1001 	add	r1, pc, r1
    9654:	e1a02312 	lsl	r2, r2, r3
    9658:	e0813183 	add	r3, r1, r3, lsl #3
    965c:	e2833028 	add	r3, r3, #40	; 0x28
    9660:	e591c000 	ldr	ip, [r1]
    9664:	e11c0002 	tst	ip, r2
    9668:	1a00014e 	bne	9ba8 <malloc+0x14b4>
    966c:	e18cc002 	orr	ip, ip, r2
    9670:	e1a02003 	mov	r2, r3
    9674:	e581c000 	str	ip, [r1]
    9678:	e5837008 	str	r7, [r3, #8]
    967c:	e582700c 	str	r7, [r2, #12]
    9680:	e1c720f8 	strd	r2, [r7, #8]
    9684:	eafffdd2 	b	8dd4 <malloc+0x6e0>
    9688:	e590e014 	ldr	lr, [r0, #20]
    968c:	e35e0000 	cmp	lr, #0
    9690:	12803014 	addne	r3, r0, #20
    9694:	0a000125 	beq	9b30 <malloc+0x143c>
    9698:	e1a0200e 	mov	r2, lr
    969c:	e1a0c003 	mov	ip, r3
    96a0:	e1a03002 	mov	r3, r2
    96a4:	e5b31014 	ldr	r1, [r3, #20]!
    96a8:	e3510000 	cmp	r1, #0
    96ac:	0a000005 	beq	96c8 <malloc+0xfd4>
    96b0:	e1a02001 	mov	r2, r1
    96b4:	e1a0c003 	mov	ip, r3
    96b8:	e1a03002 	mov	r3, r2
    96bc:	e5b31014 	ldr	r1, [r3, #20]!
    96c0:	e3510000 	cmp	r1, #0
    96c4:	1afffff9 	bne	96b0 <malloc+0xfbc>
    96c8:	e1a03002 	mov	r3, r2
    96cc:	e5b3e010 	ldr	lr, [r3, #16]!
    96d0:	e35e0000 	cmp	lr, #0
    96d4:	1affffef 	bne	9698 <malloc+0xfa4>
    96d8:	e156000c 	cmp	r6, ip
    96dc:	8afffe08 	bhi	8f04 <malloc+0x810>
    96e0:	e58ce000 	str	lr, [ip]
    96e4:	eafffd8f 	b	8d28 <malloc+0x634>
    96e8:	000049c4 	.word	0x000049c4
    96ec:	00004914 	.word	0x00004914
    96f0:	000048f0 	.word	0x000048f0
    96f4:	000048a8 	.word	0x000048a8
    96f8:	00004758 	.word	0x00004758
    96fc:	0000470c 	.word	0x0000470c
    9700:	000046f0 	.word	0x000046f0
    9704:	00004890 	.word	0x00004890
    9708:	00004874 	.word	0x00004874
    970c:	00004678 	.word	0x00004678
    9710:	00004640 	.word	0x00004640
    9714:	000045d4 	.word	0x000045d4
    9718:	000045b4 	.word	0x000045b4
    971c:	00004578 	.word	0x00004578
    9720:	00004564 	.word	0x00004564
    9724:	00004540 	.word	0x00004540
    9728:	0000441c 	.word	0x0000441c
    972c:	0000439c 	.word	0x0000439c
    9730:	000042f8 	.word	0x000042f8
    9734:	00004464 	.word	0x00004464
    9738:	00004244 	.word	0x00004244
    973c:	0000421c 	.word	0x0000421c
    9740:	00004208 	.word	0x00004208
    9744:	000041f0 	.word	0x000041f0
    9748:	00004118 	.word	0x00004118
    974c:	00004098 	.word	0x00004098
    9750:	00003ff0 	.word	0x00003ff0
    9754:	00003fb0 	.word	0x00003fb0
    9758:	00003f98 	.word	0x00003f98
    975c:	00003f5c 	.word	0x00003f5c
    9760:	00003f24 	.word	0x00003f24
    9764:	000040cc 	.word	0x000040cc
    9768:	00003eec 	.word	0x00003eec
    976c:	00003eb0 	.word	0x00003eb0
    9770:	00003e60 	.word	0x00003e60
    9774:	0000400c 	.word	0x0000400c
    9778:	00003d70 	.word	0x00003d70
    977c:	00003d38 	.word	0x00003d38
    9780:	00003cfc 	.word	0x00003cfc
    9784:	00003c94 	.word	0x00003c94
    9788:	00003e00 	.word	0x00003e00
    978c:	00003be4 	.word	0x00003be4
    9790:	00003bac 	.word	0x00003bac
    9794:	00003d7c 	.word	0x00003d7c
    9798:	00003d18 	.word	0x00003d18
    979c:	00003b38 	.word	0x00003b38
    97a0:	00003a88 	.word	0x00003a88
    97a4:	00003860 	.word	0x00003860
    97a8:	000037f8 	.word	0x000037f8
    97ac:	0000373c 	.word	0x0000373c
    97b0:	000036f0 	.word	0x000036f0
    97b4:	000036b0 	.word	0x000036b0
    97b8:	0000362c 	.word	0x0000362c
    97bc:	00003490 	.word	0x00003490
    97c0:	00003464 	.word	0x00003464
    97c4:	000033cc 	.word	0x000033cc
    97c8:	00003368 	.word	0x00003368
    97cc:	0000327c 	.word	0x0000327c
    97d0:	000031d8 	.word	0x000031d8
    97d4:	0000314c 	.word	0x0000314c
    97d8:	00003134 	.word	0x00003134
    97dc:	00003108 	.word	0x00003108
    97e0:	000030b0 	.word	0x000030b0
    97e4:	00003064 	.word	0x00003064
    97e8:	0000300c 	.word	0x0000300c
    97ec:	00002fec 	.word	0x00002fec
    97f0:	00002fd4 	.word	0x00002fd4
    97f4:	00002f90 	.word	0x00002f90
    97f8:	00003138 	.word	0x00003138
    97fc:	00002f48 	.word	0x00002f48
    9800:	e1a03421 	lsr	r3, r1, #8
    9804:	e3530801 	cmp	r3, #65536	; 0x10000
    9808:	2a0000b5 	bcs	9ae4 <malloc+0x13f0>
    980c:	e2432c01 	sub	r2, r3, #256	; 0x100
    9810:	e3a00001 	mov	r0, #1
    9814:	e1a02822 	lsr	r2, r2, #16
    9818:	e2022008 	and	r2, r2, #8
    981c:	e1a03213 	lsl	r3, r3, r2
    9820:	e243ca01 	sub	ip, r3, #4096	; 0x1000
    9824:	e1a0c82c 	lsr	ip, ip, #16
    9828:	e20cc004 	and	ip, ip, #4
    982c:	e182200c 	orr	r2, r2, ip
    9830:	e1a03c13 	lsl	r3, r3, ip
    9834:	e243c901 	sub	ip, r3, #16384	; 0x4000
    9838:	e1a0c82c 	lsr	ip, ip, #16
    983c:	e20cc002 	and	ip, ip, #2
    9840:	e082200c 	add	r2, r2, ip
    9844:	e1a03c13 	lsl	r3, r3, ip
    9848:	e06227a3 	rsb	r2, r2, r3, lsr #15
    984c:	e2823015 	add	r3, r2, #21
    9850:	e282200e 	add	r2, r2, #14
    9854:	e1a03331 	lsr	r3, r1, r3
    9858:	e0033000 	and	r3, r3, r0
    985c:	e0833012 	add	r3, r3, r2, lsl r0
    9860:	e283604c 	add	r6, r3, #76	; 0x4c
    9864:	e1a00310 	lsl	r0, r0, r3
    9868:	e1a05106 	lsl	r5, r6, #2
    986c:	e51f20d0 	ldr	r2, [pc, #-208]	; 97a4 <malloc+0x10b0>
    9870:	e3a0c000 	mov	ip, #0
    9874:	e58ec014 	str	ip, [lr, #20]
    9878:	e08f2002 	add	r2, pc, r2
    987c:	e58ec010 	str	ip, [lr, #16]
    9880:	e58e301c 	str	r3, [lr, #28]
    9884:	e592c004 	ldr	ip, [r2, #4]
    9888:	e110000c 	tst	r0, ip
    988c:	0a00009e 	beq	9b0c <malloc+0x1418>
    9890:	e353001f 	cmp	r3, #31
    9894:	e7920106 	ldr	r0, [r2, r6, lsl #2]
    9898:	11a020a3 	lsrne	r2, r3, #1
    989c:	01a02001 	moveq	r2, r1
    98a0:	12622019 	rsbne	r2, r2, #25
    98a4:	11a02211 	lslne	r2, r1, r2
    98a8:	ea000006 	b	98c8 <malloc+0x11d4>
    98ac:	e1a03fa2 	lsr	r3, r2, #31
    98b0:	e1a02082 	lsl	r2, r2, #1
    98b4:	e2833004 	add	r3, r3, #4
    98b8:	e790c103 	ldr	ip, [r0, r3, lsl #2]
    98bc:	e35c0000 	cmp	ip, #0
    98c0:	0a0000de 	beq	9c40 <malloc+0x154c>
    98c4:	e1a0000c 	mov	r0, ip
    98c8:	e5903004 	ldr	r3, [r0, #4]
    98cc:	e3c33007 	bic	r3, r3, #7
    98d0:	e1510003 	cmp	r1, r3
    98d4:	1afffff4 	bne	98ac <malloc+0x11b8>
    98d8:	e51f1138 	ldr	r1, [pc, #-312]	; 97a8 <malloc+0x10b4>
    98dc:	e5902008 	ldr	r2, [r0, #8]
    98e0:	e08f1001 	add	r1, pc, r1
    98e4:	e5913010 	ldr	r3, [r1, #16]
    98e8:	e1520003 	cmp	r2, r3
    98ec:	21500003 	cmpcs	r0, r3
    98f0:	3afffd83 	bcc	8f04 <malloc+0x810>
    98f4:	e582e00c 	str	lr, [r2, #12]
    98f8:	e3a0c000 	mov	ip, #0
    98fc:	e580e008 	str	lr, [r0, #8]
    9900:	e591300c 	ldr	r3, [r1, #12]
    9904:	e58ec018 	str	ip, [lr, #24]
    9908:	e58e2008 	str	r2, [lr, #8]
    990c:	e58e000c 	str	r0, [lr, #12]
    9910:	eafffe3e 	b	9210 <malloc+0xb1c>
    9914:	e5911010 	ldr	r1, [r1, #16]
    9918:	e5935008 	ldr	r5, [r3, #8]
    991c:	e1550001 	cmp	r5, r1
    9920:	2afffc23 	bcs	89b4 <malloc+0x2c0>
    9924:	eafffd76 	b	8f04 <malloc+0x810>
    9928:	e5930004 	ldr	r0, [r3, #4]
    992c:	e2851008 	add	r1, r5, #8
    9930:	e3110007 	tst	r1, #7
    9934:	e5835000 	str	r5, [r3]
    9938:	e0806006 	add	r6, r0, r6
    993c:	e5836004 	str	r6, [r3, #4]
    9940:	12613000 	rsbne	r3, r1, #0
    9944:	12033007 	andne	r3, r3, #7
    9948:	10855003 	addne	r5, r5, r3
    994c:	e2823008 	add	r3, r2, #8
    9950:	e3130007 	tst	r3, #7
    9954:	e085c004 	add	ip, r5, r4
    9958:	12633000 	rsbne	r3, r3, #0
    995c:	12033007 	andne	r3, r3, #7
    9960:	10822003 	addne	r2, r2, r3
    9964:	e0423005 	sub	r3, r2, r5
    9968:	e15c0002 	cmp	ip, r2
    996c:	e0433004 	sub	r3, r3, r4
    9970:	e3844003 	orr	r4, r4, #3
    9974:	e5854004 	str	r4, [r5, #4]
    9978:	2afffd61 	bcs	8f04 <malloc+0x810>
    997c:	e5920004 	ldr	r0, [r2, #4]
    9980:	e3100001 	tst	r0, #1
    9984:	0afffd5e 	beq	8f04 <malloc+0x810>
    9988:	e353000f 	cmp	r3, #15
    998c:	9afffd5c 	bls	8f04 <malloc+0x810>
    9990:	e15e0002 	cmp	lr, r2
    9994:	0a0000b5 	beq	9c70 <malloc+0x157c>
    9998:	e51f11f4 	ldr	r1, [pc, #-500]	; 97ac <malloc+0x10b8>
    999c:	e08f1001 	add	r1, pc, r1
    99a0:	e591e014 	ldr	lr, [r1, #20]
    99a4:	e15e0002 	cmp	lr, r2
    99a8:	0a000102 	beq	9db8 <malloc+0x16c4>
    99ac:	e200e003 	and	lr, r0, #3
    99b0:	e35e0001 	cmp	lr, #1
    99b4:	0a000107 	beq	9dd8 <malloc+0x16e4>
    99b8:	e1a0e1a3 	lsr	lr, r3, #3
    99bc:	e3c00001 	bic	r0, r0, #1
    99c0:	e35e001f 	cmp	lr, #31
    99c4:	e5820004 	str	r0, [r2, #4]
    99c8:	e3830001 	orr	r0, r3, #1
    99cc:	e58c0004 	str	r0, [ip, #4]
    99d0:	e5823000 	str	r3, [r2]
    99d4:	8a0000ae 	bhi	9c94 <malloc+0x15a0>
    99d8:	e081318e 	add	r3, r1, lr, lsl #3
    99dc:	e2833028 	add	r3, r3, #40	; 0x28
    99e0:	e51f1238 	ldr	r1, [pc, #-568]	; 97b0 <malloc+0x10bc>
    99e4:	e3a02001 	mov	r2, #1
    99e8:	e08f1001 	add	r1, pc, r1
    99ec:	e1a0ee12 	lsl	lr, r2, lr
    99f0:	e5912000 	ldr	r2, [r1]
    99f4:	e112000e 	tst	r2, lr
    99f8:	1a000129 	bne	9ea4 <malloc+0x17b0>
    99fc:	e182e00e 	orr	lr, r2, lr
    9a00:	e1a02003 	mov	r2, r3
    9a04:	e581e000 	str	lr, [r1]
    9a08:	e583c008 	str	ip, [r3, #8]
    9a0c:	e582c00c 	str	ip, [r2, #12]
    9a10:	e1cc20f8 	strd	r2, [ip, #8]
    9a14:	e2850008 	add	r0, r5, #8
    9a18:	eafffb65 	b	87b4 <malloc+0xc0>
    9a1c:	e3822003 	orr	r2, r2, #3
    9a20:	eafffb6e 	b	87e0 <malloc+0xec>
    9a24:	e51f3278 	ldr	r3, [pc, #-632]	; 97b4 <malloc+0x10c0>
    9a28:	e08f3003 	add	r3, pc, r3
    9a2c:	e593300c 	ldr	r3, [r3, #12]
    9a30:	eafffdf6 	b	9210 <malloc+0xb1c>
    9a34:	e1a03428 	lsr	r3, r8, #8
    9a38:	e3530801 	cmp	r3, #65536	; 0x10000
    9a3c:	2a00007a 	bcs	9c2c <malloc+0x1538>
    9a40:	e2431c01 	sub	r1, r3, #256	; 0x100
    9a44:	e3a02001 	mov	r2, #1
    9a48:	e1a01821 	lsr	r1, r1, #16
    9a4c:	e2011008 	and	r1, r1, #8
    9a50:	e1a03113 	lsl	r3, r3, r1
    9a54:	e243ca01 	sub	ip, r3, #4096	; 0x1000
    9a58:	e1a0c82c 	lsr	ip, ip, #16
    9a5c:	e20cc004 	and	ip, ip, #4
    9a60:	e181100c 	orr	r1, r1, ip
    9a64:	e1a03c13 	lsl	r3, r3, ip
    9a68:	e243c901 	sub	ip, r3, #16384	; 0x4000
    9a6c:	e1a0c82c 	lsr	ip, ip, #16
    9a70:	e20cc002 	and	ip, ip, #2
    9a74:	e081100c 	add	r1, r1, ip
    9a78:	e1a03c13 	lsl	r3, r3, ip
    9a7c:	e06117a3 	rsb	r1, r1, r3, lsr #15
    9a80:	e2813015 	add	r3, r1, #21
    9a84:	e281100e 	add	r1, r1, #14
    9a88:	e1a03338 	lsr	r3, r8, r3
    9a8c:	e0033002 	and	r3, r3, r2
    9a90:	e0833211 	add	r3, r3, r1, lsl r2
    9a94:	e283e04c 	add	lr, r3, #76	; 0x4c
    9a98:	e1a0c312 	lsl	ip, r2, r3
    9a9c:	e1a0510e 	lsl	r5, lr, #2
    9aa0:	e51f22f0 	ldr	r2, [pc, #-752]	; 97b8 <malloc+0x10c4>
    9aa4:	e3a01000 	mov	r1, #0
    9aa8:	e5871014 	str	r1, [r7, #20]
    9aac:	e08f2002 	add	r2, pc, r2
    9ab0:	e5871010 	str	r1, [r7, #16]
    9ab4:	e587301c 	str	r3, [r7, #28]
    9ab8:	e5921004 	ldr	r1, [r2, #4]
    9abc:	e111000c 	tst	r1, ip
    9ac0:	1a00003c 	bne	9bb8 <malloc+0x14c4>
    9ac4:	e782710e 	str	r7, [r2, lr, lsl #2]
    9ac8:	e181100c 	orr	r1, r1, ip
    9acc:	e587700c 	str	r7, [r7, #12]
    9ad0:	e5821004 	str	r1, [r2, #4]
    9ad4:	e0822005 	add	r2, r2, r5
    9ad8:	e5877008 	str	r7, [r7, #8]
    9adc:	e5872018 	str	r2, [r7, #24]
    9ae0:	eafffcbb 	b	8dd4 <malloc+0x6e0>
    9ae4:	e3a00102 	mov	r0, #-2147483648	; 0x80000000
    9ae8:	e3a05f6b 	mov	r5, #428	; 0x1ac
    9aec:	e3a0301f 	mov	r3, #31
    9af0:	e3a0606b 	mov	r6, #107	; 0x6b
    9af4:	eaffff5c 	b	986c <malloc+0x1178>
    9af8:	e5903010 	ldr	r3, [r0, #16]
    9afc:	e5921008 	ldr	r1, [r2, #8]
    9b00:	e1510003 	cmp	r1, r3
    9b04:	2afffe23 	bcs	9398 <malloc+0xca4>
    9b08:	eafffcfd 	b	8f04 <malloc+0x810>
    9b0c:	e782e106 	str	lr, [r2, r6, lsl #2]
    9b10:	e180000c 	orr	r0, r0, ip
    9b14:	e0825005 	add	r5, r2, r5
    9b18:	e5820004 	str	r0, [r2, #4]
    9b1c:	e58ee00c 	str	lr, [lr, #12]
    9b20:	e58e5018 	str	r5, [lr, #24]
    9b24:	e58ee008 	str	lr, [lr, #8]
    9b28:	e592300c 	ldr	r3, [r2, #12]
    9b2c:	eafffdb7 	b	9210 <malloc+0xb1c>
    9b30:	e590e010 	ldr	lr, [r0, #16]
    9b34:	e35e0000 	cmp	lr, #0
    9b38:	0a0000e6 	beq	9ed8 <malloc+0x17e4>
    9b3c:	e2803010 	add	r3, r0, #16
    9b40:	eafffed4 	b	9698 <malloc+0xfa4>
    9b44:	e0802007 	add	r2, r0, r7
    9b48:	e3877003 	orr	r7, r7, #3
    9b4c:	e5807004 	str	r7, [r0, #4]
    9b50:	e5923004 	ldr	r3, [r2, #4]
    9b54:	e3833001 	orr	r3, r3, #1
    9b58:	e5823004 	str	r3, [r2, #4]
    9b5c:	eafffd74 	b	9134 <malloc+0xa40>
    9b60:	e5901014 	ldr	r1, [r0, #20]
    9b64:	e3510000 	cmp	r1, #0
    9b68:	12803014 	addne	r3, r0, #20
    9b6c:	0a0000ed 	beq	9f28 <malloc+0x1834>
    9b70:	e1a05003 	mov	r5, r3
    9b74:	e1a03001 	mov	r3, r1
    9b78:	e1a06001 	mov	r6, r1
    9b7c:	e5b31014 	ldr	r1, [r3, #20]!
    9b80:	e3510000 	cmp	r1, #0
    9b84:	1afffff9 	bne	9b70 <malloc+0x147c>
    9b88:	e1a03006 	mov	r3, r6
    9b8c:	e5b31010 	ldr	r1, [r3, #16]!
    9b90:	e3510000 	cmp	r1, #0
    9b94:	1afffff5 	bne	9b70 <malloc+0x147c>
    9b98:	e1590005 	cmp	r9, r5
    9b9c:	8afffcd8 	bhi	8f04 <malloc+0x810>
    9ba0:	e5851000 	str	r1, [r5]
    9ba4:	eafffd20 	b	902c <malloc+0x938>
    9ba8:	e5932008 	ldr	r2, [r3, #8]
    9bac:	e1560002 	cmp	r6, r2
    9bb0:	9afffeb0 	bls	9678 <malloc+0xf84>
    9bb4:	eafffcd2 	b	8f04 <malloc+0x810>
    9bb8:	e353001f 	cmp	r3, #31
    9bbc:	e792110e 	ldr	r1, [r2, lr, lsl #2]
    9bc0:	11a020a3 	lsrne	r2, r3, #1
    9bc4:	01a02008 	moveq	r2, r8
    9bc8:	12622019 	rsbne	r2, r2, #25
    9bcc:	11a02218 	lslne	r2, r8, r2
    9bd0:	ea000006 	b	9bf0 <malloc+0x14fc>
    9bd4:	e1a03fa2 	lsr	r3, r2, #31
    9bd8:	e1a02082 	lsl	r2, r2, #1
    9bdc:	e2833004 	add	r3, r3, #4
    9be0:	e791c103 	ldr	ip, [r1, r3, lsl #2]
    9be4:	e35c0000 	cmp	ip, #0
    9be8:	0a0000a0 	beq	9e70 <malloc+0x177c>
    9bec:	e1a0100c 	mov	r1, ip
    9bf0:	e5913004 	ldr	r3, [r1, #4]
    9bf4:	e3c33007 	bic	r3, r3, #7
    9bf8:	e1530008 	cmp	r3, r8
    9bfc:	1afffff4 	bne	9bd4 <malloc+0x14e0>
    9c00:	e5913008 	ldr	r3, [r1, #8]
    9c04:	e1560001 	cmp	r6, r1
    9c08:	91560003 	cmpls	r6, r3
    9c0c:	8afffcbc 	bhi	8f04 <malloc+0x810>
    9c10:	e583700c 	str	r7, [r3, #12]
    9c14:	e3a02000 	mov	r2, #0
    9c18:	e5817008 	str	r7, [r1, #8]
    9c1c:	e5873008 	str	r3, [r7, #8]
    9c20:	e587100c 	str	r1, [r7, #12]
    9c24:	e5872018 	str	r2, [r7, #24]
    9c28:	eafffc69 	b	8dd4 <malloc+0x6e0>
    9c2c:	e3a05f6b 	mov	r5, #428	; 0x1ac
    9c30:	e3a0c102 	mov	ip, #-2147483648	; 0x80000000
    9c34:	e3a0301f 	mov	r3, #31
    9c38:	e3a0e06b 	mov	lr, #107	; 0x6b
    9c3c:	eaffff97 	b	9aa0 <malloc+0x13ac>
    9c40:	e51f148c 	ldr	r1, [pc, #-1164]	; 97bc <malloc+0x10c8>
    9c44:	e0802103 	add	r2, r0, r3, lsl #2
    9c48:	e08f1001 	add	r1, pc, r1
    9c4c:	e591c010 	ldr	ip, [r1, #16]
    9c50:	e15c0002 	cmp	ip, r2
    9c54:	8afffcaa 	bhi	8f04 <malloc+0x810>
    9c58:	e780e103 	str	lr, [r0, r3, lsl #2]
    9c5c:	e591300c 	ldr	r3, [r1, #12]
    9c60:	e58e0018 	str	r0, [lr, #24]
    9c64:	e58ee00c 	str	lr, [lr, #12]
    9c68:	e58ee008 	str	lr, [lr, #8]
    9c6c:	eafffd67 	b	9210 <malloc+0xb1c>
    9c70:	e51f14b8 	ldr	r1, [pc, #-1208]	; 97c0 <malloc+0x10cc>
    9c74:	e08f1001 	add	r1, pc, r1
    9c78:	e591200c 	ldr	r2, [r1, #12]
    9c7c:	e581c018 	str	ip, [r1, #24]
    9c80:	e0833002 	add	r3, r3, r2
    9c84:	e581300c 	str	r3, [r1, #12]
    9c88:	e3833001 	orr	r3, r3, #1
    9c8c:	e58c3004 	str	r3, [ip, #4]
    9c90:	eaffff5f 	b	9a14 <malloc+0x1320>
    9c94:	e1a01423 	lsr	r1, r3, #8
    9c98:	e3510801 	cmp	r1, #65536	; 0x10000
    9c9c:	2a00007b 	bcs	9e90 <malloc+0x179c>
    9ca0:	e2412c01 	sub	r2, r1, #256	; 0x100
    9ca4:	e3a00001 	mov	r0, #1
    9ca8:	e1a02822 	lsr	r2, r2, #16
    9cac:	e2022008 	and	r2, r2, #8
    9cb0:	e1a01211 	lsl	r1, r1, r2
    9cb4:	e241ea01 	sub	lr, r1, #4096	; 0x1000
    9cb8:	e1a0e82e 	lsr	lr, lr, #16
    9cbc:	e20ee004 	and	lr, lr, #4
    9cc0:	e182200e 	orr	r2, r2, lr
    9cc4:	e1a01e11 	lsl	r1, r1, lr
    9cc8:	e241e901 	sub	lr, r1, #16384	; 0x4000
    9ccc:	e1a0e82e 	lsr	lr, lr, #16
    9cd0:	e20ee002 	and	lr, lr, #2
    9cd4:	e082200e 	add	r2, r2, lr
    9cd8:	e1a01e11 	lsl	r1, r1, lr
    9cdc:	e06227a1 	rsb	r2, r2, r1, lsr #15
    9ce0:	e2821015 	add	r1, r2, #21
    9ce4:	e282200e 	add	r2, r2, #14
    9ce8:	e1a01133 	lsr	r1, r3, r1
    9cec:	e0011000 	and	r1, r1, r0
    9cf0:	e0811012 	add	r1, r1, r2, lsl r0
    9cf4:	e281604c 	add	r6, r1, #76	; 0x4c
    9cf8:	e1a00110 	lsl	r0, r0, r1
    9cfc:	e1a07106 	lsl	r7, r6, #2
    9d00:	e51fe544 	ldr	lr, [pc, #-1348]	; 97c4 <malloc+0x10d0>
    9d04:	e3a02000 	mov	r2, #0
    9d08:	e58c101c 	str	r1, [ip, #28]
    9d0c:	e08fe00e 	add	lr, pc, lr
    9d10:	e58c2014 	str	r2, [ip, #20]
    9d14:	e58c2010 	str	r2, [ip, #16]
    9d18:	e59e4004 	ldr	r4, [lr, #4]
    9d1c:	e1100004 	tst	r0, r4
    9d20:	0a000064 	beq	9eb8 <malloc+0x17c4>
    9d24:	e351001f 	cmp	r1, #31
    9d28:	e79ee106 	ldr	lr, [lr, r6, lsl #2]
    9d2c:	11a020a1 	lsrne	r2, r1, #1
    9d30:	12622019 	rsbne	r2, r2, #25
    9d34:	e1a01213 	lsl	r1, r3, r2
    9d38:	ea000006 	b	9d58 <malloc+0x1664>
    9d3c:	e1a02fa1 	lsr	r2, r1, #31
    9d40:	e1a01081 	lsl	r1, r1, #1
    9d44:	e2822004 	add	r2, r2, #4
    9d48:	e79e0102 	ldr	r0, [lr, r2, lsl #2]
    9d4c:	e3500000 	cmp	r0, #0
    9d50:	0a0000b2 	beq	a020 <malloc+0x192c>
    9d54:	e1a0e000 	mov	lr, r0
    9d58:	e59e2004 	ldr	r2, [lr, #4]
    9d5c:	e3c22007 	bic	r2, r2, #7
    9d60:	e1530002 	cmp	r3, r2
    9d64:	1afffff4 	bne	9d3c <malloc+0x1648>
    9d68:	e51f25a8 	ldr	r2, [pc, #-1448]	; 97c8 <malloc+0x10d4>
    9d6c:	e59e3008 	ldr	r3, [lr, #8]
    9d70:	e08f2002 	add	r2, pc, r2
    9d74:	e5922010 	ldr	r2, [r2, #16]
    9d78:	e1530002 	cmp	r3, r2
    9d7c:	215e0002 	cmpcs	lr, r2
    9d80:	3afffc5f 	bcc	8f04 <malloc+0x810>
    9d84:	e583c00c 	str	ip, [r3, #12]
    9d88:	e3a02000 	mov	r2, #0
    9d8c:	e58ec008 	str	ip, [lr, #8]
    9d90:	e58c3008 	str	r3, [ip, #8]
    9d94:	e58ce00c 	str	lr, [ip, #12]
    9d98:	e58c2018 	str	r2, [ip, #24]
    9d9c:	eaffff1c 	b	9a14 <malloc+0x1320>
    9da0:	e1a00006 	mov	r0, r6
    9da4:	ebfff994 	bl	83fc <sbrk>
    9da8:	e1a05000 	mov	r5, r0
    9dac:	e1570000 	cmp	r7, r0
    9db0:	1afffdb7 	bne	9494 <malloc+0xda0>
    9db4:	eafffb51 	b	8b00 <malloc+0x40c>
    9db8:	e5912008 	ldr	r2, [r1, #8]
    9dbc:	e581c014 	str	ip, [r1, #20]
    9dc0:	e0833002 	add	r3, r3, r2
    9dc4:	e5813008 	str	r3, [r1, #8]
    9dc8:	e3832001 	orr	r2, r3, #1
    9dcc:	e58c2004 	str	r2, [ip, #4]
    9dd0:	e78c3003 	str	r3, [ip, r3]
    9dd4:	eaffff0e 	b	9a14 <malloc+0x1320>
    9dd8:	e3c00007 	bic	r0, r0, #7
    9ddc:	e592e00c 	ldr	lr, [r2, #12]
    9de0:	e1a061a0 	lsr	r6, r0, #3
    9de4:	e356001f 	cmp	r6, #31
    9de8:	8a000053 	bhi	9f3c <malloc+0x1848>
    9dec:	e15e0002 	cmp	lr, r2
    9df0:	e5924008 	ldr	r4, [r2, #8]
    9df4:	0afffc42 	beq	8f04 <malloc+0x810>
    9df8:	e1540002 	cmp	r4, r2
    9dfc:	0afffc40 	beq	8f04 <malloc+0x810>
    9e00:	e0811186 	add	r1, r1, r6, lsl #3
    9e04:	e2811028 	add	r1, r1, #40	; 0x28
    9e08:	e1540001 	cmp	r4, r1
    9e0c:	1afffc34 	bne	8ee4 <malloc+0x7f0>
    9e10:	e154000e 	cmp	r4, lr
    9e14:	0a0000b2 	beq	a0e4 <malloc+0x19f0>
    9e18:	e151000e 	cmp	r1, lr
    9e1c:	1a0000b7 	bne	a100 <malloc+0x1a0c>
    9e20:	e584e00c 	str	lr, [r4, #12]
    9e24:	e58e4008 	str	r4, [lr, #8]
    9e28:	e0822000 	add	r2, r2, r0
    9e2c:	e0833000 	add	r3, r3, r0
    9e30:	e3830001 	orr	r0, r3, #1
    9e34:	e1a0e1a3 	lsr	lr, r3, #3
    9e38:	e5921004 	ldr	r1, [r2, #4]
    9e3c:	e35e001f 	cmp	lr, #31
    9e40:	e3c11001 	bic	r1, r1, #1
    9e44:	e5821004 	str	r1, [r2, #4]
    9e48:	e58c0004 	str	r0, [ip, #4]
    9e4c:	e78c3003 	str	r3, [ip, r3]
    9e50:	8affff8f 	bhi	9c94 <malloc+0x15a0>
    9e54:	e51f2690 	ldr	r2, [pc, #-1680]	; 97cc <malloc+0x10d8>
    9e58:	e353000f 	cmp	r3, #15
    9e5c:	e08f2002 	add	r2, pc, r2
    9e60:	e082318e 	add	r3, r2, lr, lsl #3
    9e64:	e2833028 	add	r3, r3, #40	; 0x28
    9e68:	8afffedc 	bhi	99e0 <malloc+0x12ec>
    9e6c:	eafffc24 	b	8f04 <malloc+0x810>
    9e70:	e0812103 	add	r2, r1, r3, lsl #2
    9e74:	e1560002 	cmp	r6, r2
    9e78:	8afffc21 	bhi	8f04 <malloc+0x810>
    9e7c:	e7817103 	str	r7, [r1, r3, lsl #2]
    9e80:	e5871018 	str	r1, [r7, #24]
    9e84:	e587700c 	str	r7, [r7, #12]
    9e88:	e5877008 	str	r7, [r7, #8]
    9e8c:	eafffbd0 	b	8dd4 <malloc+0x6e0>
    9e90:	e3a07f6b 	mov	r7, #428	; 0x1ac
    9e94:	e3a00102 	mov	r0, #-2147483648	; 0x80000000
    9e98:	e3a0101f 	mov	r1, #31
    9e9c:	e3a0606b 	mov	r6, #107	; 0x6b
    9ea0:	eaffff96 	b	9d00 <malloc+0x160c>
    9ea4:	e5911010 	ldr	r1, [r1, #16]
    9ea8:	e5932008 	ldr	r2, [r3, #8]
    9eac:	e1520001 	cmp	r2, r1
    9eb0:	2afffed4 	bcs	9a08 <malloc+0x1314>
    9eb4:	eafffc12 	b	8f04 <malloc+0x810>
    9eb8:	e78ec106 	str	ip, [lr, r6, lsl #2]
    9ebc:	e1800004 	orr	r0, r0, r4
    9ec0:	e58cc00c 	str	ip, [ip, #12]
    9ec4:	e58e0004 	str	r0, [lr, #4]
    9ec8:	e08ee007 	add	lr, lr, r7
    9ecc:	e58cc008 	str	ip, [ip, #8]
    9ed0:	e58ce018 	str	lr, [ip, #24]
    9ed4:	eafffece 	b	9a14 <malloc+0x1320>
    9ed8:	e3590000 	cmp	r9, #0
    9edc:	0afffbb4 	beq	8db4 <malloc+0x6c0>
    9ee0:	e590e01c 	ldr	lr, [r0, #28]
    9ee4:	e28e204c 	add	r2, lr, #76	; 0x4c
    9ee8:	e79c3102 	ldr	r3, [ip, r2, lsl #2]
    9eec:	e1530000 	cmp	r3, r0
    9ef0:	13a02000 	movne	r2, #0
    9ef4:	1afffb95 	bne	8d50 <malloc+0x65c>
    9ef8:	e51f3730 	ldr	r3, [pc, #-1840]	; 97d0 <malloc+0x10dc>
    9efc:	e3a0c001 	mov	ip, #1
    9f00:	e08f3003 	add	r3, pc, r3
    9f04:	e1c11e1c 	bic	r1, r1, ip, lsl lr
    9f08:	e3a0c000 	mov	ip, #0
    9f0c:	e5831004 	str	r1, [r3, #4]
    9f10:	e783c102 	str	ip, [r3, r2, lsl #2]
    9f14:	eafffba6 	b	8db4 <malloc+0x6c0>
    9f18:	e5932008 	ldr	r2, [r3, #8]
    9f1c:	e1590002 	cmp	r9, r2
    9f20:	9afffc7c 	bls	9118 <malloc+0xa24>
    9f24:	eafffbf6 	b	8f04 <malloc+0x810>
    9f28:	e5901010 	ldr	r1, [r0, #16]
    9f2c:	e3510000 	cmp	r1, #0
    9f30:	0a000045 	beq	a04c <malloc+0x1958>
    9f34:	e2803010 	add	r3, r0, #16
    9f38:	eaffff0c 	b	9b70 <malloc+0x147c>
    9f3c:	e15e0002 	cmp	lr, r2
    9f40:	e5927018 	ldr	r7, [r2, #24]
    9f44:	0a000050 	beq	a08c <malloc+0x1998>
    9f48:	e5914010 	ldr	r4, [r1, #16]
    9f4c:	e5921008 	ldr	r1, [r2, #8]
    9f50:	e1510004 	cmp	r1, r4
    9f54:	3afffbea 	bcc	8f04 <malloc+0x810>
    9f58:	e591400c 	ldr	r4, [r1, #12]
    9f5c:	e1540002 	cmp	r4, r2
    9f60:	1afffbe7 	bne	8f04 <malloc+0x810>
    9f64:	e59e6008 	ldr	r6, [lr, #8]
    9f68:	e1540006 	cmp	r4, r6
    9f6c:	1afffbe4 	bne	8f04 <malloc+0x810>
    9f70:	e581e00c 	str	lr, [r1, #12]
    9f74:	e58e1008 	str	r1, [lr, #8]
    9f78:	e3570000 	cmp	r7, #0
    9f7c:	0affffa9 	beq	9e28 <malloc+0x1734>
    9f80:	e592101c 	ldr	r1, [r2, #28]
    9f84:	e51f47b8 	ldr	r4, [pc, #-1976]	; 97d4 <malloc+0x10e0>
    9f88:	e281104c 	add	r1, r1, #76	; 0x4c
    9f8c:	e08f4004 	add	r4, pc, r4
    9f90:	e7946101 	ldr	r6, [r4, r1, lsl #2]
    9f94:	e1560002 	cmp	r6, r2
    9f98:	0784e101 	streq	lr, [r4, r1, lsl #2]
    9f9c:	0a00000a 	beq	9fcc <malloc+0x18d8>
    9fa0:	e51f17d0 	ldr	r1, [pc, #-2000]	; 97d8 <malloc+0x10e4>
    9fa4:	e08f1001 	add	r1, pc, r1
    9fa8:	e5911010 	ldr	r1, [r1, #16]
    9fac:	e1570001 	cmp	r7, r1
    9fb0:	3afffbd3 	bcc	8f04 <malloc+0x810>
    9fb4:	e5971010 	ldr	r1, [r7, #16]
    9fb8:	e1510002 	cmp	r1, r2
    9fbc:	0587e010 	streq	lr, [r7, #16]
    9fc0:	1587e014 	strne	lr, [r7, #20]
    9fc4:	e35e0000 	cmp	lr, #0
    9fc8:	0affff96 	beq	9e28 <malloc+0x1734>
    9fcc:	e51f17f8 	ldr	r1, [pc, #-2040]	; 97dc <malloc+0x10e8>
    9fd0:	e08f1001 	add	r1, pc, r1
    9fd4:	e5914010 	ldr	r4, [r1, #16]
    9fd8:	e15e0004 	cmp	lr, r4
    9fdc:	3afffbc8 	bcc	8f04 <malloc+0x810>
    9fe0:	e5921010 	ldr	r1, [r2, #16]
    9fe4:	e58e7018 	str	r7, [lr, #24]
    9fe8:	e3510000 	cmp	r1, #0
    9fec:	0a000003 	beq	a000 <malloc+0x190c>
    9ff0:	e1540001 	cmp	r4, r1
    9ff4:	8afffbc2 	bhi	8f04 <malloc+0x810>
    9ff8:	e58e1010 	str	r1, [lr, #16]
    9ffc:	e581e018 	str	lr, [r1, #24]
    a000:	e5921014 	ldr	r1, [r2, #20]
    a004:	e3510000 	cmp	r1, #0
    a008:	0affff86 	beq	9e28 <malloc+0x1734>
    a00c:	e1540001 	cmp	r4, r1
    a010:	8afffbbb 	bhi	8f04 <malloc+0x810>
    a014:	e58e1014 	str	r1, [lr, #20]
    a018:	e581e018 	str	lr, [r1, #24]
    a01c:	eaffff81 	b	9e28 <malloc+0x1734>
    a020:	e51f1848 	ldr	r1, [pc, #-2120]	; 97e0 <malloc+0x10ec>
    a024:	e08e3102 	add	r3, lr, r2, lsl #2
    a028:	e08f1001 	add	r1, pc, r1
    a02c:	e5911010 	ldr	r1, [r1, #16]
    a030:	e1510003 	cmp	r1, r3
    a034:	8afffbb2 	bhi	8f04 <malloc+0x810>
    a038:	e78ec102 	str	ip, [lr, r2, lsl #2]
    a03c:	e58ce018 	str	lr, [ip, #24]
    a040:	e58cc00c 	str	ip, [ip, #12]
    a044:	e58cc008 	str	ip, [ip, #8]
    a048:	eafffe71 	b	9a14 <malloc+0x1320>
    a04c:	e35a0000 	cmp	sl, #0
    a050:	0afffc18 	beq	90b8 <malloc+0x9c4>
    a054:	e590601c 	ldr	r6, [r0, #28]
    a058:	e286104c 	add	r1, r6, #76	; 0x4c
    a05c:	e79b3101 	ldr	r3, [fp, r1, lsl #2]
    a060:	e1500003 	cmp	r0, r3
    a064:	13a06000 	movne	r6, #0
    a068:	1afffbf9 	bne	9054 <malloc+0x960>
    a06c:	e51f3890 	ldr	r3, [pc, #-2192]	; 97e4 <malloc+0x10f0>
    a070:	e3a0a001 	mov	sl, #1
    a074:	e08f3003 	add	r3, pc, r3
    a078:	e1c5561a 	bic	r5, r5, sl, lsl r6
    a07c:	e3a06000 	mov	r6, #0
    a080:	e5835004 	str	r5, [r3, #4]
    a084:	e7836101 	str	r6, [r3, r1, lsl #2]
    a088:	eafffc0a 	b	90b8 <malloc+0x9c4>
    a08c:	e592e014 	ldr	lr, [r2, #20]
    a090:	e2821014 	add	r1, r2, #20
    a094:	e35e0000 	cmp	lr, #0
    a098:	0a000021 	beq	a124 <malloc+0x1a30>
    a09c:	e1a0400e 	mov	r4, lr
    a0a0:	e1a06001 	mov	r6, r1
    a0a4:	e1a01004 	mov	r1, r4
    a0a8:	e1a0e004 	mov	lr, r4
    a0ac:	e5b14014 	ldr	r4, [r1, #20]!
    a0b0:	e3540000 	cmp	r4, #0
    a0b4:	1afffff9 	bne	a0a0 <malloc+0x19ac>
    a0b8:	e1a0100e 	mov	r1, lr
    a0bc:	e5b14010 	ldr	r4, [r1, #16]!
    a0c0:	e3540000 	cmp	r4, #0
    a0c4:	1afffff5 	bne	a0a0 <malloc+0x19ac>
    a0c8:	e51f18e8 	ldr	r1, [pc, #-2280]	; 97e8 <malloc+0x10f4>
    a0cc:	e08f1001 	add	r1, pc, r1
    a0d0:	e5911010 	ldr	r1, [r1, #16]
    a0d4:	e1510006 	cmp	r1, r6
    a0d8:	8afffb89 	bhi	8f04 <malloc+0x810>
    a0dc:	e5864000 	str	r4, [r6]
    a0e0:	eaffffa4 	b	9f78 <malloc+0x1884>
    a0e4:	e51fe900 	ldr	lr, [pc, #-2304]	; 97ec <malloc+0x10f8>
    a0e8:	e3a04001 	mov	r4, #1
    a0ec:	e08fe00e 	add	lr, pc, lr
    a0f0:	e59e1000 	ldr	r1, [lr]
    a0f4:	e1c16614 	bic	r6, r1, r4, lsl r6
    a0f8:	e58e6000 	str	r6, [lr]
    a0fc:	eaffff49 	b	9e28 <malloc+0x1734>
    a100:	e51f1918 	ldr	r1, [pc, #-2328]	; 97f0 <malloc+0x10fc>
    a104:	e08f1001 	add	r1, pc, r1
    a108:	e5911010 	ldr	r1, [r1, #16]
    a10c:	e151000e 	cmp	r1, lr
    a110:	8afffb7b 	bhi	8f04 <malloc+0x810>
    a114:	e59e1008 	ldr	r1, [lr, #8]
    a118:	e1510002 	cmp	r1, r2
    a11c:	0affff3f 	beq	9e20 <malloc+0x172c>
    a120:	eafffb77 	b	8f04 <malloc+0x810>
    a124:	e592e010 	ldr	lr, [r2, #16]
    a128:	e2821010 	add	r1, r2, #16
    a12c:	e35e0000 	cmp	lr, #0
    a130:	1affffd9 	bne	a09c <malloc+0x19a8>
    a134:	e3570000 	cmp	r7, #0
    a138:	0affff3a 	beq	9e28 <malloc+0x1734>
    a13c:	e592401c 	ldr	r4, [r2, #28]
    a140:	e51f1954 	ldr	r1, [pc, #-2388]	; 97f4 <malloc+0x1100>
    a144:	e284604c 	add	r6, r4, #76	; 0x4c
    a148:	e08f1001 	add	r1, pc, r1
    a14c:	e7918106 	ldr	r8, [r1, r6, lsl #2]
    a150:	e1580002 	cmp	r8, r2
    a154:	1affff91 	bne	9fa0 <malloc+0x18ac>
    a158:	e591e004 	ldr	lr, [r1, #4]
    a15c:	e3a07001 	mov	r7, #1
    a160:	e3a08000 	mov	r8, #0
    a164:	e7818106 	str	r8, [r1, r6, lsl #2]
    a168:	e1cee417 	bic	lr, lr, r7, lsl r4
    a16c:	e581e004 	str	lr, [r1, #4]
    a170:	eaffff2c 	b	9e28 <malloc+0x1734>
    a174:	e51f3984 	ldr	r3, [pc, #-2436]	; 97f8 <malloc+0x1104>
    a178:	e08f3003 	add	r3, pc, r3
    a17c:	e5933000 	ldr	r3, [r3]
    a180:	e3530000 	cmp	r3, #0
    a184:	1afffa2b 	bne	8a38 <malloc+0x344>
    a188:	eafffa29 	b	8a34 <malloc+0x340>
    a18c:	e51f3998 	ldr	r3, [pc, #-2456]	; 97fc <malloc+0x1108>
    a190:	e08f3003 	add	r3, pc, r3
    a194:	e593e1bc 	ldr	lr, [r3, #444]	; 0x1bc
    a198:	eafffb49 	b	8ec4 <malloc+0x7d0>

0000a19c <free>:
    a19c:	e3500000 	cmp	r0, #0
    a1a0:	012fff1e 	bxeq	lr
    a1a4:	e92d41f0 	push	{r4, r5, r6, r7, r8, lr}
    a1a8:	e2403008 	sub	r3, r0, #8
    a1ac:	e59f47bc 	ldr	r4, [pc, #1980]	; a970 <free+0x7d4>
    a1b0:	e08f4004 	add	r4, pc, r4
    a1b4:	e594e010 	ldr	lr, [r4, #16]
    a1b8:	e15e0003 	cmp	lr, r3
    a1bc:	8a00004e 	bhi	a2fc <free+0x160>
    a1c0:	e5101004 	ldr	r1, [r0, #-4]
    a1c4:	e2015003 	and	r5, r1, #3
    a1c8:	e3550001 	cmp	r5, #1
    a1cc:	0a00004a 	beq	a2fc <free+0x160>
    a1d0:	e3c12007 	bic	r2, r1, #7
    a1d4:	e3110001 	tst	r1, #1
    a1d8:	e083c002 	add	ip, r3, r2
    a1dc:	0a000021 	beq	a268 <free+0xcc>
    a1e0:	e153000c 	cmp	r3, ip
    a1e4:	2a000044 	bcs	a2fc <free+0x160>
    a1e8:	e59c1004 	ldr	r1, [ip, #4]
    a1ec:	e3110001 	tst	r1, #1
    a1f0:	0a000041 	beq	a2fc <free+0x160>
    a1f4:	e2110002 	ands	r0, r1, #2
    a1f8:	0a000041 	beq	a304 <free+0x168>
    a1fc:	e3c11001 	bic	r1, r1, #1
    a200:	e3820001 	orr	r0, r2, #1
    a204:	e58c1004 	str	r1, [ip, #4]
    a208:	e5830004 	str	r0, [r3, #4]
    a20c:	e7832002 	str	r2, [r3, r2]
    a210:	e1a011a2 	lsr	r1, r2, #3
    a214:	e351001f 	cmp	r1, #31
    a218:	8a00008a 	bhi	a448 <free+0x2ac>
    a21c:	e59fc750 	ldr	ip, [pc, #1872]	; a974 <free+0x7d8>
    a220:	e352000f 	cmp	r2, #15
    a224:	e08fc00c 	add	ip, pc, ip
    a228:	e08c2181 	add	r2, ip, r1, lsl #3
    a22c:	e2822028 	add	r2, r2, #40	; 0x28
    a230:	9a000082 	bls	a440 <free+0x2a4>
    a234:	e3a00001 	mov	r0, #1
    a238:	e59ce000 	ldr	lr, [ip]
    a23c:	e1a01110 	lsl	r1, r0, r1
    a240:	e11e0001 	tst	lr, r1
    a244:	1a000079 	bne	a430 <free+0x294>
    a248:	e1a00002 	mov	r0, r2
    a24c:	e18e1001 	orr	r1, lr, r1
    a250:	e58c1000 	str	r1, [ip]
    a254:	e5823008 	str	r3, [r2, #8]
    a258:	e580300c 	str	r3, [r0, #12]
    a25c:	e5830008 	str	r0, [r3, #8]
    a260:	e583200c 	str	r2, [r3, #12]
    a264:	e8bd81f0 	pop	{r4, r5, r6, r7, r8, pc}
    a268:	e3550000 	cmp	r5, #0
    a26c:	08bd81f0 	popeq	{r4, r5, r6, r7, r8, pc}
    a270:	e5100008 	ldr	r0, [r0, #-8]
    a274:	e0433000 	sub	r3, r3, r0
    a278:	e0822000 	add	r2, r2, r0
    a27c:	e15e0003 	cmp	lr, r3
    a280:	8a00001d 	bhi	a2fc <free+0x160>
    a284:	e5941014 	ldr	r1, [r4, #20]
    a288:	e1510003 	cmp	r1, r3
    a28c:	0a00012f 	beq	a750 <free+0x5b4>
    a290:	e1a051a0 	lsr	r5, r0, #3
    a294:	e593100c 	ldr	r1, [r3, #12]
    a298:	e355001f 	cmp	r5, #31
    a29c:	8a000087 	bhi	a4c0 <free+0x324>
    a2a0:	e1510003 	cmp	r1, r3
    a2a4:	e5934008 	ldr	r4, [r3, #8]
    a2a8:	0a000064 	beq	a440 <free+0x2a4>
    a2ac:	e1530004 	cmp	r3, r4
    a2b0:	0a000062 	beq	a440 <free+0x2a4>
    a2b4:	e5936004 	ldr	r6, [r3, #4]
    a2b8:	e3c00007 	bic	r0, r0, #7
    a2bc:	e3c66007 	bic	r6, r6, #7
    a2c0:	e1560000 	cmp	r6, r0
    a2c4:	1a00005d 	bne	a440 <free+0x2a4>
    a2c8:	e59f06a8 	ldr	r0, [pc, #1704]	; a978 <free+0x7dc>
    a2cc:	e08f0000 	add	r0, pc, r0
    a2d0:	e0800185 	add	r0, r0, r5, lsl #3
    a2d4:	e2800028 	add	r0, r0, #40	; 0x28
    a2d8:	e1500004 	cmp	r0, r4
    a2dc:	1a0000e4 	bne	a674 <free+0x4d8>
    a2e0:	e1510004 	cmp	r1, r4
    a2e4:	0a000137 	beq	a7c8 <free+0x62c>
    a2e8:	e1500001 	cmp	r0, r1
    a2ec:	1a000171 	bne	a8b8 <free+0x71c>
    a2f0:	e584100c 	str	r1, [r4, #12]
    a2f4:	e5814008 	str	r4, [r1, #8]
    a2f8:	eaffffb8 	b	a1e0 <free+0x44>
    a2fc:	e3e00000 	mvn	r0, #0
    a300:	ebfff73e 	bl	8000 <exit>
    a304:	e59f4670 	ldr	r4, [pc, #1648]	; a97c <free+0x7e0>
    a308:	e08f4004 	add	r4, pc, r4
    a30c:	e5946018 	ldr	r6, [r4, #24]
    a310:	e5945014 	ldr	r5, [r4, #20]
    a314:	e156000c 	cmp	r6, ip
    a318:	0a0000fb 	beq	a70c <free+0x570>
    a31c:	e155000c 	cmp	r5, ip
    a320:	0a000115 	beq	a77c <free+0x5e0>
    a324:	e3c11007 	bic	r1, r1, #7
    a328:	e59c000c 	ldr	r0, [ip, #12]
    a32c:	e0822001 	add	r2, r2, r1
    a330:	e1a011a1 	lsr	r1, r1, #3
    a334:	e351001f 	cmp	r1, #31
    a338:	9a000092 	bls	a588 <free+0x3ec>
    a33c:	e150000c 	cmp	r0, ip
    a340:	e59c6018 	ldr	r6, [ip, #24]
    a344:	0a000126 	beq	a7e4 <free+0x648>
    a348:	e59c1008 	ldr	r1, [ip, #8]
    a34c:	e15e0001 	cmp	lr, r1
    a350:	8a00003a 	bhi	a440 <free+0x2a4>
    a354:	e591400c 	ldr	r4, [r1, #12]
    a358:	e154000c 	cmp	r4, ip
    a35c:	1a000037 	bne	a440 <free+0x2a4>
    a360:	e5904008 	ldr	r4, [r0, #8]
    a364:	e154000c 	cmp	r4, ip
    a368:	1a000034 	bne	a440 <free+0x2a4>
    a36c:	e581000c 	str	r0, [r1, #12]
    a370:	e5801008 	str	r1, [r0, #8]
    a374:	e3560000 	cmp	r6, #0
    a378:	0a000132 	beq	a848 <free+0x6ac>
    a37c:	e59c101c 	ldr	r1, [ip, #28]
    a380:	e59f45f8 	ldr	r4, [pc, #1528]	; a980 <free+0x7e4>
    a384:	e281104c 	add	r1, r1, #76	; 0x4c
    a388:	e08f4004 	add	r4, pc, r4
    a38c:	e7945101 	ldr	r5, [r4, r1, lsl #2]
    a390:	e155000c 	cmp	r5, ip
    a394:	07840101 	streq	r0, [r4, r1, lsl #2]
    a398:	0a000007 	beq	a3bc <free+0x220>
    a39c:	e15e0006 	cmp	lr, r6
    a3a0:	8a000026 	bhi	a440 <free+0x2a4>
    a3a4:	e5961010 	ldr	r1, [r6, #16]
    a3a8:	e151000c 	cmp	r1, ip
    a3ac:	05860010 	streq	r0, [r6, #16]
    a3b0:	15860014 	strne	r0, [r6, #20]
    a3b4:	e3500000 	cmp	r0, #0
    a3b8:	0a00012b 	beq	a86c <free+0x6d0>
    a3bc:	e15e0000 	cmp	lr, r0
    a3c0:	8a00001e 	bhi	a440 <free+0x2a4>
    a3c4:	e59c1010 	ldr	r1, [ip, #16]
    a3c8:	e5806018 	str	r6, [r0, #24]
    a3cc:	e3510000 	cmp	r1, #0
    a3d0:	0a000003 	beq	a3e4 <free+0x248>
    a3d4:	e15e0001 	cmp	lr, r1
    a3d8:	8a000018 	bhi	a440 <free+0x2a4>
    a3dc:	e5801010 	str	r1, [r0, #16]
    a3e0:	e5810018 	str	r0, [r1, #24]
    a3e4:	e59c1014 	ldr	r1, [ip, #20]
    a3e8:	e3510000 	cmp	r1, #0
    a3ec:	0a00012d 	beq	a8a8 <free+0x70c>
    a3f0:	e15e0001 	cmp	lr, r1
    a3f4:	8a000011 	bhi	a440 <free+0x2a4>
    a3f8:	e59fc584 	ldr	ip, [pc, #1412]	; a984 <free+0x7e8>
    a3fc:	e5801014 	str	r1, [r0, #20]
    a400:	e08fc00c 	add	ip, pc, ip
    a404:	e5810018 	str	r0, [r1, #24]
    a408:	e59c5014 	ldr	r5, [ip, #20]
    a40c:	e3821001 	orr	r1, r2, #1
    a410:	e1530005 	cmp	r3, r5
    a414:	e5831004 	str	r1, [r3, #4]
    a418:	e7832002 	str	r2, [r3, r2]
    a41c:	1affff7b 	bne	a210 <free+0x74>
    a420:	e59f3560 	ldr	r3, [pc, #1376]	; a988 <free+0x7ec>
    a424:	e08f3003 	add	r3, pc, r3
    a428:	e5832008 	str	r2, [r3, #8]
    a42c:	e8bd81f0 	pop	{r4, r5, r6, r7, r8, pc}
    a430:	e59c1010 	ldr	r1, [ip, #16]
    a434:	e5920008 	ldr	r0, [r2, #8]
    a438:	e1500001 	cmp	r0, r1
    a43c:	2affff84 	bcs	a254 <free+0xb8>
    a440:	e3e00000 	mvn	r0, #0
    a444:	ebfff6ed 	bl	8000 <exit>
    a448:	e1a00422 	lsr	r0, r2, #8
    a44c:	e3500801 	cmp	r0, #65536	; 0x10000
    a450:	3a00005c 	bcc	a5c8 <free+0x42c>
    a454:	e3a0c102 	mov	ip, #-2147483648	; 0x80000000
    a458:	e3a05f6b 	mov	r5, #428	; 0x1ac
    a45c:	e3a0101f 	mov	r1, #31
    a460:	e3a0406b 	mov	r4, #107	; 0x6b
    a464:	e59f0520 	ldr	r0, [pc, #1312]	; a98c <free+0x7f0>
    a468:	e3a0e000 	mov	lr, #0
    a46c:	e583e014 	str	lr, [r3, #20]
    a470:	e08f0000 	add	r0, pc, r0
    a474:	e583e010 	str	lr, [r3, #16]
    a478:	e583101c 	str	r1, [r3, #28]
    a47c:	e590e004 	ldr	lr, [r0, #4]
    a480:	e11c000e 	tst	ip, lr
    a484:	1a000080 	bne	a68c <free+0x4f0>
    a488:	e7803104 	str	r3, [r0, r4, lsl #2]
    a48c:	e18cc00e 	orr	ip, ip, lr
    a490:	e583300c 	str	r3, [r3, #12]
    a494:	e580c004 	str	ip, [r0, #4]
    a498:	e0800005 	add	r0, r0, r5
    a49c:	e5833008 	str	r3, [r3, #8]
    a4a0:	e5830018 	str	r0, [r3, #24]
    a4a4:	e59f24e4 	ldr	r2, [pc, #1252]	; a990 <free+0x7f4>
    a4a8:	e08f2002 	add	r2, pc, r2
    a4ac:	e5923020 	ldr	r3, [r2, #32]
    a4b0:	e2533001 	subs	r3, r3, #1
    a4b4:	03e03000 	mvneq	r3, #0
    a4b8:	e5823020 	str	r3, [r2, #32]
    a4bc:	e8bd81f0 	pop	{r4, r5, r6, r7, r8, pc}
    a4c0:	e1510003 	cmp	r1, r3
    a4c4:	e5936018 	ldr	r6, [r3, #24]
    a4c8:	0a000057 	beq	a62c <free+0x490>
    a4cc:	e5930008 	ldr	r0, [r3, #8]
    a4d0:	e15e0000 	cmp	lr, r0
    a4d4:	8affffd9 	bhi	a440 <free+0x2a4>
    a4d8:	e590400c 	ldr	r4, [r0, #12]
    a4dc:	e1540003 	cmp	r4, r3
    a4e0:	1affffd6 	bne	a440 <free+0x2a4>
    a4e4:	e5914008 	ldr	r4, [r1, #8]
    a4e8:	e1540003 	cmp	r4, r3
    a4ec:	1affffd3 	bne	a440 <free+0x2a4>
    a4f0:	e580100c 	str	r1, [r0, #12]
    a4f4:	e5810008 	str	r0, [r1, #8]
    a4f8:	e3560000 	cmp	r6, #0
    a4fc:	0affff37 	beq	a1e0 <free+0x44>
    a500:	e593001c 	ldr	r0, [r3, #28]
    a504:	e59f4488 	ldr	r4, [pc, #1160]	; a994 <free+0x7f8>
    a508:	e280004c 	add	r0, r0, #76	; 0x4c
    a50c:	e08f4004 	add	r4, pc, r4
    a510:	e7945100 	ldr	r5, [r4, r0, lsl #2]
    a514:	e1550003 	cmp	r5, r3
    a518:	07841100 	streq	r1, [r4, r0, lsl #2]
    a51c:	0a000007 	beq	a540 <free+0x3a4>
    a520:	e15e0006 	cmp	lr, r6
    a524:	8affffc5 	bhi	a440 <free+0x2a4>
    a528:	e5960010 	ldr	r0, [r6, #16]
    a52c:	e1500003 	cmp	r0, r3
    a530:	05861010 	streq	r1, [r6, #16]
    a534:	15861014 	strne	r1, [r6, #20]
    a538:	e3510000 	cmp	r1, #0
    a53c:	0affff27 	beq	a1e0 <free+0x44>
    a540:	e15e0001 	cmp	lr, r1
    a544:	8affffbd 	bhi	a440 <free+0x2a4>
    a548:	e5930010 	ldr	r0, [r3, #16]
    a54c:	e5816018 	str	r6, [r1, #24]
    a550:	e3500000 	cmp	r0, #0
    a554:	0a000003 	beq	a568 <free+0x3cc>
    a558:	e15e0000 	cmp	lr, r0
    a55c:	8affffb7 	bhi	a440 <free+0x2a4>
    a560:	e5810010 	str	r0, [r1, #16]
    a564:	e5801018 	str	r1, [r0, #24]
    a568:	e5930014 	ldr	r0, [r3, #20]
    a56c:	e3500000 	cmp	r0, #0
    a570:	0affff1a 	beq	a1e0 <free+0x44>
    a574:	e15e0000 	cmp	lr, r0
    a578:	8affffb0 	bhi	a440 <free+0x2a4>
    a57c:	e5810014 	str	r0, [r1, #20]
    a580:	e5801018 	str	r1, [r0, #24]
    a584:	eaffff15 	b	a1e0 <free+0x44>
    a588:	e150000c 	cmp	r0, ip
    a58c:	e59c6008 	ldr	r6, [ip, #8]
    a590:	0affffaa 	beq	a440 <free+0x2a4>
    a594:	e15c0006 	cmp	ip, r6
    a598:	0affffa8 	beq	a440 <free+0x2a4>
    a59c:	e0844181 	add	r4, r4, r1, lsl #3
    a5a0:	e2844028 	add	r4, r4, #40	; 0x28
    a5a4:	e1540006 	cmp	r4, r6
    a5a8:	1a0000b3 	bne	a87c <free+0x6e0>
    a5ac:	e1500006 	cmp	r0, r6
    a5b0:	0a00009d 	beq	a82c <free+0x690>
    a5b4:	e1500004 	cmp	r0, r4
    a5b8:	1a0000c4 	bne	a8d0 <free+0x734>
    a5bc:	e586000c 	str	r0, [r6, #12]
    a5c0:	e5806008 	str	r6, [r0, #8]
    a5c4:	eaffff90 	b	a40c <free+0x270>
    a5c8:	e2401c01 	sub	r1, r0, #256	; 0x100
    a5cc:	e3a0c001 	mov	ip, #1
    a5d0:	e1a01821 	lsr	r1, r1, #16
    a5d4:	e2011008 	and	r1, r1, #8
    a5d8:	e1a0e110 	lsl	lr, r0, r1
    a5dc:	e24e4a01 	sub	r4, lr, #4096	; 0x1000
    a5e0:	e1a04824 	lsr	r4, r4, #16
    a5e4:	e2044004 	and	r4, r4, #4
    a5e8:	e1810004 	orr	r0, r1, r4
    a5ec:	e1a0141e 	lsl	r1, lr, r4
    a5f0:	e241e901 	sub	lr, r1, #16384	; 0x4000
    a5f4:	e1a0e82e 	lsr	lr, lr, #16
    a5f8:	e20ee002 	and	lr, lr, #2
    a5fc:	e080000e 	add	r0, r0, lr
    a600:	e1a01e11 	lsl	r1, r1, lr
    a604:	e06007a1 	rsb	r0, r0, r1, lsr #15
    a608:	e2801015 	add	r1, r0, #21
    a60c:	e280000e 	add	r0, r0, #14
    a610:	e1a01132 	lsr	r1, r2, r1
    a614:	e001100c 	and	r1, r1, ip
    a618:	e0811c10 	add	r1, r1, r0, lsl ip
    a61c:	e281404c 	add	r4, r1, #76	; 0x4c
    a620:	e1a0c11c 	lsl	ip, ip, r1
    a624:	e1a05104 	lsl	r5, r4, #2
    a628:	eaffff8d 	b	a464 <free+0x2c8>
    a62c:	e5934014 	ldr	r4, [r3, #20]
    a630:	e3540000 	cmp	r4, #0
    a634:	12830014 	addne	r0, r3, #20
    a638:	0a000086 	beq	a858 <free+0x6bc>
    a63c:	e1a05000 	mov	r5, r0
    a640:	e1a00004 	mov	r0, r4
    a644:	e1a01004 	mov	r1, r4
    a648:	e5b04014 	ldr	r4, [r0, #20]!
    a64c:	e3540000 	cmp	r4, #0
    a650:	1afffff9 	bne	a63c <free+0x4a0>
    a654:	e1a00001 	mov	r0, r1
    a658:	e5b04010 	ldr	r4, [r0, #16]!
    a65c:	e3540000 	cmp	r4, #0
    a660:	1afffff5 	bne	a63c <free+0x4a0>
    a664:	e15e0005 	cmp	lr, r5
    a668:	8affff74 	bhi	a440 <free+0x2a4>
    a66c:	e5854000 	str	r4, [r5]
    a670:	eaffffa0 	b	a4f8 <free+0x35c>
    a674:	e15e0004 	cmp	lr, r4
    a678:	8affff70 	bhi	a440 <free+0x2a4>
    a67c:	e594600c 	ldr	r6, [r4, #12]
    a680:	e1560003 	cmp	r6, r3
    a684:	0affff15 	beq	a2e0 <free+0x144>
    a688:	eaffff6c 	b	a440 <free+0x2a4>
    a68c:	e351001f 	cmp	r1, #31
    a690:	e790c104 	ldr	ip, [r0, r4, lsl #2]
    a694:	11a000a1 	lsrne	r0, r1, #1
    a698:	01a00002 	moveq	r0, r2
    a69c:	12600019 	rsbne	r0, r0, #25
    a6a0:	11a00012 	lslne	r0, r2, r0
    a6a4:	ea000006 	b	a6c4 <free+0x528>
    a6a8:	e1a01fa0 	lsr	r1, r0, #31
    a6ac:	e1a00080 	lsl	r0, r0, #1
    a6b0:	e2811004 	add	r1, r1, #4
    a6b4:	e79ce101 	ldr	lr, [ip, r1, lsl #2]
    a6b8:	e35e0000 	cmp	lr, #0
    a6bc:	0a000036 	beq	a79c <free+0x600>
    a6c0:	e1a0c00e 	mov	ip, lr
    a6c4:	e59c1004 	ldr	r1, [ip, #4]
    a6c8:	e3c11007 	bic	r1, r1, #7
    a6cc:	e1510002 	cmp	r1, r2
    a6d0:	1afffff4 	bne	a6a8 <free+0x50c>
    a6d4:	e59f22bc 	ldr	r2, [pc, #700]	; a998 <free+0x7fc>
    a6d8:	e59c1008 	ldr	r1, [ip, #8]
    a6dc:	e08f2002 	add	r2, pc, r2
    a6e0:	e5922010 	ldr	r2, [r2, #16]
    a6e4:	e1520001 	cmp	r2, r1
    a6e8:	9152000c 	cmpls	r2, ip
    a6ec:	8affff53 	bhi	a440 <free+0x2a4>
    a6f0:	e581300c 	str	r3, [r1, #12]
    a6f4:	e3a02000 	mov	r2, #0
    a6f8:	e58c3008 	str	r3, [ip, #8]
    a6fc:	e5831008 	str	r1, [r3, #8]
    a700:	e583c00c 	str	ip, [r3, #12]
    a704:	e5832018 	str	r2, [r3, #24]
    a708:	eaffff65 	b	a4a4 <free+0x308>
    a70c:	e594100c 	ldr	r1, [r4, #12]
    a710:	e1530005 	cmp	r3, r5
    a714:	e5843018 	str	r3, [r4, #24]
    a718:	e0822001 	add	r2, r2, r1
    a71c:	e584200c 	str	r2, [r4, #12]
    a720:	e3821001 	orr	r1, r2, #1
    a724:	e5831004 	str	r1, [r3, #4]
    a728:	e59f326c 	ldr	r3, [pc, #620]	; a99c <free+0x800>
    a72c:	05840014 	streq	r0, [r4, #20]
    a730:	e08f3003 	add	r3, pc, r3
    a734:	05840008 	streq	r0, [r4, #8]
    a738:	e593301c 	ldr	r3, [r3, #28]
    a73c:	e1520003 	cmp	r2, r3
    a740:	98bd81f0 	popls	{r4, r5, r6, r7, r8, pc}
    a744:	e3a00000 	mov	r0, #0
    a748:	e8bd41f0 	pop	{r4, r5, r6, r7, r8, lr}
    a74c:	eafff76b 	b	8500 <sys_trim.constprop.7>
    a750:	e59c0004 	ldr	r0, [ip, #4]
    a754:	e2005003 	and	r5, r0, #3
    a758:	e3550003 	cmp	r5, #3
    a75c:	1afffe9f 	bne	a1e0 <free+0x44>
    a760:	e5842008 	str	r2, [r4, #8]
    a764:	e3c00001 	bic	r0, r0, #1
    a768:	e3823001 	orr	r3, r2, #1
    a76c:	e58c0004 	str	r0, [ip, #4]
    a770:	e5813004 	str	r3, [r1, #4]
    a774:	e58c2000 	str	r2, [ip]
    a778:	e8bd81f0 	pop	{r4, r5, r6, r7, r8, pc}
    a77c:	e5941008 	ldr	r1, [r4, #8]
    a780:	e5843014 	str	r3, [r4, #20]
    a784:	e0822001 	add	r2, r2, r1
    a788:	e5842008 	str	r2, [r4, #8]
    a78c:	e3821001 	orr	r1, r2, #1
    a790:	e5831004 	str	r1, [r3, #4]
    a794:	e7832002 	str	r2, [r3, r2]
    a798:	e8bd81f0 	pop	{r4, r5, r6, r7, r8, pc}
    a79c:	e59f01fc 	ldr	r0, [pc, #508]	; a9a0 <free+0x804>
    a7a0:	e08c2101 	add	r2, ip, r1, lsl #2
    a7a4:	e08f0000 	add	r0, pc, r0
    a7a8:	e5900010 	ldr	r0, [r0, #16]
    a7ac:	e1500002 	cmp	r0, r2
    a7b0:	8affff22 	bhi	a440 <free+0x2a4>
    a7b4:	e78c3101 	str	r3, [ip, r1, lsl #2]
    a7b8:	e583c018 	str	ip, [r3, #24]
    a7bc:	e583300c 	str	r3, [r3, #12]
    a7c0:	e5833008 	str	r3, [r3, #8]
    a7c4:	eaffff36 	b	a4a4 <free+0x308>
    a7c8:	e59f01d4 	ldr	r0, [pc, #468]	; a9a4 <free+0x808>
    a7cc:	e3a04001 	mov	r4, #1
    a7d0:	e08f0000 	add	r0, pc, r0
    a7d4:	e5901000 	ldr	r1, [r0]
    a7d8:	e1c15514 	bic	r5, r1, r4, lsl r5
    a7dc:	e5805000 	str	r5, [r0]
    a7e0:	eafffe7e 	b	a1e0 <free+0x44>
    a7e4:	e59c4014 	ldr	r4, [ip, #20]
    a7e8:	e3540000 	cmp	r4, #0
    a7ec:	128c1014 	addne	r1, ip, #20
    a7f0:	0a000027 	beq	a894 <free+0x6f8>
    a7f4:	e1a05001 	mov	r5, r1
    a7f8:	e1a01004 	mov	r1, r4
    a7fc:	e1a00004 	mov	r0, r4
    a800:	e5b14014 	ldr	r4, [r1, #20]!
    a804:	e3540000 	cmp	r4, #0
    a808:	1afffff9 	bne	a7f4 <free+0x658>
    a80c:	e1a01000 	mov	r1, r0
    a810:	e5b14010 	ldr	r4, [r1, #16]!
    a814:	e3540000 	cmp	r4, #0
    a818:	1afffff5 	bne	a7f4 <free+0x658>
    a81c:	e15e0005 	cmp	lr, r5
    a820:	8affff06 	bhi	a440 <free+0x2a4>
    a824:	e5854000 	str	r4, [r5]
    a828:	eafffed1 	b	a374 <free+0x1d8>
    a82c:	e59fc174 	ldr	ip, [pc, #372]	; a9a8 <free+0x80c>
    a830:	e3a0e001 	mov	lr, #1
    a834:	e08fc00c 	add	ip, pc, ip
    a838:	e59c0000 	ldr	r0, [ip]
    a83c:	e1c0111e 	bic	r1, r0, lr, lsl r1
    a840:	e58c1000 	str	r1, [ip]
    a844:	eafffef0 	b	a40c <free+0x270>
    a848:	e59f115c 	ldr	r1, [pc, #348]	; a9ac <free+0x810>
    a84c:	e08f1001 	add	r1, pc, r1
    a850:	e5915014 	ldr	r5, [r1, #20]
    a854:	eafffeec 	b	a40c <free+0x270>
    a858:	e5934010 	ldr	r4, [r3, #16]
    a85c:	e3540000 	cmp	r4, #0
    a860:	0a000020 	beq	a8e8 <free+0x74c>
    a864:	e2830010 	add	r0, r3, #16
    a868:	eaffff73 	b	a63c <free+0x4a0>
    a86c:	e59f113c 	ldr	r1, [pc, #316]	; a9b0 <free+0x814>
    a870:	e08f1001 	add	r1, pc, r1
    a874:	e5915014 	ldr	r5, [r1, #20]
    a878:	eafffee3 	b	a40c <free+0x270>
    a87c:	e15e0006 	cmp	lr, r6
    a880:	8afffeee 	bhi	a440 <free+0x2a4>
    a884:	e596700c 	ldr	r7, [r6, #12]
    a888:	e157000c 	cmp	r7, ip
    a88c:	0affff46 	beq	a5ac <free+0x410>
    a890:	eafffeea 	b	a440 <free+0x2a4>
    a894:	e59c4010 	ldr	r4, [ip, #16]
    a898:	e3540000 	cmp	r4, #0
    a89c:	0a000021 	beq	a928 <free+0x78c>
    a8a0:	e28c1010 	add	r1, ip, #16
    a8a4:	eaffffd2 	b	a7f4 <free+0x658>
    a8a8:	e59f1104 	ldr	r1, [pc, #260]	; a9b4 <free+0x818>
    a8ac:	e08f1001 	add	r1, pc, r1
    a8b0:	e5915014 	ldr	r5, [r1, #20]
    a8b4:	eafffed4 	b	a40c <free+0x270>
    a8b8:	e15e0001 	cmp	lr, r1
    a8bc:	8afffedf 	bhi	a440 <free+0x2a4>
    a8c0:	e5910008 	ldr	r0, [r1, #8]
    a8c4:	e1500003 	cmp	r0, r3
    a8c8:	0afffe88 	beq	a2f0 <free+0x154>
    a8cc:	eafffedb 	b	a440 <free+0x2a4>
    a8d0:	e15e0000 	cmp	lr, r0
    a8d4:	8afffed9 	bhi	a440 <free+0x2a4>
    a8d8:	e5901008 	ldr	r1, [r0, #8]
    a8dc:	e151000c 	cmp	r1, ip
    a8e0:	0affff35 	beq	a5bc <free+0x420>
    a8e4:	eafffed5 	b	a440 <free+0x2a4>
    a8e8:	e3560000 	cmp	r6, #0
    a8ec:	0afffe3b 	beq	a1e0 <free+0x44>
    a8f0:	e593501c 	ldr	r5, [r3, #28]
    a8f4:	e59f10bc 	ldr	r1, [pc, #188]	; a9b8 <free+0x81c>
    a8f8:	e285704c 	add	r7, r5, #76	; 0x4c
    a8fc:	e08f1001 	add	r1, pc, r1
    a900:	e7910107 	ldr	r0, [r1, r7, lsl #2]
    a904:	e1500003 	cmp	r0, r3
    a908:	11a01004 	movne	r1, r4
    a90c:	1affff03 	bne	a520 <free+0x384>
    a910:	e5910004 	ldr	r0, [r1, #4]
    a914:	e3a06001 	mov	r6, #1
    a918:	e7814107 	str	r4, [r1, r7, lsl #2]
    a91c:	e1c00516 	bic	r0, r0, r6, lsl r5
    a920:	e5810004 	str	r0, [r1, #4]
    a924:	eafffe2d 	b	a1e0 <free+0x44>
    a928:	e3560000 	cmp	r6, #0
    a92c:	0afffeb6 	beq	a40c <free+0x270>
    a930:	e59c401c 	ldr	r4, [ip, #28]
    a934:	e59f1080 	ldr	r1, [pc, #128]	; a9bc <free+0x820>
    a938:	e284504c 	add	r5, r4, #76	; 0x4c
    a93c:	e08f1001 	add	r1, pc, r1
    a940:	e7910105 	ldr	r0, [r1, r5, lsl #2]
    a944:	e150000c 	cmp	r0, ip
    a948:	13a00000 	movne	r0, #0
    a94c:	1afffe92 	bne	a39c <free+0x200>
    a950:	e5910004 	ldr	r0, [r1, #4]
    a954:	e3a0c001 	mov	ip, #1
    a958:	e3a0e000 	mov	lr, #0
    a95c:	e781e105 	str	lr, [r1, r5, lsl #2]
    a960:	e5915014 	ldr	r5, [r1, #20]
    a964:	e1c0041c 	bic	r0, r0, ip, lsl r4
    a968:	e5810004 	str	r0, [r1, #4]
    a96c:	eafffea6 	b	a40c <free+0x270>
    a970:	00002f28 	.word	0x00002f28
    a974:	00002eb4 	.word	0x00002eb4
    a978:	00002e0c 	.word	0x00002e0c
    a97c:	00002dd0 	.word	0x00002dd0
    a980:	00002d50 	.word	0x00002d50
    a984:	00002cd8 	.word	0x00002cd8
    a988:	00002cb4 	.word	0x00002cb4
    a98c:	00002c68 	.word	0x00002c68
    a990:	00002c30 	.word	0x00002c30
    a994:	00002bcc 	.word	0x00002bcc
    a998:	000029fc 	.word	0x000029fc
    a99c:	000029a8 	.word	0x000029a8
    a9a0:	00002934 	.word	0x00002934
    a9a4:	00002908 	.word	0x00002908
    a9a8:	000028a4 	.word	0x000028a4
    a9ac:	0000288c 	.word	0x0000288c
    a9b0:	00002868 	.word	0x00002868
    a9b4:	0000282c 	.word	0x0000282c
    a9b8:	000027dc 	.word	0x000027dc
    a9bc:	0000279c 	.word	0x0000279c

0000a9c0 <_stdio_fgetc>:
    a9c0:	e3a000ff 	mov	r0, #255	; 0xff
    a9c4:	e12fff1e 	bx	lr

0000a9c8 <_stdio_vfprintf>:
    a9c8:	e1a03002 	mov	r3, r2
    a9cc:	e1a02001 	mov	r2, r1
    a9d0:	e1a01000 	mov	r1, r0
    a9d4:	e59f0004 	ldr	r0, [pc, #4]	; a9e0 <_stdio_vfprintf+0x18>
    a9d8:	e08f0000 	add	r0, pc, r0
    a9dc:	ea00034f 	b	b720 <_printf_engine>
    a9e0:	000000c0 	.word	0x000000c0

0000a9e4 <_stdio_fputc>:
    a9e4:	e92d4010 	push	{r4, lr}
    a9e8:	e6ef1071 	uxtb	r1, r1
    a9ec:	e8900011 	ldm	r0, {r0, r4}
    a9f0:	e5943080 	ldr	r3, [r4, #128]	; 0x80
    a9f4:	e2832001 	add	r2, r3, #1
    a9f8:	e5842080 	str	r2, [r4, #128]	; 0x80
    a9fc:	e351000a 	cmp	r1, #10
    aa00:	13520080 	cmpne	r2, #128	; 0x80
    aa04:	e7c41003 	strb	r1, [r4, r3]
    aa08:	1a000003 	bne	aa1c <_stdio_fputc+0x38>
    aa0c:	e1a01004 	mov	r1, r4
    aa10:	eb000092 	bl	ac60 <write>
    aa14:	e3a03000 	mov	r3, #0
    aa18:	e5843080 	str	r3, [r4, #128]	; 0x80
    aa1c:	e3e00102 	mvn	r0, #-2147483648	; 0x80000000
    aa20:	e8bd8010 	pop	{r4, pc}

0000aa24 <buffered_write.part.0>:
    aa24:	e92d47f0 	push	{r4, r5, r6, r7, r8, r9, sl, lr}
    aa28:	e2528000 	subs	r8, r2, #0
    aa2c:	0a000019 	beq	aa98 <buffered_write.part.0+0x74>
    aa30:	e2489001 	sub	r9, r8, #1
    aa34:	e1a06000 	mov	r6, r0
    aa38:	e2415001 	sub	r5, r1, #1
    aa3c:	e0819009 	add	r9, r1, r9
    aa40:	e3a07000 	mov	r7, #0
    aa44:	ea000001 	b	aa50 <buffered_write.part.0+0x2c>
    aa48:	e1550009 	cmp	r5, r9
    aa4c:	0a000011 	beq	aa98 <buffered_write.part.0+0x74>
    aa50:	e5964004 	ldr	r4, [r6, #4]
    aa54:	e5f5e001 	ldrb	lr, [r5, #1]!
    aa58:	e5960000 	ldr	r0, [r6]
    aa5c:	e1a01004 	mov	r1, r4
    aa60:	e594c080 	ldr	ip, [r4, #128]	; 0x80
    aa64:	e28c3001 	add	r3, ip, #1
    aa68:	e5843080 	str	r3, [r4, #128]	; 0x80
    aa6c:	e1a02003 	mov	r2, r3
    aa70:	e35e000a 	cmp	lr, #10
    aa74:	13530080 	cmpne	r3, #128	; 0x80
    aa78:	e7c4e00c 	strb	lr, [r4, ip]
    aa7c:	1afffff1 	bne	aa48 <buffered_write.part.0+0x24>
    aa80:	eb000076 	bl	ac60 <write>
    aa84:	e3500000 	cmp	r0, #0
    aa88:	e5847080 	str	r7, [r4, #128]	; 0x80
    aa8c:	b8bd87f0 	poplt	{r4, r5, r6, r7, r8, r9, sl, pc}
    aa90:	e1550009 	cmp	r5, r9
    aa94:	1affffed 	bne	aa50 <buffered_write.part.0+0x2c>
    aa98:	e1a00008 	mov	r0, r8
    aa9c:	e8bd87f0 	pop	{r4, r5, r6, r7, r8, r9, sl, pc}

0000aaa0 <_output_func>:
    aaa0:	e92d4070 	push	{r4, r5, r6, lr}
    aaa4:	e1a04002 	mov	r4, r2
    aaa8:	e1a05000 	mov	r5, r0
    aaac:	eb0005c1 	bl	c1b8 <strnlen>
    aab0:	e5943004 	ldr	r3, [r4, #4]
    aab4:	e3530000 	cmp	r3, #0
    aab8:	0a000004 	beq	aad0 <_output_func+0x30>
    aabc:	e1a02000 	mov	r2, r0
    aac0:	e1a01005 	mov	r1, r5
    aac4:	e1a00004 	mov	r0, r4
    aac8:	e8bd4070 	pop	{r4, r5, r6, lr}
    aacc:	eaffffd4 	b	aa24 <buffered_write.part.0>
    aad0:	e3e00007 	mvn	r0, #7
    aad4:	e8bd8070 	pop	{r4, r5, r6, pc}

0000aad8 <_stdio_fputs>:
    aad8:	e92d4070 	push	{r4, r5, r6, lr}
    aadc:	e1a04000 	mov	r4, r0
    aae0:	e1a00001 	mov	r0, r1
    aae4:	e1a05001 	mov	r5, r1
    aae8:	eb0005a6 	bl	c188 <strlen>
    aaec:	e5943004 	ldr	r3, [r4, #4]
    aaf0:	e3530000 	cmp	r3, #0
    aaf4:	0a000004 	beq	ab0c <_stdio_fputs+0x34>
    aaf8:	e1a02000 	mov	r2, r0
    aafc:	e1a01005 	mov	r1, r5
    ab00:	e1a00004 	mov	r0, r4
    ab04:	e8bd4070 	pop	{r4, r5, r6, lr}
    ab08:	eaffffc5 	b	aa24 <buffered_write.part.0>
    ab0c:	e3e00007 	mvn	r0, #7
    ab10:	e8bd8070 	pop	{r4, r5, r6, pc}

0000ab14 <__libc_fini>:
    ab14:	e92d4070 	push	{r4, r5, r6, lr}
    ab18:	e2505000 	subs	r5, r0, #0
    ab1c:	08bd8070 	popeq	{r4, r5, r6, pc}
    ab20:	e5953000 	ldr	r3, [r5]
    ab24:	e3730001 	cmn	r3, #1
    ab28:	18bd8070 	popne	{r4, r5, r6, pc}
    ab2c:	e5952004 	ldr	r2, [r5, #4]
    ab30:	e2853004 	add	r3, r5, #4
    ab34:	e3520000 	cmp	r2, #0
    ab38:	08bd8070 	popeq	{r4, r5, r6, pc}
    ab3c:	e3a04000 	mov	r4, #0
    ab40:	e5b32004 	ldr	r2, [r3, #4]!
    ab44:	e2844001 	add	r4, r4, #1
    ab48:	e3520000 	cmp	r2, #0
    ab4c:	1afffffb 	bne	ab40 <__libc_fini+0x2c>
    ab50:	e0854104 	add	r4, r5, r4, lsl #2
    ab54:	e4143004 	ldr	r3, [r4], #-4
    ab58:	e3730001 	cmn	r3, #1
    ab5c:	0a000000 	beq	ab64 <__libc_fini+0x50>
    ab60:	e12fff33 	blx	r3
    ab64:	e1550004 	cmp	r5, r4
    ab68:	1afffff9 	bne	ab54 <__libc_fini+0x40>
    ab6c:	e8bd8070 	pop	{r4, r5, r6, pc}

0000ab70 <__libc_init>:
    ab70:	e5923000 	ldr	r3, [r2]
    ab74:	e1a05002 	mov	r5, r2
    ab78:	e92d4010 	push	{r4, lr}
    ab7c:	e1a06001 	mov	r6, r1
    ab80:	e2834004 	add	r4, r3, #4
    ab84:	e5933004 	ldr	r3, [r3, #4]
    ab88:	e3530000 	cmp	r3, #0
    ab8c:	0a000003 	beq	aba0 <__libc_init+0x30>
    ab90:	e12fff33 	blx	r3
    ab94:	e5b43004 	ldr	r3, [r4, #4]!
    ab98:	e3530000 	cmp	r3, #0
    ab9c:	1afffffb 	bne	ab90 <__libc_init+0x20>
    aba0:	e5953004 	ldr	r3, [r5, #4]
    aba4:	e2834004 	add	r4, r3, #4
    aba8:	e5933004 	ldr	r3, [r3, #4]
    abac:	e3530000 	cmp	r3, #0
    abb0:	0a000003 	beq	abc4 <__libc_init+0x54>
    abb4:	e12fff33 	blx	r3
    abb8:	e5b43004 	ldr	r3, [r4, #4]!
    abbc:	e3530000 	cmp	r3, #0
    abc0:	1afffffb 	bne	abb4 <__libc_init+0x44>
    abc4:	e5951008 	ldr	r1, [r5, #8]
    abc8:	e3510000 	cmp	r1, #0
    abcc:	1a000004 	bne	abe4 <__libc_init+0x74>
    abd0:	e3a02000 	mov	r2, #0
    abd4:	e1a01002 	mov	r1, r2
    abd8:	e1a00002 	mov	r0, r2
    abdc:	e12fff36 	blx	r6
    abe0:	ebfff506 	bl	8000 <exit>
    abe4:	e59f0018 	ldr	r0, [pc, #24]	; ac04 <__libc_init+0x94>
    abe8:	e08f0000 	add	r0, pc, r0
    abec:	ebfff592 	bl	823c <__cxa_atexit>
    abf0:	e3500000 	cmp	r0, #0
    abf4:	0afffff5 	beq	abd0 <__libc_init+0x60>
    abf8:	e59f0008 	ldr	r0, [pc, #8]	; ac08 <__libc_init+0x98>
    abfc:	e08f0000 	add	r0, pc, r0
    ac00:	eb000001 	bl	ac0c <__libc_fatal>
    ac04:	ffffff24 	.word	0xffffff24
    ac08:	00001d24 	.word	0x00001d24

0000ac0c <__libc_fatal>:
    ac0c:	e92d000f 	push	{r0, r1, r2, r3}
    ac10:	e59f303c 	ldr	r3, [pc, #60]	; ac54 <__libc_fatal+0x48>
    ac14:	e59fc03c 	ldr	ip, [pc, #60]	; ac58 <__libc_fatal+0x4c>
    ac18:	e08f3003 	add	r3, pc, r3
    ac1c:	e52de004 	push	{lr}		; (str lr, [sp, #-4]!)
    ac20:	e59f0034 	ldr	r0, [pc, #52]	; ac5c <__libc_fatal+0x50>
    ac24:	e24dd00c 	sub	sp, sp, #12
    ac28:	e793c00c 	ldr	ip, [r3, ip]
    ac2c:	e28de014 	add	lr, sp, #20
    ac30:	e1a0200e 	mov	r2, lr
    ac34:	e58de000 	str	lr, [sp]
    ac38:	e59cc000 	ldr	ip, [ip]
    ac3c:	e58dc004 	str	ip, [sp, #4]
    ac40:	e59d1010 	ldr	r1, [sp, #16]
    ac44:	e7930000 	ldr	r0, [r3, r0]
    ac48:	e2800028 	add	r0, r0, #40	; 0x28
    ac4c:	eb0004f5 	bl	c028 <vfprintf>
    ac50:	ebfff576 	bl	8230 <abort>
    ac54:	000023fc 	.word	0x000023fc
    ac58:	0000000c 	.word	0x0000000c
    ac5c:	00000010 	.word	0x00000010

0000ac60 <write>:
    ac60:	e3a0c001 	mov	ip, #1
    ac64:	ef000000 	svc	0x00000000
    ac68:	e12fff1e 	bx	lr

0000ac6c <brk>:
    ac6c:	e3a0c002 	mov	ip, #2
    ac70:	ef000000 	svc	0x00000000
    ac74:	e12fff1e 	bx	lr

0000ac78 <exit_group>:
    ac78:	e3a0c003 	mov	ip, #3
    ac7c:	ef000000 	svc	0x00000000
    ac80:	e12fff1e 	bx	lr

0000ac84 <port_create>:
    ac84:	e3a0c010 	mov	ip, #16
    ac88:	ef000000 	svc	0x00000000
    ac8c:	e12fff1e 	bx	lr

0000ac90 <connect>:
    ac90:	e3a0c011 	mov	ip, #17
    ac94:	ef000000 	svc	0x00000000
    ac98:	e12fff1e 	bx	lr

0000ac9c <longlong_to_string>:
    ac9c:	e92d4ff8 	push	{r3, r4, r5, r6, r7, r8, r9, sl, fp, lr}
    aca0:	e1a08000 	mov	r8, r0
    aca4:	e59d902c 	ldr	r9, [sp, #44]	; 0x2c
    aca8:	e1a04002 	mov	r4, r2
    acac:	e1a05003 	mov	r5, r3
    acb0:	e219ab01 	ands	sl, r9, #1024	; 0x400
    acb4:	e59d7028 	ldr	r7, [sp, #40]	; 0x28
    acb8:	0a000003 	beq	accc <longlong_to_string+0x30>
    acbc:	e3520000 	cmp	r2, #0
    acc0:	e2d53000 	sbcs	r3, r5, #0
    acc4:	a3a0a000 	movge	sl, #0
    acc8:	ba000030 	blt	ad90 <longlong_to_string+0xf4>
    accc:	e2477001 	sub	r7, r7, #1
    acd0:	e3550000 	cmp	r5, #0
    acd4:	e3a03000 	mov	r3, #0
    acd8:	03540009 	cmpeq	r4, #9
    acdc:	e088b007 	add	fp, r8, r7
    ace0:	e7c83007 	strb	r3, [r8, r7]
    ace4:	9a000012 	bls	ad34 <longlong_to_string+0x98>
    ace8:	e1a00004 	mov	r0, r4
    acec:	e1a01005 	mov	r1, r5
    acf0:	e3a0200a 	mov	r2, #10
    acf4:	e3a03000 	mov	r3, #0
    acf8:	fa000623 	blx	c58c <__aeabi_uldivmod>
    acfc:	e1a00004 	mov	r0, r4
    ad00:	e1a06002 	mov	r6, r2
    ad04:	e1a01005 	mov	r1, r5
    ad08:	e3a0200a 	mov	r2, #10
    ad0c:	e3a03000 	mov	r3, #0
    ad10:	fa00061d 	blx	c58c <__aeabi_uldivmod>
    ad14:	e3510000 	cmp	r1, #0
    ad18:	e2866030 	add	r6, r6, #48	; 0x30
    ad1c:	e1a04000 	mov	r4, r0
    ad20:	e1a05001 	mov	r5, r1
    ad24:	e2477001 	sub	r7, r7, #1
    ad28:	03500009 	cmpeq	r0, #9
    ad2c:	e56b6001 	strb	r6, [fp, #-1]!
    ad30:	8affffec 	bhi	ace8 <longlong_to_string+0x4c>
    ad34:	e2477001 	sub	r7, r7, #1
    ad38:	e2844030 	add	r4, r4, #48	; 0x30
    ad3c:	e0880007 	add	r0, r8, r7
    ad40:	e35a0000 	cmp	sl, #0
    ad44:	e7c84007 	strb	r4, [r8, r7]
    ad48:	1a00000c 	bne	ad80 <longlong_to_string+0xe4>
    ad4c:	e3190c02 	tst	r9, #512	; 0x200
    ad50:	1a000006 	bne	ad70 <longlong_to_string+0xd4>
    ad54:	e3190a02 	tst	r9, #8192	; 0x2000
    ad58:	13a03020 	movne	r3, #32
    ad5c:	159d2030 	ldrne	r2, [sp, #48]	; 0x30
    ad60:	059d3030 	ldreq	r3, [sp, #48]	; 0x30
    ad64:	15c23000 	strbne	r3, [r2]
    ad68:	05c3a000 	strbeq	sl, [r3]
    ad6c:	e8bd8ff8 	pop	{r3, r4, r5, r6, r7, r8, r9, sl, fp, pc}
    ad70:	e59d2030 	ldr	r2, [sp, #48]	; 0x30
    ad74:	e3a0302b 	mov	r3, #43	; 0x2b
    ad78:	e5c23000 	strb	r3, [r2]
    ad7c:	e8bd8ff8 	pop	{r3, r4, r5, r6, r7, r8, r9, sl, fp, pc}
    ad80:	e59d2030 	ldr	r2, [sp, #48]	; 0x30
    ad84:	e3a0302d 	mov	r3, #45	; 0x2d
    ad88:	e5c23000 	strb	r3, [r2]
    ad8c:	e8bd8ff8 	pop	{r3, r4, r5, r6, r7, r8, r9, sl, fp, pc}
    ad90:	e2724000 	rsbs	r4, r2, #0
    ad94:	e3a0a001 	mov	sl, #1
    ad98:	e2e55000 	rsc	r5, r5, #0
    ad9c:	eaffffca 	b	accc <longlong_to_string+0x30>

0000ada0 <exponent_to_string>:
    ada0:	e3510000 	cmp	r1, #0
    ada4:	e92d40f0 	push	{r4, r5, r6, r7, lr}
    ada8:	b2611000 	rsblt	r1, r1, #0
    adac:	b3a0302d 	movlt	r3, #45	; 0x2d
    adb0:	a3a0302b 	movge	r3, #43	; 0x2b
    adb4:	e3510ffa 	cmp	r1, #1000	; 0x3e8
    adb8:	e1a0e000 	mov	lr, r0
    adbc:	e5c03000 	strb	r3, [r0]
    adc0:	a3a00005 	movge	r0, #5
    adc4:	aa000002 	bge	add4 <exponent_to_string+0x34>
    adc8:	e3510063 	cmp	r1, #99	; 0x63
    adcc:	c3a00004 	movgt	r0, #4
    add0:	da00000f 	ble	ae14 <exponent_to_string+0x74>
    add4:	e30c5ccd 	movw	r5, #52429	; 0xcccd
    add8:	e34c5ccc 	movt	r5, #52428	; 0xcccc
    addc:	e3064667 	movw	r4, #26215	; 0x6667
    ade0:	e3464666 	movt	r4, #26214	; 0x6666
    ade4:	e08ee000 	add	lr, lr, r0
    ade8:	e3a0600a 	mov	r6, #10
    adec:	e0832195 	umull	r2, r3, r5, r1
    adf0:	e1a02fc1 	asr	r2, r1, #31
    adf4:	e0cc7194 	smull	r7, ip, r4, r1
    adf8:	e1a031a3 	lsr	r3, r3, #3
    adfc:	e0631396 	mls	r3, r6, r3, r1
    ae00:	e072114c 	rsbs	r1, r2, ip, asr #2
    ae04:	e2833030 	add	r3, r3, #48	; 0x30
    ae08:	e56e3001 	strb	r3, [lr, #-1]!
    ae0c:	1afffff6 	bne	adec <exponent_to_string+0x4c>
    ae10:	e8bd80f0 	pop	{r4, r5, r6, r7, pc}
    ae14:	e3510009 	cmp	r1, #9
    ae18:	c3a00003 	movgt	r0, #3
    ae1c:	d3a00002 	movle	r0, #2
    ae20:	eaffffeb 	b	add4 <exponent_to_string+0x34>

0000ae24 <double_to_hexstring.isra.0>:
    ae24:	ec532b10 	vmov	r2, r3, d0
    ae28:	e92d4ff0 	push	{r4, r5, r6, r7, r8, r9, sl, fp, lr}
    ae2c:	e201bc01 	and	fp, r1, #256	; 0x100
    ae30:	e24dd014 	sub	sp, sp, #20
    ae34:	e30017ff 	movw	r1, #2047	; 0x7ff
    ae38:	e1a05000 	mov	r5, r0
    ae3c:	e1a09003 	mov	r9, r3
    ae40:	e2526000 	subs	r6, r2, #0
    ae44:	e2d33000 	sbcs	r3, r3, #0
    ae48:	e7ea2a59 	ubfx	r2, r9, #20, #11
    ae4c:	b3a0302d 	movlt	r3, #45	; 0x2d
    ae50:	a3a03000 	movge	r3, #0
    ae54:	b5c03000 	strblt	r3, [r0]
    ae58:	e7f37059 	ubfx	r7, r9, #0, #20
    ae5c:	b3a03001 	movlt	r3, #1
    ae60:	e1520001 	cmp	r2, r1
    ae64:	0a000073 	beq	b038 <double_to_hexstring.isra.0+0x214>
    ae68:	e3520000 	cmp	r2, #0
    ae6c:	1a000019 	bne	aed8 <double_to_hexstring.isra.0+0xb4>
    ae70:	e1962007 	orrs	r2, r6, r7
    ae74:	0a0000ab 	beq	b128 <double_to_hexstring.isra.0+0x304>
    ae78:	e35b0000 	cmp	fp, #0
    ae7c:	1a0000e1 	bne	b208 <double_to_hexstring.isra.0+0x3e4>
    ae80:	e0800003 	add	r0, r0, r3
    ae84:	e59f13f8 	ldr	r1, [pc, #1016]	; b284 <double_to_hexstring.isra.0+0x460>
    ae88:	e3a02065 	mov	r2, #101	; 0x65
    ae8c:	e3a0c064 	mov	ip, #100	; 0x64
    ae90:	e08f1001 	add	r1, pc, r1
    ae94:	e2833001 	add	r3, r3, #1
    ae98:	e2811001 	add	r1, r1, #1
    ae9c:	e4c0c001 	strb	ip, [r0], #1
    aea0:	e3520000 	cmp	r2, #0
    aea4:	0a000005 	beq	aec0 <double_to_hexstring.isra.0+0x9c>
    aea8:	e1a0c002 	mov	ip, r2
    aeac:	e5f12001 	ldrb	r2, [r1, #1]!
    aeb0:	e2833001 	add	r3, r3, #1
    aeb4:	e4c0c001 	strb	ip, [r0], #1
    aeb8:	e3520000 	cmp	r2, #0
    aebc:	1afffff9 	bne	aea8 <double_to_hexstring.isra.0+0x84>
    aec0:	e0853003 	add	r3, r5, r3
    aec4:	e1a00005 	mov	r0, r5
    aec8:	e3a02000 	mov	r2, #0
    aecc:	e5c32000 	strb	r2, [r3]
    aed0:	e28dd014 	add	sp, sp, #20
    aed4:	e8bd8ff0 	pop	{r4, r5, r6, r7, r8, r9, sl, fp, pc}
    aed8:	e2422fff 	sub	r2, r2, #1020	; 0x3fc
    aedc:	e35b0000 	cmp	fp, #0
    aee0:	e2422003 	sub	r2, r2, #3
    aee4:	e58d2008 	str	r2, [sp, #8]
    aee8:	0a00007a 	beq	b0d8 <double_to_hexstring.isra.0+0x2b4>
    aeec:	e0800003 	add	r0, r0, r3
    aef0:	e59f2390 	ldr	r2, [pc, #912]	; b288 <double_to_hexstring.isra.0+0x464>
    aef4:	e3a01058 	mov	r1, #88	; 0x58
    aef8:	e3a0c030 	mov	ip, #48	; 0x30
    aefc:	e08f2002 	add	r2, pc, r2
    af00:	e2833001 	add	r3, r3, #1
    af04:	e2822001 	add	r2, r2, #1
    af08:	e4c0c001 	strb	ip, [r0], #1
    af0c:	e3510000 	cmp	r1, #0
    af10:	0a000005 	beq	af2c <double_to_hexstring.isra.0+0x108>
    af14:	e1a0c001 	mov	ip, r1
    af18:	e5f21001 	ldrb	r1, [r2, #1]!
    af1c:	e2833001 	add	r3, r3, #1
    af20:	e4c0c001 	strb	ip, [r0], #1
    af24:	e3510000 	cmp	r1, #0
    af28:	1afffff9 	bne	af14 <double_to_hexstring.isra.0+0xf0>
    af2c:	e59f2358 	ldr	r2, [pc, #856]	; b28c <double_to_hexstring.isra.0+0x468>
    af30:	e08f2002 	add	r2, pc, r2
    af34:	e58d2004 	str	r2, [sp, #4]
    af38:	e3a0a000 	mov	sl, #0
    af3c:	e3a01030 	mov	r1, #48	; 0x30
    af40:	e1a0c00a 	mov	ip, sl
    af44:	e1a0e001 	mov	lr, r1
    af48:	e58db00c 	str	fp, [sp, #12]
    af4c:	ea000002 	b	af5c <double_to_hexstring.isra.0+0x138>
    af50:	e2411004 	sub	r1, r1, #4
    af54:	e3710004 	cmn	r1, #4
    af58:	0a00002d 	beq	b014 <double_to_hexstring.isra.0+0x1f0>
    af5c:	e2610020 	rsb	r0, r1, #32
    af60:	e2418020 	sub	r8, r1, #32
    af64:	e1a02136 	lsr	r2, r6, r1
    af68:	e2834001 	add	r4, r3, #1
    af6c:	e1822017 	orr	r2, r2, r7, lsl r0
    af70:	e0850004 	add	r0, r5, r4
    af74:	e1822837 	orr	r2, r2, r7, lsr r8
    af78:	e0858003 	add	r8, r5, r3
    af7c:	e212200f 	ands	r2, r2, #15
    af80:	028cc001 	addeq	ip, ip, #1
    af84:	0afffff1 	beq	af50 <double_to_hexstring.isra.0+0x12c>
    af88:	e2839002 	add	r9, r3, #2
    af8c:	e35a0000 	cmp	sl, #0
    af90:	e085a009 	add	sl, r5, r9
    af94:	1a000008 	bne	afbc <double_to_hexstring.isra.0+0x198>
    af98:	e283b003 	add	fp, r3, #3
    af9c:	e3a0302e 	mov	r3, #46	; 0x2e
    afa0:	e5c83000 	strb	r3, [r8]
    afa4:	e1a03004 	mov	r3, r4
    afa8:	e1a08000 	mov	r8, r0
    afac:	e1a04009 	mov	r4, r9
    afb0:	e1a0000a 	mov	r0, sl
    afb4:	e1a0900b 	mov	r9, fp
    afb8:	e085a00b 	add	sl, r5, fp
    afbc:	e35c0000 	cmp	ip, #0
    afc0:	0a000068 	beq	b168 <double_to_hexstring.isra.0+0x344>
    afc4:	e085400c 	add	r4, r5, ip
    afc8:	e0850003 	add	r0, r5, r3
    afcc:	e0844003 	add	r4, r4, r3
    afd0:	e4c0e001 	strb	lr, [r0], #1
    afd4:	e1540000 	cmp	r4, r0
    afd8:	1afffffc 	bne	afd0 <double_to_hexstring.isra.0+0x1ac>
    afdc:	e08cc003 	add	ip, ip, r3
    afe0:	e28c3001 	add	r3, ip, #1
    afe4:	e28c4002 	add	r4, ip, #2
    afe8:	e0858003 	add	r8, r5, r3
    afec:	e085c00c 	add	ip, r5, ip
    aff0:	e0850004 	add	r0, r5, r4
    aff4:	e59d9004 	ldr	r9, [sp, #4]
    aff8:	e2411004 	sub	r1, r1, #4
    affc:	e3a0a001 	mov	sl, #1
    b000:	e3710004 	cmn	r1, #4
    b004:	e7d92002 	ldrb	r2, [r9, r2]
    b008:	e5cc2000 	strb	r2, [ip]
    b00c:	e3a0c000 	mov	ip, #0
    b010:	1affffd1 	bne	af5c <double_to_hexstring.isra.0+0x138>
    b014:	e59db00c 	ldr	fp, [sp, #12]
    b018:	e59d1008 	ldr	r1, [sp, #8]
    b01c:	e35b0000 	cmp	fp, #0
    b020:	03a03070 	moveq	r3, #112	; 0x70
    b024:	13a03050 	movne	r3, #80	; 0x50
    b028:	e5c83000 	strb	r3, [r8]
    b02c:	ebffff5b 	bl	ada0 <exponent_to_string>
    b030:	e0803004 	add	r3, r0, r4
    b034:	eaffffa1 	b	aec0 <double_to_hexstring.isra.0+0x9c>
    b038:	e1962007 	orrs	r2, r6, r7
    b03c:	1a000012 	bne	b08c <double_to_hexstring.isra.0+0x268>
    b040:	e35b0000 	cmp	fp, #0
    b044:	1a00004d 	bne	b180 <double_to_hexstring.isra.0+0x35c>
    b048:	e0800003 	add	r0, r0, r3
    b04c:	e59f123c 	ldr	r1, [pc, #572]	; b290 <double_to_hexstring.isra.0+0x46c>
    b050:	e3a0206e 	mov	r2, #110	; 0x6e
    b054:	e3a0c069 	mov	ip, #105	; 0x69
    b058:	e08f1001 	add	r1, pc, r1
    b05c:	e2833001 	add	r3, r3, #1
    b060:	e2811001 	add	r1, r1, #1
    b064:	e4c0c001 	strb	ip, [r0], #1
    b068:	e3520000 	cmp	r2, #0
    b06c:	0affff93 	beq	aec0 <double_to_hexstring.isra.0+0x9c>
    b070:	e1a0c002 	mov	ip, r2
    b074:	e5f12001 	ldrb	r2, [r1, #1]!
    b078:	e2833001 	add	r3, r3, #1
    b07c:	e4c0c001 	strb	ip, [r0], #1
    b080:	e3520000 	cmp	r2, #0
    b084:	1afffff9 	bne	b070 <double_to_hexstring.isra.0+0x24c>
    b088:	eaffff8c 	b	aec0 <double_to_hexstring.isra.0+0x9c>
    b08c:	e35b0000 	cmp	fp, #0
    b090:	1a00004b 	bne	b1c4 <double_to_hexstring.isra.0+0x3a0>
    b094:	e0800003 	add	r0, r0, r3
    b098:	e59f11f4 	ldr	r1, [pc, #500]	; b294 <double_to_hexstring.isra.0+0x470>
    b09c:	e3a02061 	mov	r2, #97	; 0x61
    b0a0:	e3a0c06e 	mov	ip, #110	; 0x6e
    b0a4:	e08f1001 	add	r1, pc, r1
    b0a8:	e2833001 	add	r3, r3, #1
    b0ac:	e2811001 	add	r1, r1, #1
    b0b0:	e4c0c001 	strb	ip, [r0], #1
    b0b4:	e3520000 	cmp	r2, #0
    b0b8:	0affff80 	beq	aec0 <double_to_hexstring.isra.0+0x9c>
    b0bc:	e1a0c002 	mov	ip, r2
    b0c0:	e5f12001 	ldrb	r2, [r1, #1]!
    b0c4:	e2833001 	add	r3, r3, #1
    b0c8:	e4c0c001 	strb	ip, [r0], #1
    b0cc:	e3520000 	cmp	r2, #0
    b0d0:	1afffff9 	bne	b0bc <double_to_hexstring.isra.0+0x298>
    b0d4:	eaffff79 	b	aec0 <double_to_hexstring.isra.0+0x9c>
    b0d8:	e0800003 	add	r0, r0, r3
    b0dc:	e59f21b4 	ldr	r2, [pc, #436]	; b298 <double_to_hexstring.isra.0+0x474>
    b0e0:	e3a01078 	mov	r1, #120	; 0x78
    b0e4:	e3a0c030 	mov	ip, #48	; 0x30
    b0e8:	e08f2002 	add	r2, pc, r2
    b0ec:	e2833001 	add	r3, r3, #1
    b0f0:	e2822001 	add	r2, r2, #1
    b0f4:	e4c0c001 	strb	ip, [r0], #1
    b0f8:	e3510000 	cmp	r1, #0
    b0fc:	0a000005 	beq	b118 <double_to_hexstring.isra.0+0x2f4>
    b100:	e1a0c001 	mov	ip, r1
    b104:	e5f21001 	ldrb	r1, [r2, #1]!
    b108:	e2833001 	add	r3, r3, #1
    b10c:	e4c0c001 	strb	ip, [r0], #1
    b110:	e3510000 	cmp	r1, #0
    b114:	1afffff9 	bne	b100 <double_to_hexstring.isra.0+0x2dc>
    b118:	e59f217c 	ldr	r2, [pc, #380]	; b29c <double_to_hexstring.isra.0+0x478>
    b11c:	e08f2002 	add	r2, pc, r2
    b120:	e58d2004 	str	r2, [sp, #4]
    b124:	eaffff83 	b	af38 <double_to_hexstring.isra.0+0x114>
    b128:	e35b0000 	cmp	fp, #0
    b12c:	1a000046 	bne	b24c <double_to_hexstring.isra.0+0x428>
    b130:	e59f1168 	ldr	r1, [pc, #360]	; b2a0 <double_to_hexstring.isra.0+0x47c>
    b134:	e0800003 	add	r0, r0, r3
    b138:	e3a02078 	mov	r2, #120	; 0x78
    b13c:	e3a0c030 	mov	ip, #48	; 0x30
    b140:	e08f1001 	add	r1, pc, r1
    b144:	e2811001 	add	r1, r1, #1
    b148:	ea000001 	b	b154 <double_to_hexstring.isra.0+0x330>
    b14c:	e1a0c002 	mov	ip, r2
    b150:	e5f12001 	ldrb	r2, [r1, #1]!
    b154:	e2833001 	add	r3, r3, #1
    b158:	e4c0c001 	strb	ip, [r0], #1
    b15c:	e3520000 	cmp	r2, #0
    b160:	1afffff9 	bne	b14c <double_to_hexstring.isra.0+0x328>
    b164:	eaffff55 	b	aec0 <double_to_hexstring.isra.0+0x9c>
    b168:	e1a0c008 	mov	ip, r8
    b16c:	e1a03004 	mov	r3, r4
    b170:	e1a08000 	mov	r8, r0
    b174:	e1a04009 	mov	r4, r9
    b178:	e1a0000a 	mov	r0, sl
    b17c:	eaffff9c 	b	aff4 <double_to_hexstring.isra.0+0x1d0>
    b180:	e0800003 	add	r0, r0, r3
    b184:	e59f1118 	ldr	r1, [pc, #280]	; b2a4 <double_to_hexstring.isra.0+0x480>
    b188:	e3a0204e 	mov	r2, #78	; 0x4e
    b18c:	e3a0c049 	mov	ip, #73	; 0x49
    b190:	e08f1001 	add	r1, pc, r1
    b194:	e2833001 	add	r3, r3, #1
    b198:	e2811001 	add	r1, r1, #1
    b19c:	e4c0c001 	strb	ip, [r0], #1
    b1a0:	e3520000 	cmp	r2, #0
    b1a4:	0affff45 	beq	aec0 <double_to_hexstring.isra.0+0x9c>
    b1a8:	e1a0c002 	mov	ip, r2
    b1ac:	e5f12001 	ldrb	r2, [r1, #1]!
    b1b0:	e2833001 	add	r3, r3, #1
    b1b4:	e4c0c001 	strb	ip, [r0], #1
    b1b8:	e3520000 	cmp	r2, #0
    b1bc:	1afffff9 	bne	b1a8 <double_to_hexstring.isra.0+0x384>
    b1c0:	eaffff3e 	b	aec0 <double_to_hexstring.isra.0+0x9c>
    b1c4:	e0800003 	add	r0, r0, r3
    b1c8:	e59f10d8 	ldr	r1, [pc, #216]	; b2a8 <double_to_hexstring.isra.0+0x484>
    b1cc:	e3a02041 	mov	r2, #65	; 0x41
    b1d0:	e3a0c04e 	mov	ip, #78	; 0x4e
    b1d4:	e08f1001 	add	r1, pc, r1
    b1d8:	e2833001 	add	r3, r3, #1
    b1dc:	e2811001 	add	r1, r1, #1
    b1e0:	e4c0c001 	strb	ip, [r0], #1
    b1e4:	e3520000 	cmp	r2, #0
    b1e8:	0affff34 	beq	aec0 <double_to_hexstring.isra.0+0x9c>
    b1ec:	e1a0c002 	mov	ip, r2
    b1f0:	e5f12001 	ldrb	r2, [r1, #1]!
    b1f4:	e2833001 	add	r3, r3, #1
    b1f8:	e4c0c001 	strb	ip, [r0], #1
    b1fc:	e3520000 	cmp	r2, #0
    b200:	1afffff9 	bne	b1ec <double_to_hexstring.isra.0+0x3c8>
    b204:	eaffff2d 	b	aec0 <double_to_hexstring.isra.0+0x9c>
    b208:	e0800003 	add	r0, r0, r3
    b20c:	e59f1098 	ldr	r1, [pc, #152]	; b2ac <double_to_hexstring.isra.0+0x488>
    b210:	e3a02045 	mov	r2, #69	; 0x45
    b214:	e3a0c044 	mov	ip, #68	; 0x44
    b218:	e08f1001 	add	r1, pc, r1
    b21c:	e2833001 	add	r3, r3, #1
    b220:	e2811001 	add	r1, r1, #1
    b224:	e4c0c001 	strb	ip, [r0], #1
    b228:	e3520000 	cmp	r2, #0
    b22c:	0affff23 	beq	aec0 <double_to_hexstring.isra.0+0x9c>
    b230:	e1a0c002 	mov	ip, r2
    b234:	e5f12001 	ldrb	r2, [r1, #1]!
    b238:	e2833001 	add	r3, r3, #1
    b23c:	e4c0c001 	strb	ip, [r0], #1
    b240:	e3520000 	cmp	r2, #0
    b244:	1afffff9 	bne	b230 <double_to_hexstring.isra.0+0x40c>
    b248:	eaffff1c 	b	aec0 <double_to_hexstring.isra.0+0x9c>
    b24c:	e59f105c 	ldr	r1, [pc, #92]	; b2b0 <double_to_hexstring.isra.0+0x48c>
    b250:	e0800003 	add	r0, r0, r3
    b254:	e3a02058 	mov	r2, #88	; 0x58
    b258:	e3a0c030 	mov	ip, #48	; 0x30
    b25c:	e08f1001 	add	r1, pc, r1
    b260:	e2811001 	add	r1, r1, #1
    b264:	ea000001 	b	b270 <double_to_hexstring.isra.0+0x44c>
    b268:	e1a0c002 	mov	ip, r2
    b26c:	e5f12001 	ldrb	r2, [r1, #1]!
    b270:	e2833001 	add	r3, r3, #1
    b274:	e4c0c001 	strb	ip, [r0], #1
    b278:	e3520000 	cmp	r2, #0
    b27c:	1afffff9 	bne	b268 <double_to_hexstring.isra.0+0x444>
    b280:	eaffff0e 	b	aec0 <double_to_hexstring.isra.0+0x9c>
    b284:	00001ad0 	.word	0x00001ad0
    b288:	00001a70 	.word	0x00001a70
    b28c:	00001a64 	.word	0x00001a64
    b290:	000018e8 	.word	0x000018e8
    b294:	000018a4 	.word	0x000018a4
    b298:	00001880 	.word	0x00001880
    b29c:	00001868 	.word	0x00001868
    b2a0:	00001810 	.word	0x00001810
    b2a4:	000017b4 	.word	0x000017b4
    b2a8:	00001778 	.word	0x00001778
    b2ac:	0000174c 	.word	0x0000174c
    b2b0:	000016fc 	.word	0x000016fc

0000b2b4 <longlong_to_hexstring.constprop.1>:
    b2b4:	e92d4030 	push	{r4, r5, lr}
    b2b8:	e59d100c 	ldr	r1, [sp, #12]
    b2bc:	e3110c01 	tst	r1, #256	; 0x100
    b2c0:	1a000010 	bne	b308 <longlong_to_hexstring.constprop.1+0x54>
    b2c4:	e59f5048 	ldr	r5, [pc, #72]	; b314 <longlong_to_hexstring.constprop.1+0x60>
    b2c8:	e08f5005 	add	r5, pc, r5
    b2cc:	e280c01e 	add	ip, r0, #30
    b2d0:	e3a01000 	mov	r1, #0
    b2d4:	e5c0101f 	strb	r1, [r0, #31]
    b2d8:	e202400f 	and	r4, r2, #15
    b2dc:	e1a01222 	lsr	r1, r2, #4
    b2e0:	e1811e03 	orr	r1, r1, r3, lsl #28
    b2e4:	e1a0e223 	lsr	lr, r3, #4
    b2e8:	e1a02001 	mov	r2, r1
    b2ec:	e1a0300e 	mov	r3, lr
    b2f0:	e7d51004 	ldrb	r1, [r5, r4]
    b2f4:	e1a0000c 	mov	r0, ip
    b2f8:	e192e003 	orrs	lr, r2, r3
    b2fc:	e44c1001 	strb	r1, [ip], #-1
    b300:	1afffff4 	bne	b2d8 <longlong_to_hexstring.constprop.1+0x24>
    b304:	e8bd8030 	pop	{r4, r5, pc}
    b308:	e59f5008 	ldr	r5, [pc, #8]	; b318 <longlong_to_hexstring.constprop.1+0x64>
    b30c:	e08f5005 	add	r5, pc, r5
    b310:	eaffffed 	b	b2cc <longlong_to_hexstring.constprop.1+0x18>
    b314:	000016bc 	.word	0x000016bc
    b318:	00001688 	.word	0x00001688
    b31c:	00000000 	.word	0x00000000

0000b320 <double_to_string.constprop.2>:
    b320:	e59fc3d0 	ldr	ip, [pc, #976]	; b6f8 <double_to_string.constprop.2+0x3d8>
    b324:	ee102a10 	vmov	r2, s0
    b328:	e92d4ff0 	push	{r4, r5, r6, r7, r8, r9, sl, fp, lr}
    b32c:	ec598b10 	vmov	r8, r9, d0
    b330:	e59fe3c4 	ldr	lr, [pc, #964]	; b6fc <double_to_string.constprop.2+0x3dc>
    b334:	e08fc00c 	add	ip, pc, ip
    b338:	e1a04000 	mov	r4, r0
    b33c:	e24dd01c 	sub	sp, sp, #28
    b340:	e1a0000c 	mov	r0, ip
    b344:	e3580000 	cmp	r8, #0
    b348:	e7ea0a59 	ubfx	r0, r9, #20, #11
    b34c:	e79c500e 	ldr	r5, [ip, lr]
    b350:	e2d9e000 	sbcs	lr, r9, #0
    b354:	e1a07009 	mov	r7, r9
    b358:	e7f33059 	ubfx	r3, r9, #0, #20
    b35c:	e300e7ff 	movw	lr, #2047	; 0x7ff
    b360:	b2299102 	eorlt	r9, r9, #-2147483648	; 0x80000000
    b364:	e595c000 	ldr	ip, [r5]
    b368:	ee106a10 	vmov	r6, s0
    b36c:	e58dc014 	str	ip, [sp, #20]
    b370:	b3a0c02d 	movlt	ip, #45	; 0x2d
    b374:	a3a0c000 	movge	ip, #0
    b378:	b5c4c000 	strblt	ip, [r4]
    b37c:	b3a0c001 	movlt	ip, #1
    b380:	e150000e 	cmp	r0, lr
    b384:	0a000030 	beq	b44c <double_to_string.constprop.2+0x12c>
    b388:	e3500000 	cmp	r0, #0
    b38c:	1a00001c 	bne	b404 <double_to_string.constprop.2+0xe4>
    b390:	e1923003 	orrs	r3, r2, r3
    b394:	0a00004f 	beq	b4d8 <double_to_string.constprop.2+0x1b8>
    b398:	e3110c01 	tst	r1, #256	; 0x100
    b39c:	1a0000a5 	bne	b638 <double_to_string.constprop.2+0x318>
    b3a0:	e084100c 	add	r1, r4, ip
    b3a4:	e59f3354 	ldr	r3, [pc, #852]	; b700 <double_to_string.constprop.2+0x3e0>
    b3a8:	e3a02065 	mov	r2, #101	; 0x65
    b3ac:	e3a00064 	mov	r0, #100	; 0x64
    b3b0:	e08f3003 	add	r3, pc, r3
    b3b4:	e28cc001 	add	ip, ip, #1
    b3b8:	e2833001 	add	r3, r3, #1
    b3bc:	e4c10001 	strb	r0, [r1], #1
    b3c0:	e3520000 	cmp	r2, #0
    b3c4:	0a000005 	beq	b3e0 <double_to_string.constprop.2+0xc0>
    b3c8:	e1a00002 	mov	r0, r2
    b3cc:	e5f32001 	ldrb	r2, [r3, #1]!
    b3d0:	e28cc001 	add	ip, ip, #1
    b3d4:	e4c10001 	strb	r0, [r1], #1
    b3d8:	e3520000 	cmp	r2, #0
    b3dc:	1afffff9 	bne	b3c8 <double_to_string.constprop.2+0xa8>
    b3e0:	e1a00004 	mov	r0, r4
    b3e4:	e3a03000 	mov	r3, #0
    b3e8:	e7c4300c 	strb	r3, [r4, ip]
    b3ec:	e59d2014 	ldr	r2, [sp, #20]
    b3f0:	e5953000 	ldr	r3, [r5]
    b3f4:	e1520003 	cmp	r2, r3
    b3f8:	1a0000bb 	bne	b6ec <double_to_string.constprop.2+0x3cc>
    b3fc:	e28dd01c 	add	sp, sp, #28
    b400:	e8bd8ff0 	pop	{r4, r5, r6, r7, r8, r9, sl, fp, pc}
    b404:	e240eff2 	sub	lr, r0, #968	; 0x3c8
    b408:	e24ee003 	sub	lr, lr, #3
    b40c:	e35e0068 	cmp	lr, #104	; 0x68
    b410:	9a00003e 	bls	b510 <double_to_string.constprop.2+0x1f0>
    b414:	e59f22e8 	ldr	r2, [pc, #744]	; b704 <double_to_string.constprop.2+0x3e4>
    b418:	e084100c 	add	r1, r4, ip
    b41c:	e3a03072 	mov	r3, #114	; 0x72
    b420:	e3a0003c 	mov	r0, #60	; 0x3c
    b424:	e08f2002 	add	r2, pc, r2
    b428:	e2822001 	add	r2, r2, #1
    b42c:	ea000001 	b	b438 <double_to_string.constprop.2+0x118>
    b430:	e1a00003 	mov	r0, r3
    b434:	e5f23001 	ldrb	r3, [r2, #1]!
    b438:	e28cc001 	add	ip, ip, #1
    b43c:	e4c10001 	strb	r0, [r1], #1
    b440:	e3530000 	cmp	r3, #0
    b444:	1afffff9 	bne	b430 <double_to_string.constprop.2+0x110>
    b448:	eaffffe4 	b	b3e0 <double_to_string.constprop.2+0xc0>
    b44c:	e2011c01 	and	r1, r1, #256	; 0x100
    b450:	e1923003 	orrs	r3, r2, r3
    b454:	1a00000f 	bne	b498 <double_to_string.constprop.2+0x178>
    b458:	e3510000 	cmp	r1, #0
    b45c:	1a000067 	bne	b600 <double_to_string.constprop.2+0x2e0>
    b460:	e59f22a0 	ldr	r2, [pc, #672]	; b708 <double_to_string.constprop.2+0x3e8>
    b464:	e084100c 	add	r1, r4, ip
    b468:	e3a0306e 	mov	r3, #110	; 0x6e
    b46c:	e3a00069 	mov	r0, #105	; 0x69
    b470:	e08f2002 	add	r2, pc, r2
    b474:	e2822001 	add	r2, r2, #1
    b478:	ea000001 	b	b484 <double_to_string.constprop.2+0x164>
    b47c:	e1a00003 	mov	r0, r3
    b480:	e5f23001 	ldrb	r3, [r2, #1]!
    b484:	e28cc001 	add	ip, ip, #1
    b488:	e4c10001 	strb	r0, [r1], #1
    b48c:	e3530000 	cmp	r3, #0
    b490:	1afffff9 	bne	b47c <double_to_string.constprop.2+0x15c>
    b494:	eaffffd1 	b	b3e0 <double_to_string.constprop.2+0xc0>
    b498:	e3510000 	cmp	r1, #0
    b49c:	1a000049 	bne	b5c8 <double_to_string.constprop.2+0x2a8>
    b4a0:	e59f2264 	ldr	r2, [pc, #612]	; b70c <double_to_string.constprop.2+0x3ec>
    b4a4:	e084100c 	add	r1, r4, ip
    b4a8:	e3a03061 	mov	r3, #97	; 0x61
    b4ac:	e3a0006e 	mov	r0, #110	; 0x6e
    b4b0:	e08f2002 	add	r2, pc, r2
    b4b4:	e2822001 	add	r2, r2, #1
    b4b8:	ea000001 	b	b4c4 <double_to_string.constprop.2+0x1a4>
    b4bc:	e1a00003 	mov	r0, r3
    b4c0:	e5f23001 	ldrb	r3, [r2, #1]!
    b4c4:	e28cc001 	add	ip, ip, #1
    b4c8:	e4c10001 	strb	r0, [r1], #1
    b4cc:	e3530000 	cmp	r3, #0
    b4d0:	1afffff9 	bne	b4bc <double_to_string.constprop.2+0x19c>
    b4d4:	eaffffc1 	b	b3e0 <double_to_string.constprop.2+0xc0>
    b4d8:	e59f2230 	ldr	r2, [pc, #560]	; b710 <double_to_string.constprop.2+0x3f0>
    b4dc:	e084100c 	add	r1, r4, ip
    b4e0:	e3a0302e 	mov	r3, #46	; 0x2e
    b4e4:	e3a00030 	mov	r0, #48	; 0x30
    b4e8:	e08f2002 	add	r2, pc, r2
    b4ec:	e2822001 	add	r2, r2, #1
    b4f0:	ea000001 	b	b4fc <double_to_string.constprop.2+0x1dc>
    b4f4:	e1a00003 	mov	r0, r3
    b4f8:	e5f23001 	ldrb	r3, [r2, #1]!
    b4fc:	e28cc001 	add	ip, ip, #1
    b500:	e4c10001 	strb	r0, [r1], #1
    b504:	e3530000 	cmp	r3, #0
    b508:	1afffff9 	bne	b4f4 <double_to_string.constprop.2+0x1d4>
    b50c:	eaffffb3 	b	b3e0 <double_to_string.constprop.2+0xc0>
    b510:	e1a0c004 	mov	ip, r4
    b514:	e284a018 	add	sl, r4, #24
    b518:	e3a0e030 	mov	lr, #48	; 0x30
    b51c:	e3a0b000 	mov	fp, #0
    b520:	e5ecb01f 	strb	fp, [ip, #31]!
    b524:	e56ce001 	strb	lr, [ip, #-1]!
    b528:	e15c000a 	cmp	ip, sl
    b52c:	1afffffc 	bne	b524 <double_to_string.constprop.2+0x204>
    b530:	e2400fff 	sub	r0, r0, #1020	; 0x3fc
    b534:	e2400003 	sub	r0, r0, #3
    b538:	e3500000 	cmp	r0, #0
    b53c:	b5c4e017 	strblt	lr, [r4, #23]
    b540:	b3a0b017 	movlt	fp, #23
    b544:	aa00004c 	bge	b67c <double_to_string.constprop.2+0x35c>
    b548:	ed9f6b68 	vldr	d6, [pc, #416]	; b6f0 <double_to_string.constprop.2+0x3d0>
    b54c:	ec498b15 	vmov	d5, r8, r9
    b550:	eeb67b00 	vmov.f64	d7, #96	; 0x3f000000  0.5
    b554:	e3a0302e 	mov	r3, #46	; 0x2e
    b558:	e5c43020 	strb	r3, [r4, #32]
    b55c:	ee057b06 	vmla.f64	d7, d5, d6
    b560:	eefc7bc7 	vcvt.u32.f64	s15, d7
    b564:	ee172a90 	vmov	r2, s15
    b568:	e3520000 	cmp	r2, #0
    b56c:	0a00000a 	beq	b59c <double_to_string.constprop.2+0x27c>
    b570:	e30ccccd 	movw	ip, #52429	; 0xcccd
    b574:	e34ccccc 	movt	ip, #52428	; 0xcccc
    b578:	e2840027 	add	r0, r4, #39	; 0x27
    b57c:	e3a0e00a 	mov	lr, #10
    b580:	e083129c 	umull	r1, r3, ip, r2
    b584:	e1a031a3 	lsr	r3, r3, #3
    b588:	e061239e 	mls	r1, lr, r3, r2
    b58c:	e2532000 	subs	r2, r3, #0
    b590:	e2813030 	add	r3, r1, #48	; 0x30
    b594:	e5603001 	strb	r3, [r0, #-1]!
    b598:	1afffff8 	bne	b580 <double_to_string.constprop.2+0x260>
    b59c:	e3560000 	cmp	r6, #0
    b5a0:	e2d73000 	sbcs	r3, r7, #0
    b5a4:	a084000b 	addge	r0, r4, fp
    b5a8:	aaffff8f 	bge	b3ec <double_to_string.constprop.2+0xcc>
    b5ac:	e35b0000 	cmp	fp, #0
    b5b0:	124bb001 	subne	fp, fp, #1
    b5b4:	13a0302d 	movne	r3, #45	; 0x2d
    b5b8:	1084000b 	addne	r0, r4, fp
    b5bc:	01a00004 	moveq	r0, r4
    b5c0:	17c4300b 	strbne	r3, [r4, fp]
    b5c4:	eaffff88 	b	b3ec <double_to_string.constprop.2+0xcc>
    b5c8:	e59f2144 	ldr	r2, [pc, #324]	; b714 <double_to_string.constprop.2+0x3f4>
    b5cc:	e084100c 	add	r1, r4, ip
    b5d0:	e3a03041 	mov	r3, #65	; 0x41
    b5d4:	e3a0004e 	mov	r0, #78	; 0x4e
    b5d8:	e08f2002 	add	r2, pc, r2
    b5dc:	e2822001 	add	r2, r2, #1
    b5e0:	ea000001 	b	b5ec <double_to_string.constprop.2+0x2cc>
    b5e4:	e1a00003 	mov	r0, r3
    b5e8:	e5f23001 	ldrb	r3, [r2, #1]!
    b5ec:	e28cc001 	add	ip, ip, #1
    b5f0:	e4c10001 	strb	r0, [r1], #1
    b5f4:	e3530000 	cmp	r3, #0
    b5f8:	1afffff9 	bne	b5e4 <double_to_string.constprop.2+0x2c4>
    b5fc:	eaffff77 	b	b3e0 <double_to_string.constprop.2+0xc0>
    b600:	e59f2110 	ldr	r2, [pc, #272]	; b718 <double_to_string.constprop.2+0x3f8>
    b604:	e084100c 	add	r1, r4, ip
    b608:	e3a0304e 	mov	r3, #78	; 0x4e
    b60c:	e3a00049 	mov	r0, #73	; 0x49
    b610:	e08f2002 	add	r2, pc, r2
    b614:	e2822001 	add	r2, r2, #1
    b618:	ea000001 	b	b624 <double_to_string.constprop.2+0x304>
    b61c:	e1a00003 	mov	r0, r3
    b620:	e5f23001 	ldrb	r3, [r2, #1]!
    b624:	e28cc001 	add	ip, ip, #1
    b628:	e4c10001 	strb	r0, [r1], #1
    b62c:	e3530000 	cmp	r3, #0
    b630:	1afffff9 	bne	b61c <double_to_string.constprop.2+0x2fc>
    b634:	eaffff69 	b	b3e0 <double_to_string.constprop.2+0xc0>
    b638:	e084100c 	add	r1, r4, ip
    b63c:	e59f30d8 	ldr	r3, [pc, #216]	; b71c <double_to_string.constprop.2+0x3fc>
    b640:	e3a02045 	mov	r2, #69	; 0x45
    b644:	e3a00044 	mov	r0, #68	; 0x44
    b648:	e08f3003 	add	r3, pc, r3
    b64c:	e28cc001 	add	ip, ip, #1
    b650:	e2833001 	add	r3, r3, #1
    b654:	e4c10001 	strb	r0, [r1], #1
    b658:	e3520000 	cmp	r2, #0
    b65c:	0affff5f 	beq	b3e0 <double_to_string.constprop.2+0xc0>
    b660:	e1a00002 	mov	r0, r2
    b664:	e5f32001 	ldrb	r2, [r3, #1]!
    b668:	e28cc001 	add	ip, ip, #1
    b66c:	e4c10001 	strb	r0, [r1], #1
    b670:	e3520000 	cmp	r2, #0
    b674:	1afffff9 	bne	b660 <double_to_string.constprop.2+0x340>
    b678:	eaffff58 	b	b3e0 <double_to_string.constprop.2+0xc0>
    b67c:	e2600034 	rsb	r0, r0, #52	; 0x34
    b680:	e28dc018 	add	ip, sp, #24
    b684:	e260e020 	rsb	lr, r0, #32
    b688:	e383b601 	orr	fp, r3, #1048576	; 0x100000
    b68c:	e1a0a032 	lsr	sl, r2, r0
    b690:	e2403020 	sub	r3, r0, #32
    b694:	e18aae1b 	orr	sl, sl, fp, lsl lr
    b698:	e3a02000 	mov	r2, #0
    b69c:	e56c2005 	strb	r2, [ip, #-5]!
    b6a0:	e18aa33b 	orr	sl, sl, fp, lsr r3
    b6a4:	e1a0b03b 	lsr	fp, fp, r0
    b6a8:	e58d1004 	str	r1, [sp, #4]
    b6ac:	e1a0300b 	mov	r3, fp
    b6b0:	e3a01019 	mov	r1, #25
    b6b4:	e1a0200a 	mov	r2, sl
    b6b8:	e58dc008 	str	ip, [sp, #8]
    b6bc:	e58d1000 	str	r1, [sp]
    b6c0:	e1a00004 	mov	r0, r4
    b6c4:	ebfffd74 	bl	ac9c <longlong_to_string>
    b6c8:	e1a0100b 	mov	r1, fp
    b6cc:	e040b004 	sub	fp, r0, r4
    b6d0:	e1a0000a 	mov	r0, sl
    b6d4:	fa000391 	blx	c520 <__aeabi_ul2d>
    b6d8:	ec498b17 	vmov	d7, r8, r9
    b6dc:	ec410b16 	vmov	d6, r0, r1
    b6e0:	ee377b46 	vsub.f64	d7, d7, d6
    b6e4:	ec598b17 	vmov	r8, r9, d7
    b6e8:	eaffff96 	b	b548 <double_to_string.constprop.2+0x228>
    b6ec:	eb00026c 	bl	c0a4 <__stack_chk_fail>
    b6f0:	00000000 	.word	0x00000000
    b6f4:	412e8480 	.word	0x412e8480
    b6f8:	00001ce0 	.word	0x00001ce0
    b6fc:	0000000c 	.word	0x0000000c
    b700:	000015b0 	.word	0x000015b0
    b704:	00001558 	.word	0x00001558
    b708:	000014d0 	.word	0x000014d0
    b70c:	00001498 	.word	0x00001498
    b710:	00001488 	.word	0x00001488
    b714:	00001374 	.word	0x00001374
    b718:	00001334 	.word	0x00001334
    b71c:	0000131c 	.word	0x0000131c

0000b720 <_printf_engine>:
    b720:	e92d4ff0 	push	{r4, r5, r6, r7, r8, r9, sl, fp, lr}
    b724:	e1a0b000 	mov	fp, r0
    b728:	e59fc8c0 	ldr	ip, [pc, #2240]	; bff0 <_printf_engine+0x8d0>
    b72c:	e24dd05c 	sub	sp, sp, #92	; 0x5c
    b730:	e59fe8bc 	ldr	lr, [pc, #2236]	; bff4 <_printf_engine+0x8d4>
    b734:	e1a00002 	mov	r0, r2
    b738:	e59f28b8 	ldr	r2, [pc, #2232]	; bff8 <_printf_engine+0x8d8>
    b73c:	e08fc00c 	add	ip, pc, ip
    b740:	e1a0a001 	mov	sl, r1
    b744:	e58d3014 	str	r3, [sp, #20]
    b748:	e08f2002 	add	r2, pc, r2
    b74c:	e58d201c 	str	r2, [sp, #28]
    b750:	e1a0300c 	mov	r3, ip
    b754:	e3a06000 	mov	r6, #0
    b758:	e79c300e 	ldr	r3, [ip, lr]
    b75c:	e58d3018 	str	r3, [sp, #24]
    b760:	e5933000 	ldr	r3, [r3]
    b764:	e58d3054 	str	r3, [sp, #84]	; 0x54
    b768:	e5d03000 	ldrb	r3, [r0]
    b76c:	e3a01000 	mov	r1, #0
    b770:	e2804001 	add	r4, r0, #1
    b774:	e5cd102f 	strb	r1, [sp, #47]	; 0x2f
    b778:	e1530001 	cmp	r3, r1
    b77c:	1a000004 	bne	b794 <_printf_engine+0x74>
    b780:	ea00006e 	b	b940 <_printf_engine+0x220>
    b784:	e0441000 	sub	r1, r4, r0
    b788:	e4d43001 	ldrb	r3, [r4], #1
    b78c:	e3530000 	cmp	r3, #0
    b790:	0a00006b 	beq	b944 <_printf_engine+0x224>
    b794:	e3530025 	cmp	r3, #37	; 0x25
    b798:	1afffff9 	bne	b784 <_printf_engine+0x64>
    b79c:	e1a0200a 	mov	r2, sl
    b7a0:	e12fff3b 	blx	fp
    b7a4:	e2503000 	subs	r3, r0, #0
    b7a8:	ba00006b 	blt	b95c <_printf_engine+0x23c>
    b7ac:	e3a05000 	mov	r5, #0
    b7b0:	e0866003 	add	r6, r6, r3
    b7b4:	e1a09005 	mov	r9, r5
    b7b8:	e4d48001 	ldrb	r8, [r4], #1
    b7bc:	e3580000 	cmp	r8, #0
    b7c0:	0a000064 	beq	b958 <_printf_engine+0x238>
    b7c4:	e2483020 	sub	r3, r8, #32
    b7c8:	e353005a 	cmp	r3, #90	; 0x5a
    b7cc:	908ff103 	addls	pc, pc, r3, lsl #2
    b7d0:	ea000168 	b	bd78 <_printf_engine+0x658>
    b7d4:	ea000119 	b	bc40 <_printf_engine+0x520>
    b7d8:	ea000166 	b	bd78 <_printf_engine+0x658>
    b7dc:	ea000165 	b	bd78 <_printf_engine+0x658>
    b7e0:	ea000108 	b	bc08 <_printf_engine+0x4e8>
    b7e4:	ea000163 	b	bd78 <_printf_engine+0x658>
    b7e8:	ea000108 	b	bc10 <_printf_engine+0x4f0>
    b7ec:	ea000161 	b	bd78 <_printf_engine+0x658>
    b7f0:	ea000160 	b	bd78 <_printf_engine+0x658>
    b7f4:	ea00015f 	b	bd78 <_printf_engine+0x658>
    b7f8:	ea00015e 	b	bd78 <_printf_engine+0x658>
    b7fc:	ea00015d 	b	bd78 <_printf_engine+0x658>
    b800:	ea000110 	b	bc48 <_printf_engine+0x528>
    b804:	ea00015b 	b	bd78 <_printf_engine+0x658>
    b808:	ea000110 	b	bc50 <_printf_engine+0x530>
    b80c:	eaffffe9 	b	b7b8 <_printf_engine+0x98>
    b810:	ea000158 	b	bd78 <_printf_engine+0x658>
    b814:	ea00010f 	b	bc58 <_printf_engine+0x538>
    b818:	ea00010e 	b	bc58 <_printf_engine+0x538>
    b81c:	ea00010d 	b	bc58 <_printf_engine+0x538>
    b820:	ea00010c 	b	bc58 <_printf_engine+0x538>
    b824:	ea00010b 	b	bc58 <_printf_engine+0x538>
    b828:	ea00010a 	b	bc58 <_printf_engine+0x538>
    b82c:	ea000109 	b	bc58 <_printf_engine+0x538>
    b830:	ea000108 	b	bc58 <_printf_engine+0x538>
    b834:	ea000107 	b	bc58 <_printf_engine+0x538>
    b838:	ea000106 	b	bc58 <_printf_engine+0x538>
    b83c:	ea00014d 	b	bd78 <_printf_engine+0x658>
    b840:	ea00014c 	b	bd78 <_printf_engine+0x658>
    b844:	ea00014b 	b	bd78 <_printf_engine+0x658>
    b848:	ea00014a 	b	bd78 <_printf_engine+0x658>
    b84c:	ea000149 	b	bd78 <_printf_engine+0x658>
    b850:	ea000148 	b	bd78 <_printf_engine+0x658>
    b854:	ea000147 	b	bd78 <_printf_engine+0x658>
    b858:	ea0000c1 	b	bb64 <_printf_engine+0x444>
    b85c:	ea000145 	b	bd78 <_printf_engine+0x658>
    b860:	ea000144 	b	bd78 <_printf_engine+0x658>
    b864:	ea000143 	b	bd78 <_printf_engine+0x658>
    b868:	ea000142 	b	bd78 <_printf_engine+0x658>
    b86c:	ea000096 	b	bacc <_printf_engine+0x3ac>
    b870:	ea000140 	b	bd78 <_printf_engine+0x658>
    b874:	ea00013f 	b	bd78 <_printf_engine+0x658>
    b878:	ea00013e 	b	bd78 <_printf_engine+0x658>
    b87c:	ea00013d 	b	bd78 <_printf_engine+0x658>
    b880:	ea00013c 	b	bd78 <_printf_engine+0x658>
    b884:	ea00013b 	b	bd78 <_printf_engine+0x658>
    b888:	ea00013a 	b	bd78 <_printf_engine+0x658>
    b88c:	ea000139 	b	bd78 <_printf_engine+0x658>
    b890:	ea000138 	b	bd78 <_printf_engine+0x658>
    b894:	ea000137 	b	bd78 <_printf_engine+0x658>
    b898:	ea000136 	b	bd78 <_printf_engine+0x658>
    b89c:	ea000135 	b	bd78 <_printf_engine+0x658>
    b8a0:	ea000134 	b	bd78 <_printf_engine+0x658>
    b8a4:	ea000133 	b	bd78 <_printf_engine+0x658>
    b8a8:	ea000132 	b	bd78 <_printf_engine+0x658>
    b8ac:	ea000131 	b	bd78 <_printf_engine+0x658>
    b8b0:	ea000130 	b	bd78 <_printf_engine+0x658>
    b8b4:	ea0000ee 	b	bc74 <_printf_engine+0x554>
    b8b8:	ea00012e 	b	bd78 <_printf_engine+0x658>
    b8bc:	ea00012d 	b	bd78 <_printf_engine+0x658>
    b8c0:	ea00012c 	b	bd78 <_printf_engine+0x658>
    b8c4:	ea00012b 	b	bd78 <_printf_engine+0x658>
    b8c8:	ea00012a 	b	bd78 <_printf_engine+0x658>
    b8cc:	ea000129 	b	bd78 <_printf_engine+0x658>
    b8d0:	ea000128 	b	bd78 <_printf_engine+0x658>
    b8d4:	ea000127 	b	bd78 <_printf_engine+0x658>
    b8d8:	ea0000a2 	b	bb68 <_printf_engine+0x448>
    b8dc:	ea000125 	b	bd78 <_printf_engine+0x658>
    b8e0:	ea0000e8 	b	bc88 <_printf_engine+0x568>
    b8e4:	ea00010a 	b	bd14 <_printf_engine+0x5f4>
    b8e8:	ea000122 	b	bd78 <_printf_engine+0x658>
    b8ec:	ea000077 	b	bad0 <_printf_engine+0x3b0>
    b8f0:	ea000120 	b	bd78 <_printf_engine+0x658>
    b8f4:	ea00011b 	b	bd68 <_printf_engine+0x648>
    b8f8:	ea000105 	b	bd14 <_printf_engine+0x5f4>
    b8fc:	ea0000f3 	b	bcd0 <_printf_engine+0x5b0>
    b900:	ea00011c 	b	bd78 <_printf_engine+0x658>
    b904:	ea0000ed 	b	bcc0 <_printf_engine+0x5a0>
    b908:	ea00011a 	b	bd78 <_printf_engine+0x658>
    b90c:	ea0000a0 	b	bb94 <_printf_engine+0x474>
    b910:	ea000118 	b	bd78 <_printf_engine+0x658>
    b914:	ea000018 	b	b97c <_printf_engine+0x25c>
    b918:	ea000116 	b	bd78 <_printf_engine+0x658>
    b91c:	ea000115 	b	bd78 <_printf_engine+0x658>
    b920:	ea000107 	b	bd44 <_printf_engine+0x624>
    b924:	ea0000eb 	b	bcd8 <_printf_engine+0x5b8>
    b928:	ea0000ec 	b	bce0 <_printf_engine+0x5c0>
    b92c:	ea000111 	b	bd78 <_printf_engine+0x658>
    b930:	ea000110 	b	bd78 <_printf_engine+0x658>
    b934:	ea000011 	b	b980 <_printf_engine+0x260>
    b938:	ea00010e 	b	bd78 <_printf_engine+0x658>
    b93c:	ea0000af 	b	bc00 <_printf_engine+0x4e0>
    b940:	e1a01003 	mov	r1, r3
    b944:	e1a0200a 	mov	r2, sl
    b948:	e12fff3b 	blx	fp
    b94c:	e2503000 	subs	r3, r0, #0
    b950:	ba000001 	blt	b95c <_printf_engine+0x23c>
    b954:	e0866003 	add	r6, r6, r3
    b958:	e1a03006 	mov	r3, r6
    b95c:	e1a00003 	mov	r0, r3
    b960:	e59d3018 	ldr	r3, [sp, #24]
    b964:	e59d2054 	ldr	r2, [sp, #84]	; 0x54
    b968:	e5933000 	ldr	r3, [r3]
    b96c:	e1520003 	cmp	r2, r3
    b970:	1a00019d 	bne	bfec <_printf_engine+0x8cc>
    b974:	e28dd05c 	add	sp, sp, #92	; 0x5c
    b978:	e8bd8ff0 	pop	{r4, r5, r6, r7, r8, r9, sl, fp, pc}
    b97c:	e3899081 	orr	r9, r9, #129	; 0x81
    b980:	e3190002 	tst	r9, #2
    b984:	159d3014 	ldrne	r3, [sp, #20]
    b988:	0a00008c 	beq	bbc0 <_printf_engine+0x4a0>
    b98c:	e2833007 	add	r3, r3, #7
    b990:	e3c33007 	bic	r3, r3, #7
    b994:	e2832008 	add	r2, r3, #8
    b998:	e58d2014 	str	r2, [sp, #20]
    b99c:	e1c320d0 	ldrd	r2, [r3]
    b9a0:	e58d9000 	str	r9, [sp]
    b9a4:	e28d0034 	add	r0, sp, #52	; 0x34
    b9a8:	ebfffe41 	bl	b2b4 <longlong_to_hexstring.constprop.1>
    b9ac:	e3190080 	tst	r9, #128	; 0x80
    b9b0:	e1a08000 	mov	r8, r0
    b9b4:	0a00004f 	beq	baf8 <_printf_engine+0x3d8>
    b9b8:	e28d7058 	add	r7, sp, #88	; 0x58
    b9bc:	e3a03030 	mov	r3, #48	; 0x30
    b9c0:	e1a0200a 	mov	r2, sl
    b9c4:	e3a01001 	mov	r1, #1
    b9c8:	e5673028 	strb	r3, [r7, #-40]!	; 0xffffffd8
    b9cc:	e1a00007 	mov	r0, r7
    b9d0:	e12fff3b 	blx	fp
    b9d4:	e2503000 	subs	r3, r0, #0
    b9d8:	baffffdf 	blt	b95c <_printf_engine+0x23c>
    b9dc:	e3190c01 	tst	r9, #256	; 0x100
    b9e0:	e0836006 	add	r6, r3, r6
    b9e4:	e1a00007 	mov	r0, r7
    b9e8:	03a03078 	moveq	r3, #120	; 0x78
    b9ec:	13a03058 	movne	r3, #88	; 0x58
    b9f0:	e1a0200a 	mov	r2, sl
    b9f4:	e5cd3030 	strb	r3, [sp, #48]	; 0x30
    b9f8:	e3a01001 	mov	r1, #1
    b9fc:	e12fff3b 	blx	fp
    ba00:	e2503000 	subs	r3, r0, #0
    ba04:	baffffd4 	blt	b95c <_printf_engine+0x23c>
    ba08:	e0836006 	add	r6, r3, r6
    ba0c:	e1a00008 	mov	r0, r8
    ba10:	e3190b02 	tst	r9, #2048	; 0x800
    ba14:	1a00003a 	bne	bb04 <_printf_engine+0x3e4>
    ba18:	e2097a01 	and	r7, r9, #4096	; 0x1000
    ba1c:	e58d7020 	str	r7, [sp, #32]
    ba20:	eb0001d8 	bl	c188 <strlen>
    ba24:	e5dd302f 	ldrb	r3, [sp, #47]	; 0x2f
    ba28:	e1a09000 	mov	r9, r0
    ba2c:	e3530000 	cmp	r3, #0
    ba30:	0a00006e 	beq	bbf0 <_printf_engine+0x4d0>
    ba34:	e3550000 	cmp	r5, #0
    ba38:	0a0000fd 	beq	be34 <_printf_engine+0x714>
    ba3c:	e2455001 	sub	r5, r5, #1
    ba40:	e3570000 	cmp	r7, #0
    ba44:	0a000165 	beq	bfe0 <_printf_engine+0x8c0>
    ba48:	e28d7058 	add	r7, sp, #88	; 0x58
    ba4c:	e1a0200a 	mov	r2, sl
    ba50:	e3a01001 	mov	r1, #1
    ba54:	e5673028 	strb	r3, [r7, #-40]!	; 0xffffffd8
    ba58:	e1a00007 	mov	r0, r7
    ba5c:	e12fff3b 	blx	fp
    ba60:	e2503000 	subs	r3, r0, #0
    ba64:	baffffbc 	blt	b95c <_printf_engine+0x23c>
    ba68:	e0866003 	add	r6, r6, r3
    ba6c:	e1590005 	cmp	r9, r5
    ba70:	2a0000e2 	bcs	be00 <_printf_engine+0x6e0>
    ba74:	e59d3020 	ldr	r3, [sp, #32]
    ba78:	e58d4024 	str	r4, [sp, #36]	; 0x24
    ba7c:	e1a04009 	mov	r4, r9
    ba80:	e3530000 	cmp	r3, #0
    ba84:	e1a09007 	mov	r9, r7
    ba88:	13a03030 	movne	r3, #48	; 0x30
    ba8c:	03a03020 	moveq	r3, #32
    ba90:	e1a07003 	mov	r7, r3
    ba94:	ea000003 	b	baa8 <_printf_engine+0x388>
    ba98:	e2455001 	sub	r5, r5, #1
    ba9c:	e0866000 	add	r6, r6, r0
    baa0:	e1540005 	cmp	r4, r5
    baa4:	0a0000c5 	beq	bdc0 <_printf_engine+0x6a0>
    baa8:	e1a0200a 	mov	r2, sl
    baac:	e3a01001 	mov	r1, #1
    bab0:	e1a00009 	mov	r0, r9
    bab4:	e5cd7030 	strb	r7, [sp, #48]	; 0x30
    bab8:	e12fff3b 	blx	fp
    babc:	e3500000 	cmp	r0, #0
    bac0:	aafffff4 	bge	ba98 <_printf_engine+0x378>
    bac4:	e1a03000 	mov	r3, r0
    bac8:	eaffffa3 	b	b95c <_printf_engine+0x23c>
    bacc:	e3899c01 	orr	r9, r9, #256	; 0x100
    bad0:	e59d3014 	ldr	r3, [sp, #20]
    bad4:	e1a01009 	mov	r1, r9
    bad8:	e28d0034 	add	r0, sp, #52	; 0x34
    badc:	e2833007 	add	r3, r3, #7
    bae0:	e3c33007 	bic	r3, r3, #7
    bae4:	e2832008 	add	r2, r3, #8
    bae8:	e58d2014 	str	r2, [sp, #20]
    baec:	ed930b00 	vldr	d0, [r3]
    baf0:	ebfffe0a 	bl	b320 <double_to_string.constprop.2>
    baf4:	e1a08000 	mov	r8, r0
    baf8:	e1a00008 	mov	r0, r8
    bafc:	e3190b02 	tst	r9, #2048	; 0x800
    bb00:	0affffc4 	beq	ba18 <_printf_engine+0x2f8>
    bb04:	e1a0200a 	mov	r2, sl
    bb08:	e3e01000 	mvn	r1, #0
    bb0c:	e12fff3b 	blx	fp
    bb10:	e2503000 	subs	r3, r0, #0
    bb14:	baffff90 	blt	b95c <_printf_engine+0x23c>
    bb18:	e1a08003 	mov	r8, r3
    bb1c:	e0866003 	add	r6, r6, r3
    bb20:	e1530005 	cmp	r3, r5
    bb24:	2a000023 	bcs	bbb8 <_printf_engine+0x498>
    bb28:	e28d7030 	add	r7, sp, #48	; 0x30
    bb2c:	e3a09020 	mov	r9, #32
    bb30:	ea000003 	b	bb44 <_printf_engine+0x424>
    bb34:	e2455001 	sub	r5, r5, #1
    bb38:	e0866000 	add	r6, r6, r0
    bb3c:	e1580005 	cmp	r8, r5
    bb40:	0a00001c 	beq	bbb8 <_printf_engine+0x498>
    bb44:	e1a0200a 	mov	r2, sl
    bb48:	e3a01001 	mov	r1, #1
    bb4c:	e1a00007 	mov	r0, r7
    bb50:	e5cd9030 	strb	r9, [sp, #48]	; 0x30
    bb54:	e12fff3b 	blx	fp
    bb58:	e3500000 	cmp	r0, #0
    bb5c:	aafffff4 	bge	bb34 <_printf_engine+0x414>
    bb60:	eaffffd7 	b	bac4 <_printf_engine+0x3a4>
    bb64:	e3899c01 	orr	r9, r9, #256	; 0x100
    bb68:	e59d3014 	ldr	r3, [sp, #20]
    bb6c:	e1a01009 	mov	r1, r9
    bb70:	e28d0034 	add	r0, sp, #52	; 0x34
    bb74:	e2833007 	add	r3, r3, #7
    bb78:	e3c33007 	bic	r3, r3, #7
    bb7c:	e2832008 	add	r2, r3, #8
    bb80:	e58d2014 	str	r2, [sp, #20]
    bb84:	ed930b00 	vldr	d0, [r3]
    bb88:	ebfffca5 	bl	ae24 <double_to_hexstring.isra.0>
    bb8c:	e1a08000 	mov	r8, r0
    bb90:	eaffffd8 	b	baf8 <_printf_engine+0x3d8>
    bb94:	e59d3014 	ldr	r3, [sp, #20]
    bb98:	e3190002 	tst	r9, #2
    bb9c:	e2832004 	add	r2, r3, #4
    bba0:	e5933000 	ldr	r3, [r3]
    bba4:	0a0000bc 	beq	be9c <_printf_engine+0x77c>
    bba8:	e58d2014 	str	r2, [sp, #20]
    bbac:	e3a02000 	mov	r2, #0
    bbb0:	e5836000 	str	r6, [r3]
    bbb4:	e5832004 	str	r2, [r3, #4]
    bbb8:	e1a00004 	mov	r0, r4
    bbbc:	eafffee9 	b	b768 <_printf_engine+0x48>
    bbc0:	e3190001 	tst	r9, #1
    bbc4:	1a000094 	bne	be1c <_printf_engine+0x6fc>
    bbc8:	e3190008 	tst	r9, #8
    bbcc:	1a0000bf 	bne	bed0 <_printf_engine+0x7b0>
    bbd0:	e3190004 	tst	r9, #4
    bbd4:	0a0000d0 	beq	bf1c <_printf_engine+0x7fc>
    bbd8:	e59d1014 	ldr	r1, [sp, #20]
    bbdc:	e3a03000 	mov	r3, #0
    bbe0:	e2811004 	add	r1, r1, #4
    bbe4:	e15120b4 	ldrh	r2, [r1, #-4]
    bbe8:	e58d1014 	str	r1, [sp, #20]
    bbec:	eaffff6b 	b	b9a0 <_printf_engine+0x280>
    bbf0:	e1550000 	cmp	r5, r0
    bbf4:	9a000072 	bls	bdc4 <_printf_engine+0x6a4>
    bbf8:	e28d7030 	add	r7, sp, #48	; 0x30
    bbfc:	eaffff9c 	b	ba74 <_printf_engine+0x354>
    bc00:	e3899010 	orr	r9, r9, #16
    bc04:	eafffeeb 	b	b7b8 <_printf_engine+0x98>
    bc08:	e3899080 	orr	r9, r9, #128	; 0x80
    bc0c:	eafffee9 	b	b7b8 <_printf_engine+0x98>
    bc10:	e28d7058 	add	r7, sp, #88	; 0x58
    bc14:	e3a03025 	mov	r3, #37	; 0x25
    bc18:	e1a0200a 	mov	r2, sl
    bc1c:	e3a01001 	mov	r1, #1
    bc20:	e5673028 	strb	r3, [r7, #-40]!	; 0xffffffd8
    bc24:	e1a00007 	mov	r0, r7
    bc28:	e12fff3b 	blx	fp
    bc2c:	e2503000 	subs	r3, r0, #0
    bc30:	baffff49 	blt	b95c <_printf_engine+0x23c>
    bc34:	e0836006 	add	r6, r3, r6
    bc38:	e1a00004 	mov	r0, r4
    bc3c:	eafffec9 	b	b768 <_printf_engine+0x48>
    bc40:	e3899a02 	orr	r9, r9, #8192	; 0x2000
    bc44:	eafffedb 	b	b7b8 <_printf_engine+0x98>
    bc48:	e3899c02 	orr	r9, r9, #512	; 0x200
    bc4c:	eafffed9 	b	b7b8 <_printf_engine+0x98>
    bc50:	e3899b02 	orr	r9, r9, #2048	; 0x800
    bc54:	eafffed7 	b	b7b8 <_printf_engine+0x98>
    bc58:	e3580030 	cmp	r8, #48	; 0x30
    bc5c:	03550000 	cmpeq	r5, #0
    bc60:	e3a0300a 	mov	r3, #10
    bc64:	e2488030 	sub	r8, r8, #48	; 0x30
    bc68:	03899a01 	orreq	r9, r9, #4096	; 0x1000
    bc6c:	e0258593 	mla	r5, r3, r5, r8
    bc70:	eafffed0 	b	b7b8 <_printf_engine+0x98>
    bc74:	e3899c01 	orr	r9, r9, #256	; 0x100
    bc78:	e3190002 	tst	r9, #2
    bc7c:	159d3014 	ldrne	r3, [sp, #20]
    bc80:	1affff41 	bne	b98c <_printf_engine+0x26c>
    bc84:	eaffffcd 	b	bbc0 <_printf_engine+0x4a0>
    bc88:	e59d5014 	ldr	r5, [sp, #20]
    bc8c:	e28d7058 	add	r7, sp, #88	; 0x58
    bc90:	e1a0200a 	mov	r2, sl
    bc94:	e3a01001 	mov	r1, #1
    bc98:	e5953000 	ldr	r3, [r5]
    bc9c:	e5673028 	strb	r3, [r7, #-40]!	; 0xffffffd8
    bca0:	e1a00007 	mov	r0, r7
    bca4:	e12fff3b 	blx	fp
    bca8:	e2503000 	subs	r3, r0, #0
    bcac:	baffff2a 	blt	b95c <_printf_engine+0x23c>
    bcb0:	e2852004 	add	r2, r5, #4
    bcb4:	e0866003 	add	r6, r6, r3
    bcb8:	e58d2014 	str	r2, [sp, #20]
    bcbc:	eaffffbd 	b	bbb8 <_printf_engine+0x498>
    bcc0:	e3190001 	tst	r9, #1
    bcc4:	13899002 	orrne	r9, r9, #2
    bcc8:	e3899001 	orr	r9, r9, #1
    bccc:	eafffeb9 	b	b7b8 <_printf_engine+0x98>
    bcd0:	e3899020 	orr	r9, r9, #32
    bcd4:	eafffeb7 	b	b7b8 <_printf_engine+0x98>
    bcd8:	e3899040 	orr	r9, r9, #64	; 0x40
    bcdc:	eafffeb5 	b	b7b8 <_printf_engine+0x98>
    bce0:	e3190002 	tst	r9, #2
    bce4:	159d3014 	ldrne	r3, [sp, #20]
    bce8:	1a000055 	bne	be44 <_printf_engine+0x724>
    bcec:	e3190001 	tst	r9, #1
    bcf0:	1a000082 	bne	bf00 <_printf_engine+0x7e0>
    bcf4:	e3190008 	tst	r9, #8
    bcf8:	0a000098 	beq	bf60 <_printf_engine+0x840>
    bcfc:	e59d1014 	ldr	r1, [sp, #20]
    bd00:	e3a03000 	mov	r3, #0
    bd04:	e2811004 	add	r1, r1, #4
    bd08:	e5512004 	ldrb	r2, [r1, #-4]
    bd0c:	e58d1014 	str	r1, [sp, #20]
    bd10:	ea000050 	b	be58 <_printf_engine+0x738>
    bd14:	e3190002 	tst	r9, #2
    bd18:	1a000057 	bne	be7c <_printf_engine+0x75c>
    bd1c:	e3190001 	tst	r9, #1
    bd20:	1a000070 	bne	bee8 <_printf_engine+0x7c8>
    bd24:	e3190008 	tst	r9, #8
    bd28:	0a000084 	beq	bf40 <_printf_engine+0x820>
    bd2c:	e59d1014 	ldr	r1, [sp, #20]
    bd30:	e2811004 	add	r1, r1, #4
    bd34:	e15120d4 	ldrsb	r2, [r1, #-4]
    bd38:	e58d1014 	str	r1, [sp, #20]
    bd3c:	e1a03fc2 	asr	r3, r2, #31
    bd40:	ea000053 	b	be94 <_printf_engine+0x774>
    bd44:	e59d3014 	ldr	r3, [sp, #20]
    bd48:	e3c99a01 	bic	r9, r9, #4096	; 0x1000
    bd4c:	e2833004 	add	r3, r3, #4
    bd50:	e5138004 	ldr	r8, [r3, #-4]
    bd54:	e58d3014 	str	r3, [sp, #20]
    bd58:	e59d301c 	ldr	r3, [sp, #28]
    bd5c:	e3580000 	cmp	r8, #0
    bd60:	01a08003 	moveq	r8, r3
    bd64:	eaffff63 	b	baf8 <_printf_engine+0x3d8>
    bd68:	e3190004 	tst	r9, #4
    bd6c:	13899008 	orrne	r9, r9, #8
    bd70:	e3899004 	orr	r9, r9, #4
    bd74:	eafffe8f 	b	b7b8 <_printf_engine+0x98>
    bd78:	e28d7058 	add	r7, sp, #88	; 0x58
    bd7c:	e3a03025 	mov	r3, #37	; 0x25
    bd80:	e1a0200a 	mov	r2, sl
    bd84:	e3a01001 	mov	r1, #1
    bd88:	e5673028 	strb	r3, [r7, #-40]!	; 0xffffffd8
    bd8c:	e1a00007 	mov	r0, r7
    bd90:	e12fff3b 	blx	fp
    bd94:	e2505000 	subs	r5, r0, #0
    bd98:	ba00008e 	blt	bfd8 <_printf_engine+0x8b8>
    bd9c:	e1a00007 	mov	r0, r7
    bda0:	e1a0200a 	mov	r2, sl
    bda4:	e3a01001 	mov	r1, #1
    bda8:	e5cd8030 	strb	r8, [sp, #48]	; 0x30
    bdac:	e12fff3b 	blx	fp
    bdb0:	e2503000 	subs	r3, r0, #0
    bdb4:	bafffee8 	blt	b95c <_printf_engine+0x23c>
    bdb8:	e0856006 	add	r6, r5, r6
    bdbc:	eaffff9c 	b	bc34 <_printf_engine+0x514>
    bdc0:	e59d4024 	ldr	r4, [sp, #36]	; 0x24
    bdc4:	e59d3020 	ldr	r3, [sp, #32]
    bdc8:	e3530000 	cmp	r3, #0
    bdcc:	1a00000b 	bne	be00 <_printf_engine+0x6e0>
    bdd0:	e5dd302f 	ldrb	r3, [sp, #47]	; 0x2f
    bdd4:	e3530000 	cmp	r3, #0
    bdd8:	0a000008 	beq	be00 <_printf_engine+0x6e0>
    bddc:	e28d7058 	add	r7, sp, #88	; 0x58
    bde0:	e1a0200a 	mov	r2, sl
    bde4:	e3a01001 	mov	r1, #1
    bde8:	e5673028 	strb	r3, [r7, #-40]!	; 0xffffffd8
    bdec:	e1a00007 	mov	r0, r7
    bdf0:	e12fff3b 	blx	fp
    bdf4:	e2503000 	subs	r3, r0, #0
    bdf8:	bafffed7 	blt	b95c <_printf_engine+0x23c>
    bdfc:	e0866003 	add	r6, r6, r3
    be00:	e1a00008 	mov	r0, r8
    be04:	e1a0200a 	mov	r2, sl
    be08:	e3e01000 	mvn	r1, #0
    be0c:	e12fff3b 	blx	fp
    be10:	e2503000 	subs	r3, r0, #0
    be14:	bafffed0 	blt	b95c <_printf_engine+0x23c>
    be18:	eaffff85 	b	bc34 <_printf_engine+0x514>
    be1c:	e59d3014 	ldr	r3, [sp, #20]
    be20:	e2833004 	add	r3, r3, #4
    be24:	e5132004 	ldr	r2, [r3, #-4]
    be28:	e58d3014 	str	r3, [sp, #20]
    be2c:	e3a03000 	mov	r3, #0
    be30:	eafffeda 	b	b9a0 <_printf_engine+0x280>
    be34:	e59d2020 	ldr	r2, [sp, #32]
    be38:	e3520000 	cmp	r2, #0
    be3c:	1affff01 	bne	ba48 <_printf_engine+0x328>
    be40:	eaffffe5 	b	bddc <_printf_engine+0x6bc>
    be44:	e2833007 	add	r3, r3, #7
    be48:	e3c33007 	bic	r3, r3, #7
    be4c:	e2832008 	add	r2, r3, #8
    be50:	e58d2014 	str	r2, [sp, #20]
    be54:	e1c320d0 	ldrd	r2, [r3]
    be58:	e28d102f 	add	r1, sp, #47	; 0x2f
    be5c:	e58d9004 	str	r9, [sp, #4]
    be60:	e28d0034 	add	r0, sp, #52	; 0x34
    be64:	e58d1008 	str	r1, [sp, #8]
    be68:	e3a01020 	mov	r1, #32
    be6c:	e58d1000 	str	r1, [sp]
    be70:	ebfffb89 	bl	ac9c <longlong_to_string>
    be74:	e1a08000 	mov	r8, r0
    be78:	eaffff1e 	b	baf8 <_printf_engine+0x3d8>
    be7c:	e59d3014 	ldr	r3, [sp, #20]
    be80:	e2833007 	add	r3, r3, #7
    be84:	e3c33007 	bic	r3, r3, #7
    be88:	e2832008 	add	r2, r3, #8
    be8c:	e58d2014 	str	r2, [sp, #20]
    be90:	e1c320d0 	ldrd	r2, [r3]
    be94:	e3899b01 	orr	r9, r9, #1024	; 0x400
    be98:	eaffffee 	b	be58 <_printf_engine+0x738>
    be9c:	e3190001 	tst	r9, #1
    bea0:	1a000007 	bne	bec4 <_printf_engine+0x7a4>
    bea4:	e3190008 	tst	r9, #8
    bea8:	15c36000 	strbne	r6, [r3]
    beac:	158d2014 	strne	r2, [sp, #20]
    beb0:	1affff40 	bne	bbb8 <_printf_engine+0x498>
    beb4:	e3190004 	tst	r9, #4
    beb8:	11c360b0 	strhne	r6, [r3]
    bebc:	158d2014 	strne	r2, [sp, #20]
    bec0:	1affff3c 	bne	bbb8 <_printf_engine+0x498>
    bec4:	e5836000 	str	r6, [r3]
    bec8:	e58d2014 	str	r2, [sp, #20]
    becc:	eaffff39 	b	bbb8 <_printf_engine+0x498>
    bed0:	e59d1014 	ldr	r1, [sp, #20]
    bed4:	e3a03000 	mov	r3, #0
    bed8:	e2811004 	add	r1, r1, #4
    bedc:	e5512004 	ldrb	r2, [r1, #-4]
    bee0:	e58d1014 	str	r1, [sp, #20]
    bee4:	eafffead 	b	b9a0 <_printf_engine+0x280>
    bee8:	e59d3014 	ldr	r3, [sp, #20]
    beec:	e2833004 	add	r3, r3, #4
    bef0:	e5132004 	ldr	r2, [r3, #-4]
    bef4:	e58d3014 	str	r3, [sp, #20]
    bef8:	e1a03fc2 	asr	r3, r2, #31
    befc:	eaffffe4 	b	be94 <_printf_engine+0x774>
    bf00:	e59d3014 	ldr	r3, [sp, #20]
    bf04:	e2833004 	add	r3, r3, #4
    bf08:	e5130004 	ldr	r0, [r3, #-4]
    bf0c:	e58d3014 	str	r3, [sp, #20]
    bf10:	e3a03000 	mov	r3, #0
    bf14:	e1a02000 	mov	r2, r0
    bf18:	eaffffce 	b	be58 <_printf_engine+0x738>
    bf1c:	e3190010 	tst	r9, #16
    bf20:	1affffbd 	bne	be1c <_printf_engine+0x6fc>
    bf24:	e59d3014 	ldr	r3, [sp, #20]
    bf28:	e3190020 	tst	r9, #32
    bf2c:	1afffe96 	bne	b98c <_printf_engine+0x26c>
    bf30:	e4932004 	ldr	r2, [r3], #4
    bf34:	e58d3014 	str	r3, [sp, #20]
    bf38:	e3a03000 	mov	r3, #0
    bf3c:	eafffe97 	b	b9a0 <_printf_engine+0x280>
    bf40:	e3190004 	tst	r9, #4
    bf44:	0a00000d 	beq	bf80 <_printf_engine+0x860>
    bf48:	e59d1014 	ldr	r1, [sp, #20]
    bf4c:	e2811004 	add	r1, r1, #4
    bf50:	e15120f4 	ldrsh	r2, [r1, #-4]
    bf54:	e58d1014 	str	r1, [sp, #20]
    bf58:	e1a03fc2 	asr	r3, r2, #31
    bf5c:	eaffffcc 	b	be94 <_printf_engine+0x774>
    bf60:	e3190004 	tst	r9, #4
    bf64:	0a000011 	beq	bfb0 <_printf_engine+0x890>
    bf68:	e59d1014 	ldr	r1, [sp, #20]
    bf6c:	e3a03000 	mov	r3, #0
    bf70:	e2811004 	add	r1, r1, #4
    bf74:	e15120b4 	ldrh	r2, [r1, #-4]
    bf78:	e58d1014 	str	r1, [sp, #20]
    bf7c:	eaffffb5 	b	be58 <_printf_engine+0x738>
    bf80:	e3190010 	tst	r9, #16
    bf84:	1affffd7 	bne	bee8 <_printf_engine+0x7c8>
    bf88:	e3190020 	tst	r9, #32
    bf8c:	1affffba 	bne	be7c <_printf_engine+0x75c>
    bf90:	e3190040 	tst	r9, #64	; 0x40
    bf94:	e59d2014 	ldr	r2, [sp, #20]
    bf98:	e2823004 	add	r3, r2, #4
    bf9c:	059d2014 	ldreq	r2, [sp, #20]
    bfa0:	e5922000 	ldr	r2, [r2]
    bfa4:	e58d3014 	str	r3, [sp, #20]
    bfa8:	e1a03fc2 	asr	r3, r2, #31
    bfac:	eaffffb8 	b	be94 <_printf_engine+0x774>
    bfb0:	e3190010 	tst	r9, #16
    bfb4:	1affffd1 	bne	bf00 <_printf_engine+0x7e0>
    bfb8:	e59d3014 	ldr	r3, [sp, #20]
    bfbc:	e3190020 	tst	r9, #32
    bfc0:	1affff9f 	bne	be44 <_printf_engine+0x724>
    bfc4:	e4930004 	ldr	r0, [r3], #4
    bfc8:	e58d3014 	str	r3, [sp, #20]
    bfcc:	e3a03000 	mov	r3, #0
    bfd0:	e1a02000 	mov	r2, r0
    bfd4:	eaffff9f 	b	be58 <_printf_engine+0x738>
    bfd8:	e1a03005 	mov	r3, r5
    bfdc:	eafffe5e 	b	b95c <_printf_engine+0x23c>
    bfe0:	e1500005 	cmp	r0, r5
    bfe4:	3affff03 	bcc	bbf8 <_printf_engine+0x4d8>
    bfe8:	eaffff79 	b	bdd4 <_printf_engine+0x6b4>
    bfec:	eb00002c 	bl	c0a4 <__stack_chk_fail>
    bff0:	000018d8 	.word	0x000018d8
    bff4:	0000000c 	.word	0x0000000c
    bff8:	000011f0 	.word	0x000011f0

0000bffc <rand>:
    bffc:	e59f3020 	ldr	r3, [pc, #32]	; c024 <rand+0x28>
    c000:	e306160d 	movw	r1, #26125	; 0x660d
    c004:	e3401019 	movt	r1, #25
    c008:	e08f3003 	add	r3, pc, r3
    c00c:	e30f235f 	movw	r2, #62303	; 0xf35f
    c010:	e3432c6e 	movt	r2, #15470	; 0x3c6e
    c014:	e5930000 	ldr	r0, [r3]
    c018:	e0202091 	mla	r0, r1, r0, r2
    c01c:	e5830000 	str	r0, [r3]
    c020:	e12fff1e 	bx	lr
    c024:	00001080 	.word	0x00001080

0000c028 <vfprintf>:
    c028:	e5903010 	ldr	r3, [r0, #16]
    c02c:	e5900000 	ldr	r0, [r0]
    c030:	e12fff13 	bx	r3

0000c034 <fprintf>:
    c034:	e92d000e 	push	{r1, r2, r3}
    c038:	e59f3058 	ldr	r3, [pc, #88]	; c098 <fprintf+0x64>
    c03c:	e59fc058 	ldr	ip, [pc, #88]	; c09c <fprintf+0x68>
    c040:	e08f3003 	add	r3, pc, r3
    c044:	e92d4010 	push	{r4, lr}
    c048:	e24dd00c 	sub	sp, sp, #12
    c04c:	e793400c 	ldr	r4, [r3, ip]
    c050:	e28de018 	add	lr, sp, #24
    c054:	e5903010 	ldr	r3, [r0, #16]
    c058:	e1a0200e 	mov	r2, lr
    c05c:	e59d1014 	ldr	r1, [sp, #20]
    c060:	e594c000 	ldr	ip, [r4]
    c064:	e5900000 	ldr	r0, [r0]
    c068:	e58de000 	str	lr, [sp]
    c06c:	e58dc004 	str	ip, [sp, #4]
    c070:	e12fff33 	blx	r3
    c074:	e59d2004 	ldr	r2, [sp, #4]
    c078:	e5943000 	ldr	r3, [r4]
    c07c:	e1520003 	cmp	r2, r3
    c080:	1a000003 	bne	c094 <fprintf+0x60>
    c084:	e28dd00c 	add	sp, sp, #12
    c088:	e8bd4010 	pop	{r4, lr}
    c08c:	e28dd00c 	add	sp, sp, #12
    c090:	e12fff1e 	bx	lr
    c094:	eb000002 	bl	c0a4 <__stack_chk_fail>
    c098:	00000fd4 	.word	0x00000fd4
    c09c:	0000000c 	.word	0x0000000c

0000c0a0 <raise>:
    c0a0:	e12fff1e 	bx	lr

0000c0a4 <__stack_chk_fail>:
    c0a4:	e59f3030 	ldr	r3, [pc, #48]	; c0dc <__stack_chk_fail+0x38>
    c0a8:	e24dd008 	sub	sp, sp, #8
    c0ac:	e59f202c 	ldr	r2, [pc, #44]	; c0e0 <__stack_chk_fail+0x3c>
    c0b0:	e3a01030 	mov	r1, #48	; 0x30
    c0b4:	e08f3003 	add	r3, pc, r3
    c0b8:	e7933002 	ldr	r3, [r3, r2]
    c0bc:	e5933000 	ldr	r3, [r3]
    c0c0:	e58d3004 	str	r3, [sp, #4]
    c0c4:	e58d1000 	str	r1, [sp]
    c0c8:	e59d2000 	ldr	r2, [sp]
    c0cc:	e59d3000 	ldr	r3, [sp]
    c0d0:	e1520003 	cmp	r2, r3
    c0d4:	0afffffb 	beq	c0c8 <__stack_chk_fail+0x24>
    c0d8:	eafffff9 	b	c0c4 <__stack_chk_fail+0x20>
    c0dc:	00000f60 	.word	0x00000f60
    c0e0:	0000000c 	.word	0x0000000c

0000c0e4 <memset>:
    c0e4:	e2603000 	rsb	r3, r0, #0
    c0e8:	e2033003 	and	r3, r3, #3
    c0ec:	e1530002 	cmp	r3, r2
    c0f0:	2a00001b 	bcs	c164 <memset+0x80>
    c0f4:	e92d4010 	push	{r4, lr}
    c0f8:	e6ef4071 	uxtb	r4, r1
    c0fc:	e3530000 	cmp	r3, #0
    c100:	e184e404 	orr	lr, r4, r4, lsl #8
    c104:	e0422003 	sub	r2, r2, r3
    c108:	01a03000 	moveq	r3, r0
    c10c:	e18ee80e 	orr	lr, lr, lr, lsl #16
    c110:	0a000004 	beq	c128 <memset+0x44>
    c114:	e080c003 	add	ip, r0, r3
    c118:	e1a03000 	mov	r3, r0
    c11c:	e4c34001 	strb	r4, [r3], #1
    c120:	e15c0003 	cmp	ip, r3
    c124:	1afffffc 	bne	c11c <memset+0x38>
    c128:	e1b0c122 	lsrs	ip, r2, #2
    c12c:	0a000003 	beq	c140 <memset+0x5c>
    c130:	e083c10c 	add	ip, r3, ip, lsl #2
    c134:	e483e004 	str	lr, [r3], #4
    c138:	e15c0003 	cmp	ip, r3
    c13c:	1afffffc 	bne	c134 <memset+0x50>
    c140:	e2022003 	and	r2, r2, #3
    c144:	e3520000 	cmp	r2, #0
    c148:	08bd8010 	popeq	{r4, pc}
    c14c:	e6ef1071 	uxtb	r1, r1
    c150:	e0832002 	add	r2, r3, r2
    c154:	e4c31001 	strb	r1, [r3], #1
    c158:	e1520003 	cmp	r2, r3
    c15c:	1afffffc 	bne	c154 <memset+0x70>
    c160:	e8bd8010 	pop	{r4, pc}
    c164:	e3520000 	cmp	r2, #0
    c168:	e1a03000 	mov	r3, r0
    c16c:	012fff1e 	bxeq	lr
    c170:	e6ef1071 	uxtb	r1, r1
    c174:	e0802002 	add	r2, r0, r2
    c178:	e4c31001 	strb	r1, [r3], #1
    c17c:	e1520003 	cmp	r2, r3
    c180:	1afffffc 	bne	c178 <memset+0x94>
    c184:	e12fff1e 	bx	lr

0000c188 <strlen>:
    c188:	e5d03000 	ldrb	r3, [r0]
    c18c:	e3530000 	cmp	r3, #0
    c190:	0a000006 	beq	c1b0 <strlen+0x28>
    c194:	e1a03000 	mov	r3, r0
    c198:	e3a00000 	mov	r0, #0
    c19c:	e5f32001 	ldrb	r2, [r3, #1]!
    c1a0:	e2800001 	add	r0, r0, #1
    c1a4:	e3520000 	cmp	r2, #0
    c1a8:	1afffffb 	bne	c19c <strlen+0x14>
    c1ac:	e12fff1e 	bx	lr
    c1b0:	e1a00003 	mov	r0, r3
    c1b4:	e12fff1e 	bx	lr

0000c1b8 <strnlen>:
    c1b8:	e3510000 	cmp	r1, #0
    c1bc:	0a000010 	beq	c204 <strnlen+0x4c>
    c1c0:	e5d03000 	ldrb	r3, [r0]
    c1c4:	e3530000 	cmp	r3, #0
    c1c8:	0a00000f 	beq	c20c <strnlen+0x54>
    c1cc:	e0801001 	add	r1, r0, r1
    c1d0:	e2803001 	add	r3, r0, #1
    c1d4:	ea000004 	b	c1ec <strnlen+0x34>
    c1d8:	e5d32000 	ldrb	r2, [r3]
    c1dc:	e283c001 	add	ip, r3, #1
    c1e0:	e3520000 	cmp	r2, #0
    c1e4:	0a000004 	beq	c1fc <strnlen+0x44>
    c1e8:	e1a0300c 	mov	r3, ip
    c1ec:	e1510003 	cmp	r1, r3
    c1f0:	1afffff8 	bne	c1d8 <strnlen+0x20>
    c1f4:	e0410000 	sub	r0, r1, r0
    c1f8:	e12fff1e 	bx	lr
    c1fc:	e0430000 	sub	r0, r3, r0
    c200:	e12fff1e 	bx	lr
    c204:	e1a00001 	mov	r0, r1
    c208:	e12fff1e 	bx	lr
    c20c:	e1a00003 	mov	r0, r3
    c210:	e12fff1e 	bx	lr

0000c214 <__aeabi_drsub>:
    c214:	f081 4100 	eor.w	r1, r1, #2147483648	; 0x80000000
    c218:	e002      	b.n	c220 <__adddf3>
    c21a:	bf00      	nop

0000c21c <__aeabi_dsub>:
    c21c:	f083 4300 	eor.w	r3, r3, #2147483648	; 0x80000000

0000c220 <__adddf3>:
    c220:	b530      	push	{r4, r5, lr}
    c222:	ea4f 0441 	mov.w	r4, r1, lsl #1
    c226:	ea4f 0543 	mov.w	r5, r3, lsl #1
    c22a:	ea94 0f05 	teq	r4, r5
    c22e:	bf08      	it	eq
    c230:	ea90 0f02 	teqeq	r0, r2
    c234:	bf1f      	itttt	ne
    c236:	ea54 0c00 	orrsne.w	ip, r4, r0
    c23a:	ea55 0c02 	orrsne.w	ip, r5, r2
    c23e:	ea7f 5c64 	mvnsne.w	ip, r4, asr #21
    c242:	ea7f 5c65 	mvnsne.w	ip, r5, asr #21
    c246:	f000 80e2 	beq.w	c40e <__adddf3+0x1ee>
    c24a:	ea4f 5454 	mov.w	r4, r4, lsr #21
    c24e:	ebd4 5555 	rsbs	r5, r4, r5, lsr #21
    c252:	bfb8      	it	lt
    c254:	426d      	neglt	r5, r5
    c256:	dd0c      	ble.n	c272 <__adddf3+0x52>
    c258:	442c      	add	r4, r5
    c25a:	ea80 0202 	eor.w	r2, r0, r2
    c25e:	ea81 0303 	eor.w	r3, r1, r3
    c262:	ea82 0000 	eor.w	r0, r2, r0
    c266:	ea83 0101 	eor.w	r1, r3, r1
    c26a:	ea80 0202 	eor.w	r2, r0, r2
    c26e:	ea81 0303 	eor.w	r3, r1, r3
    c272:	2d36      	cmp	r5, #54	; 0x36
    c274:	bf88      	it	hi
    c276:	bd30      	pophi	{r4, r5, pc}
    c278:	f011 4f00 	tst.w	r1, #2147483648	; 0x80000000
    c27c:	ea4f 3101 	mov.w	r1, r1, lsl #12
    c280:	f44f 1c80 	mov.w	ip, #1048576	; 0x100000
    c284:	ea4c 3111 	orr.w	r1, ip, r1, lsr #12
    c288:	d002      	beq.n	c290 <__adddf3+0x70>
    c28a:	4240      	negs	r0, r0
    c28c:	eb61 0141 	sbc.w	r1, r1, r1, lsl #1
    c290:	f013 4f00 	tst.w	r3, #2147483648	; 0x80000000
    c294:	ea4f 3303 	mov.w	r3, r3, lsl #12
    c298:	ea4c 3313 	orr.w	r3, ip, r3, lsr #12
    c29c:	d002      	beq.n	c2a4 <__adddf3+0x84>
    c29e:	4252      	negs	r2, r2
    c2a0:	eb63 0343 	sbc.w	r3, r3, r3, lsl #1
    c2a4:	ea94 0f05 	teq	r4, r5
    c2a8:	f000 80a7 	beq.w	c3fa <__adddf3+0x1da>
    c2ac:	f1a4 0401 	sub.w	r4, r4, #1
    c2b0:	f1d5 0e20 	rsbs	lr, r5, #32
    c2b4:	db0d      	blt.n	c2d2 <__adddf3+0xb2>
    c2b6:	fa02 fc0e 	lsl.w	ip, r2, lr
    c2ba:	fa22 f205 	lsr.w	r2, r2, r5
    c2be:	1880      	adds	r0, r0, r2
    c2c0:	f141 0100 	adc.w	r1, r1, #0
    c2c4:	fa03 f20e 	lsl.w	r2, r3, lr
    c2c8:	1880      	adds	r0, r0, r2
    c2ca:	fa43 f305 	asr.w	r3, r3, r5
    c2ce:	4159      	adcs	r1, r3
    c2d0:	e00e      	b.n	c2f0 <__adddf3+0xd0>
    c2d2:	f1a5 0520 	sub.w	r5, r5, #32
    c2d6:	f10e 0e20 	add.w	lr, lr, #32
    c2da:	2a01      	cmp	r2, #1
    c2dc:	fa03 fc0e 	lsl.w	ip, r3, lr
    c2e0:	bf28      	it	cs
    c2e2:	f04c 0c02 	orrcs.w	ip, ip, #2
    c2e6:	fa43 f305 	asr.w	r3, r3, r5
    c2ea:	18c0      	adds	r0, r0, r3
    c2ec:	eb51 71e3 	adcs.w	r1, r1, r3, asr #31
    c2f0:	f001 4500 	and.w	r5, r1, #2147483648	; 0x80000000
    c2f4:	d507      	bpl.n	c306 <__adddf3+0xe6>
    c2f6:	f04f 0e00 	mov.w	lr, #0
    c2fa:	f1dc 0c00 	rsbs	ip, ip, #0
    c2fe:	eb7e 0000 	sbcs.w	r0, lr, r0
    c302:	eb6e 0101 	sbc.w	r1, lr, r1
    c306:	f5b1 1f80 	cmp.w	r1, #1048576	; 0x100000
    c30a:	d31b      	bcc.n	c344 <__adddf3+0x124>
    c30c:	f5b1 1f00 	cmp.w	r1, #2097152	; 0x200000
    c310:	d30c      	bcc.n	c32c <__adddf3+0x10c>
    c312:	0849      	lsrs	r1, r1, #1
    c314:	ea5f 0030 	movs.w	r0, r0, rrx
    c318:	ea4f 0c3c 	mov.w	ip, ip, rrx
    c31c:	f104 0401 	add.w	r4, r4, #1
    c320:	ea4f 5244 	mov.w	r2, r4, lsl #21
    c324:	f512 0f80 	cmn.w	r2, #4194304	; 0x400000
    c328:	f080 809a 	bcs.w	c460 <__adddf3+0x240>
    c32c:	f1bc 4f00 	cmp.w	ip, #2147483648	; 0x80000000
    c330:	bf08      	it	eq
    c332:	ea5f 0c50 	movseq.w	ip, r0, lsr #1
    c336:	f150 0000 	adcs.w	r0, r0, #0
    c33a:	eb41 5104 	adc.w	r1, r1, r4, lsl #20
    c33e:	ea41 0105 	orr.w	r1, r1, r5
    c342:	bd30      	pop	{r4, r5, pc}
    c344:	ea5f 0c4c 	movs.w	ip, ip, lsl #1
    c348:	4140      	adcs	r0, r0
    c34a:	eb41 0101 	adc.w	r1, r1, r1
    c34e:	f411 1f80 	tst.w	r1, #1048576	; 0x100000
    c352:	f1a4 0401 	sub.w	r4, r4, #1
    c356:	d1e9      	bne.n	c32c <__adddf3+0x10c>
    c358:	f091 0f00 	teq	r1, #0
    c35c:	bf04      	itt	eq
    c35e:	4601      	moveq	r1, r0
    c360:	2000      	moveq	r0, #0
    c362:	fab1 f381 	clz	r3, r1
    c366:	bf08      	it	eq
    c368:	3320      	addeq	r3, #32
    c36a:	f1a3 030b 	sub.w	r3, r3, #11
    c36e:	f1b3 0220 	subs.w	r2, r3, #32
    c372:	da0c      	bge.n	c38e <__adddf3+0x16e>
    c374:	320c      	adds	r2, #12
    c376:	dd08      	ble.n	c38a <__adddf3+0x16a>
    c378:	f102 0c14 	add.w	ip, r2, #20
    c37c:	f1c2 020c 	rsb	r2, r2, #12
    c380:	fa01 f00c 	lsl.w	r0, r1, ip
    c384:	fa21 f102 	lsr.w	r1, r1, r2
    c388:	e00c      	b.n	c3a4 <__adddf3+0x184>
    c38a:	f102 0214 	add.w	r2, r2, #20
    c38e:	bfd8      	it	le
    c390:	f1c2 0c20 	rsble	ip, r2, #32
    c394:	fa01 f102 	lsl.w	r1, r1, r2
    c398:	fa20 fc0c 	lsr.w	ip, r0, ip
    c39c:	bfdc      	itt	le
    c39e:	ea41 010c 	orrle.w	r1, r1, ip
    c3a2:	4090      	lslle	r0, r2
    c3a4:	1ae4      	subs	r4, r4, r3
    c3a6:	bfa2      	ittt	ge
    c3a8:	eb01 5104 	addge.w	r1, r1, r4, lsl #20
    c3ac:	4329      	orrge	r1, r5
    c3ae:	bd30      	popge	{r4, r5, pc}
    c3b0:	ea6f 0404 	mvn.w	r4, r4
    c3b4:	3c1f      	subs	r4, #31
    c3b6:	da1c      	bge.n	c3f2 <__adddf3+0x1d2>
    c3b8:	340c      	adds	r4, #12
    c3ba:	dc0e      	bgt.n	c3da <__adddf3+0x1ba>
    c3bc:	f104 0414 	add.w	r4, r4, #20
    c3c0:	f1c4 0220 	rsb	r2, r4, #32
    c3c4:	fa20 f004 	lsr.w	r0, r0, r4
    c3c8:	fa01 f302 	lsl.w	r3, r1, r2
    c3cc:	ea40 0003 	orr.w	r0, r0, r3
    c3d0:	fa21 f304 	lsr.w	r3, r1, r4
    c3d4:	ea45 0103 	orr.w	r1, r5, r3
    c3d8:	bd30      	pop	{r4, r5, pc}
    c3da:	f1c4 040c 	rsb	r4, r4, #12
    c3de:	f1c4 0220 	rsb	r2, r4, #32
    c3e2:	fa20 f002 	lsr.w	r0, r0, r2
    c3e6:	fa01 f304 	lsl.w	r3, r1, r4
    c3ea:	ea40 0003 	orr.w	r0, r0, r3
    c3ee:	4629      	mov	r1, r5
    c3f0:	bd30      	pop	{r4, r5, pc}
    c3f2:	fa21 f004 	lsr.w	r0, r1, r4
    c3f6:	4629      	mov	r1, r5
    c3f8:	bd30      	pop	{r4, r5, pc}
    c3fa:	f094 0f00 	teq	r4, #0
    c3fe:	f483 1380 	eor.w	r3, r3, #1048576	; 0x100000
    c402:	bf06      	itte	eq
    c404:	f481 1180 	eoreq.w	r1, r1, #1048576	; 0x100000
    c408:	3401      	addeq	r4, #1
    c40a:	3d01      	subne	r5, #1
    c40c:	e74e      	b.n	c2ac <__adddf3+0x8c>
    c40e:	ea7f 5c64 	mvns.w	ip, r4, asr #21
    c412:	bf18      	it	ne
    c414:	ea7f 5c65 	mvnsne.w	ip, r5, asr #21
    c418:	d029      	beq.n	c46e <__adddf3+0x24e>
    c41a:	ea94 0f05 	teq	r4, r5
    c41e:	bf08      	it	eq
    c420:	ea90 0f02 	teqeq	r0, r2
    c424:	d005      	beq.n	c432 <__adddf3+0x212>
    c426:	ea54 0c00 	orrs.w	ip, r4, r0
    c42a:	bf04      	itt	eq
    c42c:	4619      	moveq	r1, r3
    c42e:	4610      	moveq	r0, r2
    c430:	bd30      	pop	{r4, r5, pc}
    c432:	ea91 0f03 	teq	r1, r3
    c436:	bf1e      	ittt	ne
    c438:	2100      	movne	r1, #0
    c43a:	2000      	movne	r0, #0
    c43c:	bd30      	popne	{r4, r5, pc}
    c43e:	ea5f 5c54 	movs.w	ip, r4, lsr #21
    c442:	d105      	bne.n	c450 <__adddf3+0x230>
    c444:	0040      	lsls	r0, r0, #1
    c446:	4149      	adcs	r1, r1
    c448:	bf28      	it	cs
    c44a:	f041 4100 	orrcs.w	r1, r1, #2147483648	; 0x80000000
    c44e:	bd30      	pop	{r4, r5, pc}
    c450:	f514 0480 	adds.w	r4, r4, #4194304	; 0x400000
    c454:	bf3c      	itt	cc
    c456:	f501 1180 	addcc.w	r1, r1, #1048576	; 0x100000
    c45a:	bd30      	popcc	{r4, r5, pc}
    c45c:	f001 4500 	and.w	r5, r1, #2147483648	; 0x80000000
    c460:	f045 41fe 	orr.w	r1, r5, #2130706432	; 0x7f000000
    c464:	f441 0170 	orr.w	r1, r1, #15728640	; 0xf00000
    c468:	f04f 0000 	mov.w	r0, #0
    c46c:	bd30      	pop	{r4, r5, pc}
    c46e:	ea7f 5c64 	mvns.w	ip, r4, asr #21
    c472:	bf1a      	itte	ne
    c474:	4619      	movne	r1, r3
    c476:	4610      	movne	r0, r2
    c478:	ea7f 5c65 	mvnseq.w	ip, r5, asr #21
    c47c:	bf1c      	itt	ne
    c47e:	460b      	movne	r3, r1
    c480:	4602      	movne	r2, r0
    c482:	ea50 3401 	orrs.w	r4, r0, r1, lsl #12
    c486:	bf06      	itte	eq
    c488:	ea52 3503 	orrseq.w	r5, r2, r3, lsl #12
    c48c:	ea91 0f03 	teqeq	r1, r3
    c490:	f441 2100 	orrne.w	r1, r1, #524288	; 0x80000
    c494:	bd30      	pop	{r4, r5, pc}
    c496:	bf00      	nop

0000c498 <__aeabi_ui2d>:
    c498:	f090 0f00 	teq	r0, #0
    c49c:	bf04      	itt	eq
    c49e:	2100      	moveq	r1, #0
    c4a0:	4770      	bxeq	lr
    c4a2:	b530      	push	{r4, r5, lr}
    c4a4:	f44f 6480 	mov.w	r4, #1024	; 0x400
    c4a8:	f104 0432 	add.w	r4, r4, #50	; 0x32
    c4ac:	f04f 0500 	mov.w	r5, #0
    c4b0:	f04f 0100 	mov.w	r1, #0
    c4b4:	e750      	b.n	c358 <__adddf3+0x138>
    c4b6:	bf00      	nop

0000c4b8 <__aeabi_i2d>:
    c4b8:	f090 0f00 	teq	r0, #0
    c4bc:	bf04      	itt	eq
    c4be:	2100      	moveq	r1, #0
    c4c0:	4770      	bxeq	lr
    c4c2:	b530      	push	{r4, r5, lr}
    c4c4:	f44f 6480 	mov.w	r4, #1024	; 0x400
    c4c8:	f104 0432 	add.w	r4, r4, #50	; 0x32
    c4cc:	f010 4500 	ands.w	r5, r0, #2147483648	; 0x80000000
    c4d0:	bf48      	it	mi
    c4d2:	4240      	negmi	r0, r0
    c4d4:	f04f 0100 	mov.w	r1, #0
    c4d8:	e73e      	b.n	c358 <__adddf3+0x138>
    c4da:	bf00      	nop

0000c4dc <__aeabi_f2d>:
    c4dc:	0042      	lsls	r2, r0, #1
    c4de:	ea4f 01e2 	mov.w	r1, r2, asr #3
    c4e2:	ea4f 0131 	mov.w	r1, r1, rrx
    c4e6:	ea4f 7002 	mov.w	r0, r2, lsl #28
    c4ea:	bf1f      	itttt	ne
    c4ec:	f012 437f 	andsne.w	r3, r2, #4278190080	; 0xff000000
    c4f0:	f093 4f7f 	teqne	r3, #4278190080	; 0xff000000
    c4f4:	f081 5160 	eorne.w	r1, r1, #939524096	; 0x38000000
    c4f8:	4770      	bxne	lr
    c4fa:	f032 427f 	bics.w	r2, r2, #4278190080	; 0xff000000
    c4fe:	bf08      	it	eq
    c500:	4770      	bxeq	lr
    c502:	f093 4f7f 	teq	r3, #4278190080	; 0xff000000
    c506:	bf04      	itt	eq
    c508:	f441 2100 	orreq.w	r1, r1, #524288	; 0x80000
    c50c:	4770      	bxeq	lr
    c50e:	b530      	push	{r4, r5, lr}
    c510:	f44f 7460 	mov.w	r4, #896	; 0x380
    c514:	f001 4500 	and.w	r5, r1, #2147483648	; 0x80000000
    c518:	f021 4100 	bic.w	r1, r1, #2147483648	; 0x80000000
    c51c:	e71c      	b.n	c358 <__adddf3+0x138>
    c51e:	bf00      	nop

0000c520 <__aeabi_ul2d>:
    c520:	ea50 0201 	orrs.w	r2, r0, r1
    c524:	bf08      	it	eq
    c526:	4770      	bxeq	lr
    c528:	b530      	push	{r4, r5, lr}
    c52a:	f04f 0500 	mov.w	r5, #0
    c52e:	e00a      	b.n	c546 <__aeabi_l2d+0x16>

0000c530 <__aeabi_l2d>:
    c530:	ea50 0201 	orrs.w	r2, r0, r1
    c534:	bf08      	it	eq
    c536:	4770      	bxeq	lr
    c538:	b530      	push	{r4, r5, lr}
    c53a:	f011 4500 	ands.w	r5, r1, #2147483648	; 0x80000000
    c53e:	d502      	bpl.n	c546 <__aeabi_l2d+0x16>
    c540:	4240      	negs	r0, r0
    c542:	eb61 0141 	sbc.w	r1, r1, r1, lsl #1
    c546:	f44f 6480 	mov.w	r4, #1024	; 0x400
    c54a:	f104 0432 	add.w	r4, r4, #50	; 0x32
    c54e:	ea5f 5c91 	movs.w	ip, r1, lsr #22
    c552:	f43f aed8 	beq.w	c306 <__adddf3+0xe6>
    c556:	f04f 0203 	mov.w	r2, #3
    c55a:	ea5f 0cdc 	movs.w	ip, ip, lsr #3
    c55e:	bf18      	it	ne
    c560:	3203      	addne	r2, #3
    c562:	ea5f 0cdc 	movs.w	ip, ip, lsr #3
    c566:	bf18      	it	ne
    c568:	3203      	addne	r2, #3
    c56a:	eb02 02dc 	add.w	r2, r2, ip, lsr #3
    c56e:	f1c2 0320 	rsb	r3, r2, #32
    c572:	fa00 fc03 	lsl.w	ip, r0, r3
    c576:	fa20 f002 	lsr.w	r0, r0, r2
    c57a:	fa01 fe03 	lsl.w	lr, r1, r3
    c57e:	ea40 000e 	orr.w	r0, r0, lr
    c582:	fa21 f102 	lsr.w	r1, r1, r2
    c586:	4414      	add	r4, r2
    c588:	e6bd      	b.n	c306 <__adddf3+0xe6>
    c58a:	bf00      	nop

0000c58c <__aeabi_uldivmod>:
    c58c:	b953      	cbnz	r3, c5a4 <__aeabi_uldivmod+0x18>
    c58e:	b94a      	cbnz	r2, c5a4 <__aeabi_uldivmod+0x18>
    c590:	2900      	cmp	r1, #0
    c592:	bf08      	it	eq
    c594:	2800      	cmpeq	r0, #0
    c596:	bf1c      	itt	ne
    c598:	f04f 31ff 	movne.w	r1, #4294967295	; 0xffffffff
    c59c:	f04f 30ff 	movne.w	r0, #4294967295	; 0xffffffff
    c5a0:	f000 b80c 	b.w	c5bc <__aeabi_idiv0>
    c5a4:	f1ad 0c08 	sub.w	ip, sp, #8
    c5a8:	e96d ce04 	strd	ip, lr, [sp, #-16]!
    c5ac:	f000 f80c 	bl	c5c8 <__udivmoddi4>
    c5b0:	f8dd e004 	ldr.w	lr, [sp, #4]
    c5b4:	e9dd 2302 	ldrd	r2, r3, [sp, #8]
    c5b8:	b004      	add	sp, #16
    c5ba:	4770      	bx	lr

0000c5bc <__aeabi_idiv0>:
    c5bc:	b502      	push	{r1, lr}
    c5be:	f04f 0008 	mov.w	r0, #8
    c5c2:	f7ff ed6e 	blx	c0a0 <raise>
    c5c6:	bd02      	pop	{r1, pc}

0000c5c8 <__udivmoddi4>:
    c5c8:	e92d 47f0 	stmdb	sp!, {r4, r5, r6, r7, r8, r9, sl, lr}
    c5cc:	460d      	mov	r5, r1
    c5ce:	429d      	cmp	r5, r3
    c5d0:	4604      	mov	r4, r0
    c5d2:	bf08      	it	eq
    c5d4:	4290      	cmpeq	r0, r2
    c5d6:	4611      	mov	r1, r2
    c5d8:	f8dd e020 	ldr.w	lr, [sp, #32]
    c5dc:	bf3c      	itt	cc
    c5de:	2000      	movcc	r0, #0
    c5e0:	4601      	movcc	r1, r0
    c5e2:	d368      	bcc.n	c6b6 <__udivmoddi4+0xee>
    c5e4:	461a      	mov	r2, r3
    c5e6:	fab3 fc83 	clz	ip, r3
    c5ea:	2b00      	cmp	r3, #0
    c5ec:	d06e      	beq.n	c6cc <__udivmoddi4+0x104>
    c5ee:	fab5 f085 	clz	r0, r5
    c5f2:	2d00      	cmp	r5, #0
    c5f4:	d066      	beq.n	c6c4 <__udivmoddi4+0xfc>
    c5f6:	ebac 0c00 	sub.w	ip, ip, r0
    c5fa:	f1ac 0820 	sub.w	r8, ip, #32
    c5fe:	fa02 f70c 	lsl.w	r7, r2, ip
    c602:	fa01 f308 	lsl.w	r3, r1, r8
    c606:	f1cc 0920 	rsb	r9, ip, #32
    c60a:	431f      	orrs	r7, r3
    c60c:	fa21 f309 	lsr.w	r3, r1, r9
    c610:	431f      	orrs	r7, r3
    c612:	fa01 f60c 	lsl.w	r6, r1, ip
    c616:	42bd      	cmp	r5, r7
    c618:	bf08      	it	eq
    c61a:	42b4      	cmpeq	r4, r6
    c61c:	bf3c      	itt	cc
    c61e:	2000      	movcc	r0, #0
    c620:	4601      	movcc	r1, r0
    c622:	d30a      	bcc.n	c63a <__udivmoddi4+0x72>
    c624:	2001      	movs	r0, #1
    c626:	1ba4      	subs	r4, r4, r6
    c628:	fa00 f108 	lsl.w	r1, r0, r8
    c62c:	fa20 f309 	lsr.w	r3, r0, r9
    c630:	eb65 0507 	sbc.w	r5, r5, r7
    c634:	4319      	orrs	r1, r3
    c636:	fa00 f00c 	lsl.w	r0, r0, ip
    c63a:	f1bc 0f00 	cmp.w	ip, #0
    c63e:	d03a      	beq.n	c6b6 <__udivmoddi4+0xee>
    c640:	087f      	lsrs	r7, r7, #1
    c642:	ea4f 0636 	mov.w	r6, r6, rrx
    c646:	4662      	mov	r2, ip
    c648:	e00a      	b.n	c660 <__udivmoddi4+0x98>
    c64a:	1ba3      	subs	r3, r4, r6
    c64c:	eb65 0a07 	sbc.w	sl, r5, r7
    c650:	18db      	adds	r3, r3, r3
    c652:	eb4a 0a0a 	adc.w	sl, sl, sl
    c656:	1c5c      	adds	r4, r3, #1
    c658:	f14a 0500 	adc.w	r5, sl, #0
    c65c:	3a01      	subs	r2, #1
    c65e:	d007      	beq.n	c670 <__udivmoddi4+0xa8>
    c660:	42bd      	cmp	r5, r7
    c662:	bf08      	it	eq
    c664:	42b4      	cmpeq	r4, r6
    c666:	d2f0      	bcs.n	c64a <__udivmoddi4+0x82>
    c668:	1924      	adds	r4, r4, r4
    c66a:	416d      	adcs	r5, r5
    c66c:	3a01      	subs	r2, #1
    c66e:	d1f7      	bne.n	c660 <__udivmoddi4+0x98>
    c670:	fa24 f30c 	lsr.w	r3, r4, ip
    c674:	fa05 f909 	lsl.w	r9, r5, r9
    c678:	fa25 f808 	lsr.w	r8, r5, r8
    c67c:	ea43 0309 	orr.w	r3, r3, r9
    c680:	1900      	adds	r0, r0, r4
    c682:	fa25 f70c 	lsr.w	r7, r5, ip
    c686:	ea43 0408 	orr.w	r4, r3, r8
    c68a:	f1ac 0620 	sub.w	r6, ip, #32
    c68e:	f1cc 0220 	rsb	r2, ip, #32
    c692:	fa07 f30c 	lsl.w	r3, r7, ip
    c696:	fa04 f606 	lsl.w	r6, r4, r6
    c69a:	fa04 fc0c 	lsl.w	ip, r4, ip
    c69e:	ea43 0306 	orr.w	r3, r3, r6
    c6a2:	fa24 f202 	lsr.w	r2, r4, r2
    c6a6:	eb45 0101 	adc.w	r1, r5, r1
    c6aa:	4313      	orrs	r3, r2
    c6ac:	ebb0 000c 	subs.w	r0, r0, ip
    c6b0:	463d      	mov	r5, r7
    c6b2:	eb61 0103 	sbc.w	r1, r1, r3
    c6b6:	f1be 0f00 	cmp.w	lr, #0
    c6ba:	d001      	beq.n	c6c0 <__udivmoddi4+0xf8>
    c6bc:	e9ce 4500 	strd	r4, r5, [lr]
    c6c0:	e8bd 87f0 	ldmia.w	sp!, {r4, r5, r6, r7, r8, r9, sl, pc}
    c6c4:	fab4 f084 	clz	r0, r4
    c6c8:	3020      	adds	r0, #32
    c6ca:	e794      	b.n	c5f6 <__udivmoddi4+0x2e>
    c6cc:	fab1 fc81 	clz	ip, r1
    c6d0:	fab5 f085 	clz	r0, r5
    c6d4:	f10c 0c20 	add.w	ip, ip, #32
    c6d8:	2d00      	cmp	r5, #0
    c6da:	d18c      	bne.n	c5f6 <__udivmoddi4+0x2e>
    c6dc:	e7f2      	b.n	c6c4 <__udivmoddi4+0xfc>
    c6de:	bf00      	nop
