
t186ref/build-t186/user_tasks/nvidia-sample/hwkey-agent/hwkey-agent.syms.elf:     file format elf32-littlearm


Disassembly of section .text:

00008000 <exit>:
    8000:	e92d4010 	push	{r4, lr}
    8004:	eb000934 	bl	a4dc <__cxa_finalize>
    8008:	eb00138c 	bl	ce40 <exit_group>

0000800c <main>:
    800c:	e59f0134 	ldr	r0, [pc, #308]	; 8148 <main+0x13c>
    8010:	e3a03028 	mov	r3, #40	; 0x28
    8014:	e59f2130 	ldr	r2, [pc, #304]	; 814c <main+0x140>
    8018:	e08f0000 	add	r0, pc, r0
    801c:	e92d41f0 	push	{r4, r5, r6, r7, r8, lr}
    8020:	e59fc128 	ldr	ip, [pc, #296]	; 8150 <main+0x144>
    8024:	e24dd018 	sub	sp, sp, #24
    8028:	e59f7124 	ldr	r7, [pc, #292]	; 8154 <main+0x148>
    802c:	e7908002 	ldr	r8, [r0, r2]
    8030:	e59f1120 	ldr	r1, [pc, #288]	; 8158 <main+0x14c>
    8034:	e08f7007 	add	r7, pc, r7
    8038:	e1a02007 	mov	r2, r7
    803c:	e598e000 	ldr	lr, [r8]
    8040:	e08f1001 	add	r1, pc, r1
    8044:	e58de014 	str	lr, [sp, #20]
    8048:	e790600c 	ldr	r6, [r0, ip]
    804c:	e0865003 	add	r5, r6, r3
    8050:	e1a00005 	mov	r0, r5
    8054:	eb002612 	bl	118a4 <fprintf>
    8058:	eb0005b8 	bl	9740 <key_mgnt_processing>
    805c:	e2504000 	subs	r4, r0, #0
    8060:	1a00001c 	bne	80d8 <main+0xcc>
    8064:	eb00049e 	bl	92e4 <init_hwkey_agent_srv>
    8068:	e3500000 	cmp	r0, #0
    806c:	1a00002a 	bne	811c <main+0x110>
    8070:	e59f80e4 	ldr	r8, [pc, #228]	; 815c <main+0x150>
    8074:	e28d4008 	add	r4, sp, #8
    8078:	e59f70e0 	ldr	r7, [pc, #224]	; 8160 <main+0x154>
    807c:	e3e05000 	mvn	r5, #0
    8080:	e08f8008 	add	r8, pc, r8
    8084:	e08f7007 	add	r7, pc, r7
    8088:	e3e01000 	mvn	r1, #0
    808c:	e1a00004 	mov	r0, r4
    8090:	e3a03000 	mov	r3, #0
    8094:	e58d5008 	str	r5, [sp, #8]
    8098:	e58d300c 	str	r3, [sp, #12]
    809c:	e58d3010 	str	r3, [sp, #16]
    80a0:	eb001387 	bl	cec4 <wait_any>
    80a4:	e3500000 	cmp	r0, #0
    80a8:	ba000003 	blt	80bc <main+0xb0>
    80ac:	1afffff5 	bne	8088 <main+0x7c>
    80b0:	e1a00004 	mov	r0, r4
    80b4:	eb0004db 	bl	9428 <dispatch_hwkey_agent_srv_event>
    80b8:	eafffff2 	b	8088 <main+0x7c>
    80bc:	e58d0000 	str	r0, [sp]
    80c0:	e3a03040 	mov	r3, #64	; 0x40
    80c4:	e1a02008 	mov	r2, r8
    80c8:	e1a01007 	mov	r1, r7
    80cc:	e2860028 	add	r0, r6, #40	; 0x28
    80d0:	eb0025f3 	bl	118a4 <fprintf>
    80d4:	eaffffeb 	b	8088 <main+0x7c>
    80d8:	e59f3084 	ldr	r3, [pc, #132]	; 8164 <main+0x158>
    80dc:	e1a02007 	mov	r2, r7
    80e0:	e59f1080 	ldr	r1, [pc, #128]	; 8168 <main+0x15c>
    80e4:	e1a00005 	mov	r0, r5
    80e8:	e08f3003 	add	r3, pc, r3
    80ec:	e58d4004 	str	r4, [sp, #4]
    80f0:	e58d3000 	str	r3, [sp]
    80f4:	e08f1001 	add	r1, pc, r1
    80f8:	e3a0302c 	mov	r3, #44	; 0x2c
    80fc:	eb0025e8 	bl	118a4 <fprintf>
    8100:	e59d2014 	ldr	r2, [sp, #20]
    8104:	e1a00004 	mov	r0, r4
    8108:	e5983000 	ldr	r3, [r8]
    810c:	e1520003 	cmp	r2, r3
    8110:	1a00000b 	bne	8144 <main+0x138>
    8114:	e28dd018 	add	sp, sp, #24
    8118:	e8bd81f0 	pop	{r4, r5, r6, r7, r8, pc}
    811c:	e59f1048 	ldr	r1, [pc, #72]	; 816c <main+0x160>
    8120:	e1a02007 	mov	r2, r7
    8124:	e58d0000 	str	r0, [sp]
    8128:	e3a03033 	mov	r3, #51	; 0x33
    812c:	e08f1001 	add	r1, pc, r1
    8130:	e1a00005 	mov	r0, r5
    8134:	e3e04000 	mvn	r4, #0
    8138:	eb0025d9 	bl	118a4 <fprintf>
    813c:	eb0004a1 	bl	93c8 <kill_hwkey_agent_srv>
    8140:	eaffffee 	b	8100 <main+0xf4>
    8144:	eb0025f2 	bl	11914 <__stack_chk_fail>
    8148:	0000d060 	.word	0x0000d060
    814c:	00000010 	.word	0x00000010
    8150:	00000018 	.word	0x00000018
    8154:	0000a07c 	.word	0x0000a07c
    8158:	0000a1fc 	.word	0x0000a1fc
    815c:	0000a030 	.word	0x0000a030
    8160:	0000a248 	.word	0x0000a248
    8164:	0000a14c 	.word	0x0000a14c
    8168:	0000a17c 	.word	0x0000a17c
    816c:	0000a178 	.word	0x0000a178

00008170 <__guard_setup>:
    8170:	e92d4010 	push	{r4, lr}
    8174:	e59f4018 	ldr	r4, [pc, #24]	; 8194 <__guard_setup+0x24>
    8178:	e08f4004 	add	r4, pc, r4
    817c:	e5943000 	ldr	r3, [r4]
    8180:	e3530000 	cmp	r3, #0
    8184:	18bd8010 	popne	{r4, pc}
    8188:	eb0025b7 	bl	1186c <rand>
    818c:	e5840000 	str	r0, [r4]
    8190:	e8bd8010 	pop	{r4, pc}
    8194:	0000cfe4 	.word	0x0000cfe4

00008198 <crypto_srv_process_req>:
    8198:	e92d4ff0 	push	{r4, r5, r6, r7, r8, r9, sl, fp, lr}
    819c:	e1a02000 	mov	r2, r0
    81a0:	e59f7160 	ldr	r7, [pc, #352]	; 8308 <crypto_srv_process_req+0x170>
    81a4:	e59f3160 	ldr	r3, [pc, #352]	; 830c <crypto_srv_process_req+0x174>
    81a8:	e24ddf41 	sub	sp, sp, #260	; 0x104
    81ac:	e08f7007 	add	r7, pc, r7
    81b0:	e592b000 	ldr	fp, [r2]
    81b4:	e3a00001 	mov	r0, #1
    81b8:	e5925008 	ldr	r5, [r2, #8]
    81bc:	e7979003 	ldr	r9, [r7, r3]
    81c0:	e59b4014 	ldr	r4, [fp, #20]
    81c4:	e5993000 	ldr	r3, [r9]
    81c8:	e58d30fc 	str	r3, [sp, #252]	; 0xfc
    81cc:	eb000056 	bl	832c <ekb_get_key>
    81d0:	e2506000 	subs	r6, r0, #0
    81d4:	0a000037 	beq	82b8 <crypto_srv_process_req+0x120>
    81d8:	e3a00b02 	mov	r0, #2048	; 0x800
    81dc:	eb0009b6 	bl	a8bc <malloc>
    81e0:	e250a000 	subs	sl, r0, #0
    81e4:	0a000026 	beq	8284 <crypto_srv_process_req+0xec>
    81e8:	e1a02004 	mov	r2, r4
    81ec:	e1a01005 	mov	r1, r5
    81f0:	eb0025f0 	bl	119b8 <memcpy>
    81f4:	e59b7000 	ldr	r7, [fp]
    81f8:	e3570001 	cmp	r7, #1
    81fc:	0a00003a 	beq	82ec <crypto_srv_process_req+0x154>
    8200:	e28d8008 	add	r8, sp, #8
    8204:	e1a00006 	mov	r0, r6
    8208:	e1a02008 	mov	r2, r8
    820c:	e3a01080 	mov	r1, #128	; 0x80
    8210:	e3a07000 	mov	r7, #0
    8214:	eb00147e 	bl	d414 <AES_set_decrypt_key>
    8218:	e3540000 	cmp	r4, #0
    821c:	da000010 	ble	8264 <crypto_srv_process_req+0xcc>
    8220:	e2446001 	sub	r6, r4, #1
    8224:	e28bb004 	add	fp, fp, #4
    8228:	e3c6600f 	bic	r6, r6, #15
    822c:	e1a0400a 	mov	r4, sl
    8230:	e2866010 	add	r6, r6, #16
    8234:	e086600a 	add	r6, r6, sl
    8238:	e3a02010 	mov	r2, #16
    823c:	e1a01005 	mov	r1, r5
    8240:	e1a00004 	mov	r0, r4
    8244:	e58d7004 	str	r7, [sp, #4]
    8248:	e0844002 	add	r4, r4, r2
    824c:	e1a03008 	mov	r3, r8
    8250:	e58db000 	str	fp, [sp]
    8254:	e0855002 	add	r5, r5, r2
    8258:	eb001328 	bl	cf00 <AES_cbc_encrypt>
    825c:	e1540006 	cmp	r4, r6
    8260:	1afffff4 	bne	8238 <crypto_srv_process_req+0xa0>
    8264:	e1a0000a 	mov	r0, sl
    8268:	eb00103d 	bl	c364 <free>
    826c:	e59d20fc 	ldr	r2, [sp, #252]	; 0xfc
    8270:	e5993000 	ldr	r3, [r9]
    8274:	e1520003 	cmp	r2, r3
    8278:	1a000021 	bne	8304 <crypto_srv_process_req+0x16c>
    827c:	e28ddf41 	add	sp, sp, #260	; 0x104
    8280:	e8bd8ff0 	pop	{r4, r5, r6, r7, r8, r9, sl, fp, pc}
    8284:	e59f0084 	ldr	r0, [pc, #132]	; 8310 <crypto_srv_process_req+0x178>
    8288:	e3a03031 	mov	r3, #49	; 0x31
    828c:	e59f1080 	ldr	r1, [pc, #128]	; 8314 <crypto_srv_process_req+0x17c>
    8290:	e59f2080 	ldr	r2, [pc, #128]	; 8318 <crypto_srv_process_req+0x180>
    8294:	e08f1001 	add	r1, pc, r1
    8298:	e7970000 	ldr	r0, [r7, r0]
    829c:	e08f2002 	add	r2, pc, r2
    82a0:	e58d1000 	str	r1, [sp]
    82a4:	e59f1070 	ldr	r1, [pc, #112]	; 831c <crypto_srv_process_req+0x184>
    82a8:	e2800028 	add	r0, r0, #40	; 0x28
    82ac:	e08f1001 	add	r1, pc, r1
    82b0:	eb00257b 	bl	118a4 <fprintf>
    82b4:	eaffffec 	b	826c <crypto_srv_process_req+0xd4>
    82b8:	e59f0050 	ldr	r0, [pc, #80]	; 8310 <crypto_srv_process_req+0x178>
    82bc:	e3a0302b 	mov	r3, #43	; 0x2b
    82c0:	e59f1058 	ldr	r1, [pc, #88]	; 8320 <crypto_srv_process_req+0x188>
    82c4:	e59f2058 	ldr	r2, [pc, #88]	; 8324 <crypto_srv_process_req+0x18c>
    82c8:	e08f1001 	add	r1, pc, r1
    82cc:	e7970000 	ldr	r0, [r7, r0]
    82d0:	e08f2002 	add	r2, pc, r2
    82d4:	e58d1000 	str	r1, [sp]
    82d8:	e59f1048 	ldr	r1, [pc, #72]	; 8328 <crypto_srv_process_req+0x190>
    82dc:	e2800028 	add	r0, r0, #40	; 0x28
    82e0:	e08f1001 	add	r1, pc, r1
    82e4:	eb00256e 	bl	118a4 <fprintf>
    82e8:	eaffffdf 	b	826c <crypto_srv_process_req+0xd4>
    82ec:	e28d8008 	add	r8, sp, #8
    82f0:	e1a00006 	mov	r0, r6
    82f4:	e1a02008 	mov	r2, r8
    82f8:	e3a01080 	mov	r1, #128	; 0x80
    82fc:	eb001312 	bl	cf4c <AES_set_encrypt_key>
    8300:	eaffffc4 	b	8218 <crypto_srv_process_req+0x80>
    8304:	eb002582 	bl	11914 <__stack_chk_fail>
    8308:	0000cecc 	.word	0x0000cecc
    830c:	00000010 	.word	0x00000010
    8310:	00000018 	.word	0x00000018
    8314:	00009e04 	.word	0x00009e04
    8318:	00009e14 	.word	0x00009e14
    831c:	00009e34 	.word	0x00009e34
    8320:	00009dd0 	.word	0x00009dd0
    8324:	00009de0 	.word	0x00009de0
    8328:	00009ddc 	.word	0x00009ddc

0000832c <ekb_get_key>:
    832c:	e59f3020 	ldr	r3, [pc, #32]	; 8354 <ekb_get_key+0x28>
    8330:	e3500001 	cmp	r0, #1
    8334:	e08f3003 	add	r3, pc, r3
    8338:	8a000003 	bhi	834c <ekb_get_key+0x20>
    833c:	e59f2014 	ldr	r2, [pc, #20]	; 8358 <ekb_get_key+0x2c>
    8340:	e7933002 	ldr	r3, [r3, r2]
    8344:	e7930100 	ldr	r0, [r3, r0, lsl #2]
    8348:	e12fff1e 	bx	lr
    834c:	e3a00000 	mov	r0, #0
    8350:	e12fff1e 	bx	lr
    8354:	0000cd44 	.word	0x0000cd44
    8358:	0000000c 	.word	0x0000000c

0000835c <ekb_verification>:
    835c:	e92d4ff0 	push	{r4, r5, r6, r7, r8, r9, sl, fp, lr}
    8360:	e1a0b000 	mov	fp, r0
    8364:	e59f6444 	ldr	r6, [pc, #1092]	; 87b0 <ekb_verification+0x454>
    8368:	e24ddf4b 	sub	sp, sp, #300	; 0x12c
    836c:	e59fc440 	ldr	ip, [pc, #1088]	; 87b4 <ekb_verification+0x458>
    8370:	e08f6006 	add	r6, pc, r6
    8374:	e28d8020 	add	r8, sp, #32
    8378:	e1a02008 	mov	r2, r8
    837c:	e3a00003 	mov	r0, #3
    8380:	e58d100c 	str	r1, [sp, #12]
    8384:	e3a01212 	mov	r1, #536870913	; 0x20000001
    8388:	e3a03000 	mov	r3, #0
    838c:	e28d901c 	add	r9, sp, #28
    8390:	e796c00c 	ldr	ip, [r6, ip]
    8394:	e58dc008 	str	ip, [sp, #8]
    8398:	e58d3010 	str	r3, [sp, #16]
    839c:	e59cc000 	ldr	ip, [ip]
    83a0:	e58d3014 	str	r3, [sp, #20]
    83a4:	e58d3018 	str	r3, [sp, #24]
    83a8:	e58d301c 	str	r3, [sp, #28]
    83ac:	e28d3018 	add	r3, sp, #24
    83b0:	e58dc124 	str	ip, [sp, #292]	; 0x124
    83b4:	e58d3020 	str	r3, [sp, #32]
    83b8:	e28d3010 	add	r3, sp, #16
    83bc:	e58d9024 	str	r9, [sp, #36]	; 0x24
    83c0:	e58d3028 	str	r3, [sp, #40]	; 0x28
    83c4:	e28d3014 	add	r3, sp, #20
    83c8:	e58d302c 	str	r3, [sp, #44]	; 0x2c
    83cc:	eb00129e 	bl	ce4c <ioctl>
    83d0:	e2504000 	subs	r4, r0, #0
    83d4:	1a0000b1 	bne	86a0 <ekb_verification+0x344>
    83d8:	e59d501c 	ldr	r5, [sp, #28]
    83dc:	e3550901 	cmp	r5, #16384	; 0x4000
    83e0:	81a05004 	movhi	r5, r4
    83e4:	81a07005 	movhi	r7, r5
    83e8:	83e04018 	mvnhi	r4, #24
    83ec:	9a000020 	bls	8474 <ekb_verification+0x118>
    83f0:	e1cd01d0 	ldrd	r0, [sp, #16]
    83f4:	eb00129a 	bl	ce64 <munmap>
    83f8:	e3500000 	cmp	r0, #0
    83fc:	1a000099 	bne	8668 <ekb_verification+0x30c>
    8400:	e3540000 	cmp	r4, #0
    8404:	1a000022 	bne	8494 <ekb_verification+0x138>
    8408:	e3570000 	cmp	r7, #0
    840c:	0a000030 	beq	84d4 <ekb_verification+0x178>
    8410:	e3550000 	cmp	r5, #0
    8414:	1a00003c 	bne	850c <ekb_verification+0x1b0>
    8418:	e59f0398 	ldr	r0, [pc, #920]	; 87b8 <ekb_verification+0x45c>
    841c:	e3a0308b 	mov	r3, #139	; 0x8b
    8420:	e59f1394 	ldr	r1, [pc, #916]	; 87bc <ekb_verification+0x460>
    8424:	e59f2394 	ldr	r2, [pc, #916]	; 87c0 <ekb_verification+0x464>
    8428:	e08f1001 	add	r1, pc, r1
    842c:	e7960000 	ldr	r0, [r6, r0]
    8430:	e08f2002 	add	r2, pc, r2
    8434:	e58d1000 	str	r1, [sp]
    8438:	e59f1384 	ldr	r1, [pc, #900]	; 87c4 <ekb_verification+0x468>
    843c:	e2800028 	add	r0, r0, #40	; 0x28
    8440:	e58d4004 	str	r4, [sp, #4]
    8444:	e08f1001 	add	r1, pc, r1
    8448:	eb002515 	bl	118a4 <fprintf>
    844c:	e1a00007 	mov	r0, r7
    8450:	eb000fc3 	bl	c364 <free>
    8454:	e59d3008 	ldr	r3, [sp, #8]
    8458:	e1a00004 	mov	r0, r4
    845c:	e59d2124 	ldr	r2, [sp, #292]	; 0x124
    8460:	e5933000 	ldr	r3, [r3]
    8464:	e1520003 	cmp	r2, r3
    8468:	1a0000cf 	bne	87ac <ekb_verification+0x450>
    846c:	e28ddf4b 	add	sp, sp, #300	; 0x12c
    8470:	e8bd8ff0 	pop	{r4, r5, r6, r7, r8, r9, sl, fp, pc}
    8474:	e1a00005 	mov	r0, r5
    8478:	eb00090f 	bl	a8bc <malloc>
    847c:	e2507000 	subs	r7, r0, #0
    8480:	0a00005d 	beq	85fc <ekb_verification+0x2a0>
    8484:	e1a02005 	mov	r2, r5
    8488:	e59d1018 	ldr	r1, [sp, #24]
    848c:	eb002549 	bl	119b8 <memcpy>
    8490:	eaffffd6 	b	83f0 <ekb_verification+0x94>
    8494:	e59f331c 	ldr	r3, [pc, #796]	; 87b8 <ekb_verification+0x45c>
    8498:	e796a003 	ldr	sl, [r6, r3]
    849c:	e59f2324 	ldr	r2, [pc, #804]	; 87c8 <ekb_verification+0x46c>
    84a0:	e28a0028 	add	r0, sl, #40	; 0x28
    84a4:	e59f1320 	ldr	r1, [pc, #800]	; 87cc <ekb_verification+0x470>
    84a8:	e3a0308b 	mov	r3, #139	; 0x8b
    84ac:	e08f2002 	add	r2, pc, r2
    84b0:	e58d2000 	str	r2, [sp]
    84b4:	e59f2314 	ldr	r2, [pc, #788]	; 87d0 <ekb_verification+0x474>
    84b8:	e08f1001 	add	r1, pc, r1
    84bc:	e58d4004 	str	r4, [sp, #4]
    84c0:	e08f2002 	add	r2, pc, r2
    84c4:	eb0024f6 	bl	118a4 <fprintf>
    84c8:	e3570000 	cmp	r7, #0
    84cc:	0affffe0 	beq	8454 <ekb_verification+0xf8>
    84d0:	eaffffdd 	b	844c <ekb_verification+0xf0>
    84d4:	e59f32dc 	ldr	r3, [pc, #732]	; 87b8 <ekb_verification+0x45c>
    84d8:	e796a003 	ldr	sl, [r6, r3]
    84dc:	e59f22f0 	ldr	r2, [pc, #752]	; 87d4 <ekb_verification+0x478>
    84e0:	e28a0028 	add	r0, sl, #40	; 0x28
    84e4:	e59f12ec 	ldr	r1, [pc, #748]	; 87d8 <ekb_verification+0x47c>
    84e8:	e3a0308b 	mov	r3, #139	; 0x8b
    84ec:	e08f2002 	add	r2, pc, r2
    84f0:	e58d2000 	str	r2, [sp]
    84f4:	e59f22e0 	ldr	r2, [pc, #736]	; 87dc <ekb_verification+0x480>
    84f8:	e08f1001 	add	r1, pc, r1
    84fc:	e58d4004 	str	r4, [sp, #4]
    8500:	e08f2002 	add	r2, pc, r2
    8504:	eb0024e6 	bl	118a4 <fprintf>
    8508:	eaffffd1 	b	8454 <ekb_verification+0xf8>
    850c:	eb001722 	bl	e19c <CMAC_CTX_new>
    8510:	e2505000 	subs	r5, r0, #0
    8514:	0a000096 	beq	8774 <ekb_verification+0x418>
    8518:	eb0019d5 	bl	ec74 <EVP_aes_128_cbc>
    851c:	e3a02010 	mov	r2, #16
    8520:	e1a03000 	mov	r3, r0
    8524:	e087a002 	add	sl, r7, r2
    8528:	e58d4000 	str	r4, [sp]
    852c:	e1a0100b 	mov	r1, fp
    8530:	e1a00005 	mov	r0, r5
    8534:	e28d4f45 	add	r4, sp, #276	; 0x114
    8538:	eb001759 	bl	e2a4 <CMAC_Init>
    853c:	e1a0100a 	mov	r1, sl
    8540:	e3a02030 	mov	r2, #48	; 0x30
    8544:	e1a00005 	mov	r0, r5
    8548:	eb0017cb 	bl	e47c <CMAC_Update>
    854c:	e1a02009 	mov	r2, r9
    8550:	e1a01004 	mov	r1, r4
    8554:	e1a00005 	mov	r0, r5
    8558:	eb00180e 	bl	e598 <CMAC_Final>
    855c:	e1a00005 	mov	r0, r5
    8560:	eb001742 	bl	e270 <CMAC_CTX_free>
    8564:	e1a01004 	mov	r1, r4
    8568:	e59d201c 	ldr	r2, [sp, #28]
    856c:	e1a00007 	mov	r0, r7
    8570:	eb0024f7 	bl	11954 <memcmp>
    8574:	e2505000 	subs	r5, r0, #0
    8578:	1a00006f 	bne	873c <ekb_verification+0x3e0>
    857c:	e59d000c 	ldr	r0, [sp, #12]
    8580:	e1a02008 	mov	r2, r8
    8584:	e3a01080 	mov	r1, #128	; 0x80
    8588:	eb0013a1 	bl	d414 <AES_set_decrypt_key>
    858c:	e2504000 	subs	r4, r0, #0
    8590:	ba000027 	blt	8634 <ekb_verification+0x2d8>
    8594:	e3a00010 	mov	r0, #16
    8598:	eb0008c7 	bl	a8bc <malloc>
    859c:	e250e000 	subs	lr, r0, #0
    85a0:	0a00004d 	beq	86dc <ekb_verification+0x380>
    85a4:	e59fc234 	ldr	ip, [pc, #564]	; 87e0 <ekb_verification+0x484>
    85a8:	e1a0100e 	mov	r1, lr
    85ac:	e1a03008 	mov	r3, r8
    85b0:	e3a02010 	mov	r2, #16
    85b4:	e2870020 	add	r0, r7, #32
    85b8:	e796900c 	ldr	r9, [r6, ip]
    85bc:	e589e000 	str	lr, [r9]
    85c0:	e58d5004 	str	r5, [sp, #4]
    85c4:	e58da000 	str	sl, [sp]
    85c8:	eb00124c 	bl	cf00 <AES_cbc_encrypt>
    85cc:	e3a00010 	mov	r0, #16
    85d0:	eb0008b9 	bl	a8bc <malloc>
    85d4:	e2501000 	subs	r1, r0, #0
    85d8:	0a000055 	beq	8734 <ekb_verification+0x3d8>
    85dc:	e5891004 	str	r1, [r9, #4]
    85e0:	e1a03008 	mov	r3, r8
    85e4:	e58d5004 	str	r5, [sp, #4]
    85e8:	e3a02010 	mov	r2, #16
    85ec:	e58da000 	str	sl, [sp]
    85f0:	e2870030 	add	r0, r7, #48	; 0x30
    85f4:	eb001241 	bl	cf00 <AES_cbc_encrypt>
    85f8:	eaffff93 	b	844c <ekb_verification+0xf0>
    85fc:	e59f01b4 	ldr	r0, [pc, #436]	; 87b8 <ekb_verification+0x45c>
    8600:	e3a0306b 	mov	r3, #107	; 0x6b
    8604:	e59f11d8 	ldr	r1, [pc, #472]	; 87e4 <ekb_verification+0x488>
    8608:	e3e04004 	mvn	r4, #4
    860c:	e59f21d4 	ldr	r2, [pc, #468]	; 87e8 <ekb_verification+0x48c>
    8610:	e08f1001 	add	r1, pc, r1
    8614:	e796a000 	ldr	sl, [r6, r0]
    8618:	e08f2002 	add	r2, pc, r2
    861c:	e58d1000 	str	r1, [sp]
    8620:	e59f11c4 	ldr	r1, [pc, #452]	; 87ec <ekb_verification+0x490>
    8624:	e28a0028 	add	r0, sl, #40	; 0x28
    8628:	e08f1001 	add	r1, pc, r1
    862c:	eb00249c 	bl	118a4 <fprintf>
    8630:	eaffff6e 	b	83f0 <ekb_verification+0x94>
    8634:	e59f017c 	ldr	r0, [pc, #380]	; 87b8 <ekb_verification+0x45c>
    8638:	e3a030aa 	mov	r3, #170	; 0xaa
    863c:	e59f11ac 	ldr	r1, [pc, #428]	; 87f0 <ekb_verification+0x494>
    8640:	e59f21ac 	ldr	r2, [pc, #428]	; 87f4 <ekb_verification+0x498>
    8644:	e08f1001 	add	r1, pc, r1
    8648:	e7960000 	ldr	r0, [r6, r0]
    864c:	e08f2002 	add	r2, pc, r2
    8650:	e58d1000 	str	r1, [sp]
    8654:	e59f119c 	ldr	r1, [pc, #412]	; 87f8 <ekb_verification+0x49c>
    8658:	e2800028 	add	r0, r0, #40	; 0x28
    865c:	e08f1001 	add	r1, pc, r1
    8660:	eb00248f 	bl	118a4 <fprintf>
    8664:	eaffff78 	b	844c <ekb_verification+0xf0>
    8668:	e59f0148 	ldr	r0, [pc, #328]	; 87b8 <ekb_verification+0x45c>
    866c:	e3a03074 	mov	r3, #116	; 0x74
    8670:	e59f1184 	ldr	r1, [pc, #388]	; 87fc <ekb_verification+0x4a0>
    8674:	e3e04000 	mvn	r4, #0
    8678:	e59f2180 	ldr	r2, [pc, #384]	; 8800 <ekb_verification+0x4a4>
    867c:	e08f1001 	add	r1, pc, r1
    8680:	e796a000 	ldr	sl, [r6, r0]
    8684:	e08f2002 	add	r2, pc, r2
    8688:	e58d1000 	str	r1, [sp]
    868c:	e59f1170 	ldr	r1, [pc, #368]	; 8804 <ekb_verification+0x4a8>
    8690:	e28a0028 	add	r0, sl, #40	; 0x28
    8694:	e08f1001 	add	r1, pc, r1
    8698:	eb002481 	bl	118a4 <fprintf>
    869c:	eaffff7e 	b	849c <ekb_verification+0x140>
    86a0:	e59f0110 	ldr	r0, [pc, #272]	; 87b8 <ekb_verification+0x45c>
    86a4:	e3a0305c 	mov	r3, #92	; 0x5c
    86a8:	e59f1158 	ldr	r1, [pc, #344]	; 8808 <ekb_verification+0x4ac>
    86ac:	e59f2158 	ldr	r2, [pc, #344]	; 880c <ekb_verification+0x4b0>
    86b0:	e08f1001 	add	r1, pc, r1
    86b4:	e796a000 	ldr	sl, [r6, r0]
    86b8:	e08f2002 	add	r2, pc, r2
    86bc:	e58d1000 	str	r1, [sp]
    86c0:	e59f1148 	ldr	r1, [pc, #328]	; 8810 <ekb_verification+0x4b4>
    86c4:	e28a0028 	add	r0, sl, #40	; 0x28
    86c8:	e58d4004 	str	r4, [sp, #4]
    86cc:	e3e04000 	mvn	r4, #0
    86d0:	e08f1001 	add	r1, pc, r1
    86d4:	eb002472 	bl	118a4 <fprintf>
    86d8:	eaffff7f 	b	84dc <ekb_verification+0x180>
    86dc:	e59f30fc 	ldr	r3, [pc, #252]	; 87e0 <ekb_verification+0x484>
    86e0:	e7969003 	ldr	r9, [r6, r3]
    86e4:	e59f00cc 	ldr	r0, [pc, #204]	; 87b8 <ekb_verification+0x45c>
    86e8:	e3a030b1 	mov	r3, #177	; 0xb1
    86ec:	e59f1120 	ldr	r1, [pc, #288]	; 8814 <ekb_verification+0x4b8>
    86f0:	e3e04004 	mvn	r4, #4
    86f4:	e59f211c 	ldr	r2, [pc, #284]	; 8818 <ekb_verification+0x4bc>
    86f8:	e08f1001 	add	r1, pc, r1
    86fc:	e7960000 	ldr	r0, [r6, r0]
    8700:	e08f2002 	add	r2, pc, r2
    8704:	e58d1000 	str	r1, [sp]
    8708:	e59f110c 	ldr	r1, [pc, #268]	; 881c <ekb_verification+0x4c0>
    870c:	e2800028 	add	r0, r0, #40	; 0x28
    8710:	e08f1001 	add	r1, pc, r1
    8714:	eb002462 	bl	118a4 <fprintf>
    8718:	e5990000 	ldr	r0, [r9]
    871c:	e3550001 	cmp	r5, #1
    8720:	1affff49 	bne	844c <ekb_verification+0xf0>
    8724:	e3500000 	cmp	r0, #0
    8728:	0affff47 	beq	844c <ekb_verification+0xf0>
    872c:	eb000f0c 	bl	c364 <free>
    8730:	eaffff45 	b	844c <ekb_verification+0xf0>
    8734:	e3a05001 	mov	r5, #1
    8738:	eaffffe9 	b	86e4 <ekb_verification+0x388>
    873c:	e59f0074 	ldr	r0, [pc, #116]	; 87b8 <ekb_verification+0x45c>
    8740:	e3a030a2 	mov	r3, #162	; 0xa2
    8744:	e59f10d4 	ldr	r1, [pc, #212]	; 8820 <ekb_verification+0x4c4>
    8748:	e3e04006 	mvn	r4, #6
    874c:	e59f20d0 	ldr	r2, [pc, #208]	; 8824 <ekb_verification+0x4c8>
    8750:	e08f1001 	add	r1, pc, r1
    8754:	e7960000 	ldr	r0, [r6, r0]
    8758:	e08f2002 	add	r2, pc, r2
    875c:	e58d1000 	str	r1, [sp]
    8760:	e59f10c0 	ldr	r1, [pc, #192]	; 8828 <ekb_verification+0x4cc>
    8764:	e2800028 	add	r0, r0, #40	; 0x28
    8768:	e08f1001 	add	r1, pc, r1
    876c:	eb00244c 	bl	118a4 <fprintf>
    8770:	eaffff35 	b	844c <ekb_verification+0xf0>
    8774:	e59f003c 	ldr	r0, [pc, #60]	; 87b8 <ekb_verification+0x45c>
    8778:	e3a03095 	mov	r3, #149	; 0x95
    877c:	e59f10a8 	ldr	r1, [pc, #168]	; 882c <ekb_verification+0x4d0>
    8780:	e3e04004 	mvn	r4, #4
    8784:	e59f20a4 	ldr	r2, [pc, #164]	; 8830 <ekb_verification+0x4d4>
    8788:	e08f1001 	add	r1, pc, r1
    878c:	e7960000 	ldr	r0, [r6, r0]
    8790:	e08f2002 	add	r2, pc, r2
    8794:	e58d1000 	str	r1, [sp]
    8798:	e59f1094 	ldr	r1, [pc, #148]	; 8834 <ekb_verification+0x4d8>
    879c:	e2800028 	add	r0, r0, #40	; 0x28
    87a0:	e08f1001 	add	r1, pc, r1
    87a4:	eb00243e 	bl	118a4 <fprintf>
    87a8:	eaffff27 	b	844c <ekb_verification+0xf0>
    87ac:	eb002458 	bl	11914 <__stack_chk_fail>
    87b0:	0000cd08 	.word	0x0000cd08
    87b4:	00000010 	.word	0x00000010
    87b8:	00000018 	.word	0x00000018
    87bc:	00009cdc 	.word	0x00009cdc
    87c0:	00009c80 	.word	0x00009c80
    87c4:	00009d24 	.word	0x00009d24
    87c8:	00009c58 	.word	0x00009c58
    87cc:	00009cb0 	.word	0x00009cb0
    87d0:	00009bf0 	.word	0x00009bf0
    87d4:	00009c18 	.word	0x00009c18
    87d8:	00009c70 	.word	0x00009c70
    87dc:	00009bb0 	.word	0x00009bb0
    87e0:	0000000c 	.word	0x0000000c
    87e4:	00009aec 	.word	0x00009aec
    87e8:	00009a98 	.word	0x00009a98
    87ec:	00009ab8 	.word	0x00009ab8
    87f0:	00009ac0 	.word	0x00009ac0
    87f4:	00009a64 	.word	0x00009a64
    87f8:	00009b94 	.word	0x00009b94
    87fc:	00009a80 	.word	0x00009a80
    8800:	00009a2c 	.word	0x00009a2c
    8804:	00009ab0 	.word	0x00009ab0
    8808:	00009a4c 	.word	0x00009a4c
    880c:	000099f8 	.word	0x000099f8
    8810:	00009a48 	.word	0x00009a48
    8814:	00009a0c 	.word	0x00009a0c
    8818:	000099b0 	.word	0x000099b0
    881c:	000099d0 	.word	0x000099d0
    8820:	000099b4 	.word	0x000099b4
    8824:	00009958 	.word	0x00009958
    8828:	00009a54 	.word	0x00009a54
    882c:	0000997c 	.word	0x0000997c
    8830:	00009920 	.word	0x00009920
    8834:	000099f8 	.word	0x000099f8

00008838 <get_key_srv_process_req>:
    8838:	e92d4030 	push	{r4, r5, lr}
    883c:	e5904000 	ldr	r4, [r0]
    8840:	e59f5080 	ldr	r5, [pc, #128]	; 88c8 <get_key_srv_process_req+0x90>
    8844:	e24dd00c 	sub	sp, sp, #12
    8848:	e5940000 	ldr	r0, [r4]
    884c:	e08f5005 	add	r5, pc, r5
    8850:	e3500001 	cmp	r0, #1
    8854:	0a000001 	beq	8860 <get_key_srv_process_req+0x28>
    8858:	e28dd00c 	add	sp, sp, #12
    885c:	e8bd8030 	pop	{r4, r5, pc}
    8860:	ebfffeb1 	bl	832c <ekb_get_key>
    8864:	e2501000 	subs	r1, r0, #0
    8868:	0a000009 	beq	8894 <get_key_srv_process_req+0x5c>
    886c:	e3a02010 	mov	r2, #16
    8870:	e2840004 	add	r0, r4, #4
    8874:	eb00244f 	bl	119b8 <memcpy>
    8878:	eb000479 	bl	9a64 <fuse_get_queried_ecid>
    887c:	e3a02010 	mov	r2, #16
    8880:	e1a01000 	mov	r1, r0
    8884:	e2840014 	add	r0, r4, #20
    8888:	e28dd00c 	add	sp, sp, #12
    888c:	e8bd4030 	pop	{r4, r5, lr}
    8890:	ea002448 	b	119b8 <memcpy>
    8894:	e59f0030 	ldr	r0, [pc, #48]	; 88cc <get_key_srv_process_req+0x94>
    8898:	e3a03027 	mov	r3, #39	; 0x27
    889c:	e59fc02c 	ldr	ip, [pc, #44]	; 88d0 <get_key_srv_process_req+0x98>
    88a0:	e59f202c 	ldr	r2, [pc, #44]	; 88d4 <get_key_srv_process_req+0x9c>
    88a4:	e59f102c 	ldr	r1, [pc, #44]	; 88d8 <get_key_srv_process_req+0xa0>
    88a8:	e08fc00c 	add	ip, pc, ip
    88ac:	e7950000 	ldr	r0, [r5, r0]
    88b0:	e08f2002 	add	r2, pc, r2
    88b4:	e08f1001 	add	r1, pc, r1
    88b8:	e58dc000 	str	ip, [sp]
    88bc:	e2800028 	add	r0, r0, #40	; 0x28
    88c0:	eb0023f7 	bl	118a4 <fprintf>
    88c4:	eaffffe3 	b	8858 <get_key_srv_process_req+0x20>
    88c8:	0000c82c 	.word	0x0000c82c
    88cc:	00000018 	.word	0x00000018
    88d0:	00009974 	.word	0x00009974
    88d4:	00009800 	.word	0x00009800
    88d8:	00009808 	.word	0x00009808

000088dc <wait_to_send>:
    88dc:	e92d41f0 	push	{r4, r5, r6, r7, r8, lr}
    88e0:	e3e02000 	mvn	r2, #0
    88e4:	e59f50bc 	ldr	r5, [pc, #188]	; 89a8 <wait_to_send+0xcc>
    88e8:	e59fc0bc 	ldr	ip, [pc, #188]	; 89ac <wait_to_send+0xd0>
    88ec:	e24dd010 	sub	sp, sp, #16
    88f0:	e08f5005 	add	r5, pc, r5
    88f4:	e1a08001 	mov	r8, r1
    88f8:	e1a0100d 	mov	r1, sp
    88fc:	e3a03000 	mov	r3, #0
    8900:	e1a07000 	mov	r7, r0
    8904:	e795600c 	ldr	r6, [r5, ip]
    8908:	e58d3000 	str	r3, [sp]
    890c:	e58d3004 	str	r3, [sp, #4]
    8910:	e596c000 	ldr	ip, [r6]
    8914:	e58dc00c 	str	ip, [sp, #12]
    8918:	e58d3008 	str	r3, [sp, #8]
    891c:	eb001165 	bl	ceb8 <wait>
    8920:	e2504000 	subs	r4, r0, #0
    8924:	ba000012 	blt	8974 <wait_to_send+0x98>
    8928:	e59d3004 	ldr	r3, [sp, #4]
    892c:	e3130010 	tst	r3, #16
    8930:	1a00000a 	bne	8960 <wait_to_send+0x84>
    8934:	e3130008 	tst	r3, #8
    8938:	1a000017 	bne	899c <wait_to_send+0xc0>
    893c:	e3130004 	tst	r3, #4
    8940:	13e0400e 	mvnne	r4, #14
    8944:	e59d200c 	ldr	r2, [sp, #12]
    8948:	e1a00004 	mov	r0, r4
    894c:	e5963000 	ldr	r3, [r6]
    8950:	e1520003 	cmp	r2, r3
    8954:	1a000012 	bne	89a4 <wait_to_send+0xc8>
    8958:	e28dd010 	add	sp, sp, #16
    895c:	e8bd81f0 	pop	{r4, r5, r6, r7, r8, pc}
    8960:	e1a01008 	mov	r1, r8
    8964:	e1a00007 	mov	r0, r7
    8968:	eb001161 	bl	cef4 <send_msg>
    896c:	e1a04000 	mov	r4, r0
    8970:	eafffff3 	b	8944 <wait_to_send+0x68>
    8974:	e59f0034 	ldr	r0, [pc, #52]	; 89b0 <wait_to_send+0xd4>
    8978:	e3a030c5 	mov	r3, #197	; 0xc5
    897c:	e59f2030 	ldr	r2, [pc, #48]	; 89b4 <wait_to_send+0xd8>
    8980:	e59f1030 	ldr	r1, [pc, #48]	; 89b8 <wait_to_send+0xdc>
    8984:	e08f2002 	add	r2, pc, r2
    8988:	e7950000 	ldr	r0, [r5, r0]
    898c:	e08f1001 	add	r1, pc, r1
    8990:	e2800028 	add	r0, r0, #40	; 0x28
    8994:	eb0023c2 	bl	118a4 <fprintf>
    8998:	eaffffe9 	b	8944 <wait_to_send+0x68>
    899c:	e3e04020 	mvn	r4, #32
    89a0:	eaffffe7 	b	8944 <wait_to_send+0x68>
    89a4:	eb0023da 	bl	11914 <__stack_chk_fail>
    89a8:	0000c788 	.word	0x0000c788
    89ac:	00000010 	.word	0x00000010
    89b0:	00000018 	.word	0x00000018
    89b4:	0000972c 	.word	0x0000972c
    89b8:	00009d80 	.word	0x00009d80

000089bc <_destroy_service>:
    89bc:	e92d4030 	push	{r4, r5, lr}
    89c0:	e2504000 	subs	r4, r0, #0
    89c4:	e59f50a8 	ldr	r5, [pc, #168]	; 8a74 <_destroy_service+0xb8>
    89c8:	e24dd00c 	sub	sp, sp, #12
    89cc:	e08f5005 	add	r5, pc, r5
    89d0:	0a00000f 	beq	8a14 <_destroy_service+0x58>
    89d4:	e5940004 	ldr	r0, [r4, #4]
    89d8:	e3700001 	cmn	r0, #1
    89dc:	1a000006 	bne	89fc <_destroy_service+0x40>
    89e0:	e3a03000 	mov	r3, #0
    89e4:	e5843000 	str	r3, [r4]
    89e8:	e584300c 	str	r3, [r4, #12]
    89ec:	e5843010 	str	r3, [r4, #16]
    89f0:	e5843008 	str	r3, [r4, #8]
    89f4:	e28dd00c 	add	sp, sp, #12
    89f8:	e8bd8030 	pop	{r4, r5, pc}
    89fc:	eb001127 	bl	cea0 <close>
    8a00:	e2501000 	subs	r1, r0, #0
    8a04:	1a00000d 	bne	8a40 <_destroy_service+0x84>
    8a08:	e3e03000 	mvn	r3, #0
    8a0c:	e5843004 	str	r3, [r4, #4]
    8a10:	eafffff2 	b	89e0 <_destroy_service+0x24>
    8a14:	e59f005c 	ldr	r0, [pc, #92]	; 8a78 <_destroy_service+0xbc>
    8a18:	e3a03067 	mov	r3, #103	; 0x67
    8a1c:	e59f2058 	ldr	r2, [pc, #88]	; 8a7c <_destroy_service+0xc0>
    8a20:	e59f1058 	ldr	r1, [pc, #88]	; 8a80 <_destroy_service+0xc4>
    8a24:	e08f2002 	add	r2, pc, r2
    8a28:	e7950000 	ldr	r0, [r5, r0]
    8a2c:	e08f1001 	add	r1, pc, r1
    8a30:	e2800028 	add	r0, r0, #40	; 0x28
    8a34:	e28dd00c 	add	sp, sp, #12
    8a38:	e8bd4030 	pop	{r4, r5, lr}
    8a3c:	ea002398 	b	118a4 <fprintf>
    8a40:	e59f0030 	ldr	r0, [pc, #48]	; 8a78 <_destroy_service+0xbc>
    8a44:	e3a03070 	mov	r3, #112	; 0x70
    8a48:	e594c004 	ldr	ip, [r4, #4]
    8a4c:	e59f2030 	ldr	r2, [pc, #48]	; 8a84 <_destroy_service+0xc8>
    8a50:	e7950000 	ldr	r0, [r5, r0]
    8a54:	e08f2002 	add	r2, pc, r2
    8a58:	e58d1000 	str	r1, [sp]
    8a5c:	e59f1024 	ldr	r1, [pc, #36]	; 8a88 <_destroy_service+0xcc>
    8a60:	e2800028 	add	r0, r0, #40	; 0x28
    8a64:	e58dc004 	str	ip, [sp, #4]
    8a68:	e08f1001 	add	r1, pc, r1
    8a6c:	eb00238c 	bl	118a4 <fprintf>
    8a70:	eaffffe4 	b	8a08 <_destroy_service+0x4c>
    8a74:	0000c6ac 	.word	0x0000c6ac
    8a78:	00000018 	.word	0x00000018
    8a7c:	0000968c 	.word	0x0000968c
    8a80:	00009958 	.word	0x00009958
    8a84:	0000965c 	.word	0x0000965c
    8a88:	00009940 	.word	0x00009940

00008a8c <_create_service>:
    8a8c:	e16f3f11 	clz	r3, r1
    8a90:	e92d41f0 	push	{r4, r5, r6, r7, r8, lr}
    8a94:	e3500000 	cmp	r0, #0
    8a98:	e59f8110 	ldr	r8, [pc, #272]	; 8bb0 <_create_service+0x124>
    8a9c:	e1a032a3 	lsr	r3, r3, #5
    8aa0:	11a05003 	movne	r5, r3
    8aa4:	03a05001 	moveq	r5, #1
    8aa8:	e08f8008 	add	r8, pc, r8
    8aac:	e24dd008 	sub	sp, sp, #8
    8ab0:	e3550000 	cmp	r5, #0
    8ab4:	1a000032 	bne	8b84 <_create_service+0xf8>
    8ab8:	e1c020d8 	ldrd	r2, [r0, #8]
    8abc:	e1a04000 	mov	r4, r0
    8ac0:	e1a06001 	mov	r6, r1
    8ac4:	e1c000d0 	ldrd	r0, [r0]
    8ac8:	eb0010ee 	bl	ce88 <port_create>
    8acc:	e2507000 	subs	r7, r0, #0
    8ad0:	ba00000d 	blt	8b0c <_create_service+0x80>
    8ad4:	e5943010 	ldr	r3, [r4, #16]
    8ad8:	e286100c 	add	r1, r6, #12
    8adc:	e5867004 	str	r7, [r6, #4]
    8ae0:	e586300c 	str	r3, [r6, #12]
    8ae4:	e5866010 	str	r6, [r6, #16]
    8ae8:	e5864000 	str	r4, [r6]
    8aec:	e5865008 	str	r5, [r6, #8]
    8af0:	eb0010ed 	bl	ceac <set_cookie>
    8af4:	e2507000 	subs	r7, r0, #0
    8af8:	a1a07005 	movge	r7, r5
    8afc:	ba00000f 	blt	8b40 <_create_service+0xb4>
    8b00:	e1a00007 	mov	r0, r7
    8b04:	e28dd008 	add	sp, sp, #8
    8b08:	e8bd81f0 	pop	{r4, r5, r6, r7, r8, pc}
    8b0c:	e59f00a0 	ldr	r0, [pc, #160]	; 8bb4 <_create_service+0x128>
    8b10:	e3a0308b 	mov	r3, #139	; 0x8b
    8b14:	e59f209c 	ldr	r2, [pc, #156]	; 8bb8 <_create_service+0x12c>
    8b18:	e59f109c 	ldr	r1, [pc, #156]	; 8bbc <_create_service+0x130>
    8b1c:	e08f2002 	add	r2, pc, r2
    8b20:	e7980000 	ldr	r0, [r8, r0]
    8b24:	e08f1001 	add	r1, pc, r1
    8b28:	e58d7000 	str	r7, [sp]
    8b2c:	e2800028 	add	r0, r0, #40	; 0x28
    8b30:	eb00235b 	bl	118a4 <fprintf>
    8b34:	e1a00007 	mov	r0, r7
    8b38:	e28dd008 	add	sp, sp, #8
    8b3c:	e8bd81f0 	pop	{r4, r5, r6, r7, r8, pc}
    8b40:	e59f106c 	ldr	r1, [pc, #108]	; 8bb4 <_create_service+0x128>
    8b44:	e3a0309a 	mov	r3, #154	; 0x9a
    8b48:	e59f2070 	ldr	r2, [pc, #112]	; 8bc0 <_create_service+0x134>
    8b4c:	e596c004 	ldr	ip, [r6, #4]
    8b50:	e08f2002 	add	r2, pc, r2
    8b54:	e7980001 	ldr	r0, [r8, r1]
    8b58:	e59f1064 	ldr	r1, [pc, #100]	; 8bc4 <_create_service+0x138>
    8b5c:	e58dc004 	str	ip, [sp, #4]
    8b60:	e2800028 	add	r0, r0, #40	; 0x28
    8b64:	e08f1001 	add	r1, pc, r1
    8b68:	e58d7000 	str	r7, [sp]
    8b6c:	eb00234c 	bl	118a4 <fprintf>
    8b70:	e1a00006 	mov	r0, r6
    8b74:	ebffff90 	bl	89bc <_destroy_service>
    8b78:	e1a00007 	mov	r0, r7
    8b7c:	e28dd008 	add	sp, sp, #8
    8b80:	e8bd81f0 	pop	{r4, r5, r6, r7, r8, pc}
    8b84:	e59f0028 	ldr	r0, [pc, #40]	; 8bb4 <_create_service+0x128>
    8b88:	e3a03083 	mov	r3, #131	; 0x83
    8b8c:	e59f2034 	ldr	r2, [pc, #52]	; 8bc8 <_create_service+0x13c>
    8b90:	e3e07007 	mvn	r7, #7
    8b94:	e59f1030 	ldr	r1, [pc, #48]	; 8bcc <_create_service+0x140>
    8b98:	e08f2002 	add	r2, pc, r2
    8b9c:	e7980000 	ldr	r0, [r8, r0]
    8ba0:	e08f1001 	add	r1, pc, r1
    8ba4:	e2800028 	add	r0, r0, #40	; 0x28
    8ba8:	eb00233d 	bl	118a4 <fprintf>
    8bac:	eaffffd3 	b	8b00 <_create_service+0x74>
    8bb0:	0000c5d0 	.word	0x0000c5d0
    8bb4:	00000018 	.word	0x00000018
    8bb8:	00009594 	.word	0x00009594
    8bbc:	0000980c 	.word	0x0000980c
    8bc0:	00009560 	.word	0x00009560
    8bc4:	000097f0 	.word	0x000097f0
    8bc8:	00009518 	.word	0x00009518
    8bcc:	0000976c 	.word	0x0000976c

00008bd0 <common_port_handler>:
    8bd0:	e92d41f0 	push	{r4, r5, r6, r7, r8, lr}
    8bd4:	e1a05000 	mov	r5, r0
    8bd8:	e59f41bc 	ldr	r4, [pc, #444]	; 8d9c <common_port_handler+0x1cc>
    8bdc:	e59f31bc 	ldr	r3, [pc, #444]	; 8da0 <common_port_handler+0x1d0>
    8be0:	e24dd020 	sub	sp, sp, #32
    8be4:	e08f4004 	add	r4, pc, r4
    8be8:	e5901004 	ldr	r1, [r0, #4]
    8bec:	e311001e 	tst	r1, #30
    8bf0:	e7946003 	ldr	r6, [r4, r3]
    8bf4:	e5963000 	ldr	r3, [r6]
    8bf8:	e58d301c 	str	r3, [sp, #28]
    8bfc:	1a000007 	bne	8c20 <common_port_handler+0x50>
    8c00:	e3110001 	tst	r1, #1
    8c04:	1a00001e 	bne	8c84 <common_port_handler+0xb4>
    8c08:	e59d201c 	ldr	r2, [sp, #28]
    8c0c:	e5963000 	ldr	r3, [r6]
    8c10:	e1520003 	cmp	r2, r3
    8c14:	1a00005f 	bne	8d98 <common_port_handler+0x1c8>
    8c18:	e28dd020 	add	sp, sp, #32
    8c1c:	e8bd81f0 	pop	{r4, r5, r6, r7, r8, pc}
    8c20:	e59f017c 	ldr	r0, [pc, #380]	; 8da4 <common_port_handler+0x1d4>
    8c24:	e30031b1 	movw	r3, #433	; 0x1b1
    8c28:	e59f7178 	ldr	r7, [pc, #376]	; 8da8 <common_port_handler+0x1d8>
    8c2c:	e595c000 	ldr	ip, [r5]
    8c30:	e08f7007 	add	r7, pc, r7
    8c34:	e7944000 	ldr	r4, [r4, r0]
    8c38:	e1a02007 	mov	r2, r7
    8c3c:	e58d1000 	str	r1, [sp]
    8c40:	e59f1164 	ldr	r1, [pc, #356]	; 8dac <common_port_handler+0x1dc>
    8c44:	e2844028 	add	r4, r4, #40	; 0x28
    8c48:	e58dc004 	str	ip, [sp, #4]
    8c4c:	e1a00004 	mov	r0, r4
    8c50:	e08f1001 	add	r1, pc, r1
    8c54:	eb002312 	bl	118a4 <fprintf>
    8c58:	e5953008 	ldr	r3, [r5, #8]
    8c5c:	e353000c 	cmp	r3, #12
    8c60:	e243500c 	sub	r5, r3, #12
    8c64:	0a000044 	beq	8d7c <common_port_handler+0x1ac>
    8c68:	e513400c 	ldr	r4, [r3, #-12]
    8c6c:	e1a00005 	mov	r0, r5
    8c70:	ebffff51 	bl	89bc <_destroy_service>
    8c74:	e1a01005 	mov	r1, r5
    8c78:	e1a00004 	mov	r0, r4
    8c7c:	ebffff82 	bl	8a8c <_create_service>
    8c80:	eaffffe0 	b	8c08 <common_port_handler+0x38>
    8c84:	e5903008 	ldr	r3, [r0, #8]
    8c88:	e28d100c 	add	r1, sp, #12
    8c8c:	e5900000 	ldr	r0, [r0]
    8c90:	e513800c 	ldr	r8, [r3, #-12]
    8c94:	eb00107e 	bl	ce94 <accept>
    8c98:	e2507000 	subs	r7, r0, #0
    8c9c:	ba00001b 	blt	8d10 <common_port_handler+0x140>
    8ca0:	e3a00008 	mov	r0, #8
    8ca4:	eb000704 	bl	a8bc <malloc>
    8ca8:	e2505000 	subs	r5, r0, #0
    8cac:	0a000024 	beq	8d44 <common_port_handler+0x174>
    8cb0:	e5983014 	ldr	r3, [r8, #20]
    8cb4:	e1a01005 	mov	r1, r5
    8cb8:	e5853000 	str	r3, [r5]
    8cbc:	e1a00007 	mov	r0, r7
    8cc0:	e5855004 	str	r5, [r5, #4]
    8cc4:	eb001078 	bl	ceac <set_cookie>
    8cc8:	e250c000 	subs	ip, r0, #0
    8ccc:	0affffcd 	beq	8c08 <common_port_handler+0x38>
    8cd0:	e59f00cc 	ldr	r0, [pc, #204]	; 8da4 <common_port_handler+0x1d4>
    8cd4:	e30031e3 	movw	r3, #483	; 0x1e3
    8cd8:	e59f20d0 	ldr	r2, [pc, #208]	; 8db0 <common_port_handler+0x1e0>
    8cdc:	e59f10d0 	ldr	r1, [pc, #208]	; 8db4 <common_port_handler+0x1e4>
    8ce0:	e08f2002 	add	r2, pc, r2
    8ce4:	e7940000 	ldr	r0, [r4, r0]
    8ce8:	e08f1001 	add	r1, pc, r1
    8cec:	e58dc000 	str	ip, [sp]
    8cf0:	e58d7004 	str	r7, [sp, #4]
    8cf4:	e2800028 	add	r0, r0, #40	; 0x28
    8cf8:	eb0022e9 	bl	118a4 <fprintf>
    8cfc:	e1a00005 	mov	r0, r5
    8d00:	eb000d97 	bl	c364 <free>
    8d04:	e1a00007 	mov	r0, r7
    8d08:	eb001064 	bl	cea0 <close>
    8d0c:	eaffffbd 	b	8c08 <common_port_handler+0x38>
    8d10:	e59f108c 	ldr	r1, [pc, #140]	; 8da4 <common_port_handler+0x1d4>
    8d14:	e30031ce 	movw	r3, #462	; 0x1ce
    8d18:	e59f2098 	ldr	r2, [pc, #152]	; 8db8 <common_port_handler+0x1e8>
    8d1c:	e595c000 	ldr	ip, [r5]
    8d20:	e08f2002 	add	r2, pc, r2
    8d24:	e7940001 	ldr	r0, [r4, r1]
    8d28:	e59f108c 	ldr	r1, [pc, #140]	; 8dbc <common_port_handler+0x1ec>
    8d2c:	e58dc004 	str	ip, [sp, #4]
    8d30:	e2800028 	add	r0, r0, #40	; 0x28
    8d34:	e58d7000 	str	r7, [sp]
    8d38:	e08f1001 	add	r1, pc, r1
    8d3c:	eb0022d8 	bl	118a4 <fprintf>
    8d40:	eaffffb0 	b	8c08 <common_port_handler+0x38>
    8d44:	e59f0058 	ldr	r0, [pc, #88]	; 8da4 <common_port_handler+0x1d4>
    8d48:	e30031d6 	movw	r3, #470	; 0x1d6
    8d4c:	e59f206c 	ldr	r2, [pc, #108]	; 8dc0 <common_port_handler+0x1f0>
    8d50:	e59f106c 	ldr	r1, [pc, #108]	; 8dc4 <common_port_handler+0x1f4>
    8d54:	e08f2002 	add	r2, pc, r2
    8d58:	e7940000 	ldr	r0, [r4, r0]
    8d5c:	e08f1001 	add	r1, pc, r1
    8d60:	e58d7004 	str	r7, [sp, #4]
    8d64:	e58d7000 	str	r7, [sp]
    8d68:	e2800028 	add	r0, r0, #40	; 0x28
    8d6c:	eb0022cc 	bl	118a4 <fprintf>
    8d70:	e1a00007 	mov	r0, r7
    8d74:	eb001049 	bl	cea0 <close>
    8d78:	eaffffa2 	b	8c08 <common_port_handler+0x38>
    8d7c:	e59f1044 	ldr	r1, [pc, #68]	; 8dc8 <common_port_handler+0x1f8>
    8d80:	e1a02007 	mov	r2, r7
    8d84:	e1a00004 	mov	r0, r4
    8d88:	e3a03f67 	mov	r3, #412	; 0x19c
    8d8c:	e08f1001 	add	r1, pc, r1
    8d90:	eb0022c3 	bl	118a4 <fprintf>
    8d94:	eaffff9b 	b	8c08 <common_port_handler+0x38>
    8d98:	eb0022dd 	bl	11914 <__stack_chk_fail>
    8d9c:	0000c494 	.word	0x0000c494
    8da0:	00000010 	.word	0x00000010
    8da4:	00000018 	.word	0x00000018
    8da8:	00009480 	.word	0x00009480
    8dac:	00009780 	.word	0x00009780
    8db0:	000093d0 	.word	0x000093d0
    8db4:	00009774 	.word	0x00009774
    8db8:	00009390 	.word	0x00009390
    8dbc:	000096c4 	.word	0x000096c4
    8dc0:	0000935c 	.word	0x0000935c
    8dc4:	000096cc 	.word	0x000096cc
    8dc8:	000095f8 	.word	0x000095f8

00008dcc <crypto_srv_chan_handler>:
    8dcc:	e92d43f0 	push	{r4, r5, r6, r7, r8, r9, lr}
    8dd0:	e1a04000 	mov	r4, r0
    8dd4:	e59f5284 	ldr	r5, [pc, #644]	; 9060 <crypto_srv_chan_handler+0x294>
    8dd8:	e59f3284 	ldr	r3, [pc, #644]	; 9064 <crypto_srv_chan_handler+0x298>
    8ddc:	e24dd054 	sub	sp, sp, #84	; 0x54
    8de0:	e08f5005 	add	r5, pc, r5
    8de4:	e5902004 	ldr	r2, [r0, #4]
    8de8:	e3120006 	tst	r2, #6
    8dec:	e7956003 	ldr	r6, [r5, r3]
    8df0:	e5963000 	ldr	r3, [r6]
    8df4:	e58d304c 	str	r3, [sp, #76]	; 0x4c
    8df8:	1a000048 	bne	8f20 <crypto_srv_chan_handler+0x154>
    8dfc:	e3120008 	tst	r2, #8
    8e00:	1a000005 	bne	8e1c <crypto_srv_chan_handler+0x50>
    8e04:	e59d204c 	ldr	r2, [sp, #76]	; 0x4c
    8e08:	e5963000 	ldr	r3, [r6]
    8e0c:	e1520003 	cmp	r2, r3
    8e10:	1a000091 	bne	905c <crypto_srv_chan_handler+0x290>
    8e14:	e28dd054 	add	sp, sp, #84	; 0x54
    8e18:	e8bd83f0 	pop	{r4, r5, r6, r7, r8, r9, pc}
    8e1c:	e28d100c 	add	r1, sp, #12
    8e20:	e5900000 	ldr	r0, [r0]
    8e24:	eb001029 	bl	ced0 <get_msg>
    8e28:	e1a07000 	mov	r7, r0
    8e2c:	e3700004 	cmn	r0, #4
    8e30:	0a00002d 	beq	8eec <crypto_srv_chan_handler+0x120>
    8e34:	e3500000 	cmp	r0, #0
    8e38:	1a00003d 	bne	8f34 <crypto_srv_chan_handler+0x168>
    8e3c:	e3a00b02 	mov	r0, #2048	; 0x800
    8e40:	eb00069d 	bl	a8bc <malloc>
    8e44:	e2508000 	subs	r8, r0, #0
    8e48:	0a000077 	beq	902c <crypto_srv_chan_handler+0x260>
    8e4c:	e28d9014 	add	r9, sp, #20
    8e50:	e1a02007 	mov	r2, r7
    8e54:	e1a03009 	mov	r3, r9
    8e58:	e59d1010 	ldr	r1, [sp, #16]
    8e5c:	e5940000 	ldr	r0, [r4]
    8e60:	e28dc034 	add	ip, sp, #52	; 0x34
    8e64:	e58d701c 	str	r7, [sp, #28]
    8e68:	e58d7020 	str	r7, [sp, #32]
    8e6c:	e58dc024 	str	ip, [sp, #36]	; 0x24
    8e70:	e3a0c018 	mov	ip, #24
    8e74:	e58d802c 	str	r8, [sp, #44]	; 0x2c
    8e78:	e58dc028 	str	ip, [sp, #40]	; 0x28
    8e7c:	e3a0cb02 	mov	ip, #2048	; 0x800
    8e80:	e58dc030 	str	ip, [sp, #48]	; 0x30
    8e84:	e3a0c002 	mov	ip, #2
    8e88:	e58dc014 	str	ip, [sp, #20]
    8e8c:	e28dc024 	add	ip, sp, #36	; 0x24
    8e90:	e58dc018 	str	ip, [sp, #24]
    8e94:	eb001010 	bl	cedc <read_msg>
    8e98:	e2507000 	subs	r7, r0, #0
    8e9c:	ba000045 	blt	8fb8 <crypto_srv_chan_handler+0x1ec>
    8ea0:	e1a01007 	mov	r1, r7
    8ea4:	e59d0018 	ldr	r0, [sp, #24]
    8ea8:	ebfffcba 	bl	8198 <crypto_srv_process_req>
    8eac:	e1a01009 	mov	r1, r9
    8eb0:	e5940000 	ldr	r0, [r4]
    8eb4:	eb00100e 	bl	cef4 <send_msg>
    8eb8:	e1a07000 	mov	r7, r0
    8ebc:	e3700009 	cmn	r0, #9
    8ec0:	0a000037 	beq	8fa4 <crypto_srv_chan_handler+0x1d8>
    8ec4:	e3570000 	cmp	r7, #0
    8ec8:	ba000026 	blt	8f68 <crypto_srv_chan_handler+0x19c>
    8ecc:	e59d1010 	ldr	r1, [sp, #16]
    8ed0:	e5940000 	ldr	r0, [r4]
    8ed4:	eb001003 	bl	cee8 <put_msg>
    8ed8:	e2507000 	subs	r7, r0, #0
    8edc:	e1a00008 	mov	r0, r8
    8ee0:	1a000043 	bne	8ff4 <crypto_srv_chan_handler+0x228>
    8ee4:	eb000d1e 	bl	c364 <free>
    8ee8:	eaffffc5 	b	8e04 <crypto_srv_chan_handler+0x38>
    8eec:	e59f3174 	ldr	r3, [pc, #372]	; 9068 <crypto_srv_chan_handler+0x29c>
    8ef0:	e7955003 	ldr	r5, [r5, r3]
    8ef4:	e5941000 	ldr	r1, [r4]
    8ef8:	e2850028 	add	r0, r5, #40	; 0x28
    8efc:	e5942004 	ldr	r2, [r4, #4]
    8f00:	e3a03f5d 	mov	r3, #372	; 0x174
    8f04:	e58d1004 	str	r1, [sp, #4]
    8f08:	e58d2000 	str	r2, [sp]
    8f0c:	e59f1158 	ldr	r1, [pc, #344]	; 906c <crypto_srv_chan_handler+0x2a0>
    8f10:	e59f2158 	ldr	r2, [pc, #344]	; 9070 <crypto_srv_chan_handler+0x2a4>
    8f14:	e08f1001 	add	r1, pc, r1
    8f18:	e08f2002 	add	r2, pc, r2
    8f1c:	eb002260 	bl	118a4 <fprintf>
    8f20:	e5940008 	ldr	r0, [r4, #8]
    8f24:	eb000d0e 	bl	c364 <free>
    8f28:	e5940000 	ldr	r0, [r4]
    8f2c:	eb000fdb 	bl	cea0 <close>
    8f30:	eaffffb3 	b	8e04 <crypto_srv_chan_handler+0x38>
    8f34:	e59f112c 	ldr	r1, [pc, #300]	; 9068 <crypto_srv_chan_handler+0x29c>
    8f38:	e3a030e3 	mov	r3, #227	; 0xe3
    8f3c:	e59f2130 	ldr	r2, [pc, #304]	; 9074 <crypto_srv_chan_handler+0x2a8>
    8f40:	e594c000 	ldr	ip, [r4]
    8f44:	e08f2002 	add	r2, pc, r2
    8f48:	e7955001 	ldr	r5, [r5, r1]
    8f4c:	e59f1124 	ldr	r1, [pc, #292]	; 9078 <crypto_srv_chan_handler+0x2ac>
    8f50:	e58d0000 	str	r0, [sp]
    8f54:	e2850028 	add	r0, r5, #40	; 0x28
    8f58:	e58dc004 	str	ip, [sp, #4]
    8f5c:	e08f1001 	add	r1, pc, r1
    8f60:	eb00224f 	bl	118a4 <fprintf>
    8f64:	eaffffe2 	b	8ef4 <crypto_srv_chan_handler+0x128>
    8f68:	e1a00008 	mov	r0, r8
    8f6c:	eb000cfc 	bl	c364 <free>
    8f70:	e59f10f0 	ldr	r1, [pc, #240]	; 9068 <crypto_srv_chan_handler+0x29c>
    8f74:	e59f2100 	ldr	r2, [pc, #256]	; 907c <crypto_srv_chan_handler+0x2b0>
    8f78:	e3003115 	movw	r3, #277	; 0x115
    8f7c:	e594c000 	ldr	ip, [r4]
    8f80:	e08f2002 	add	r2, pc, r2
    8f84:	e7955001 	ldr	r5, [r5, r1]
    8f88:	e59f10f0 	ldr	r1, [pc, #240]	; 9080 <crypto_srv_chan_handler+0x2b4>
    8f8c:	e58d7000 	str	r7, [sp]
    8f90:	e2850028 	add	r0, r5, #40	; 0x28
    8f94:	e58dc004 	str	ip, [sp, #4]
    8f98:	e08f1001 	add	r1, pc, r1
    8f9c:	eb002240 	bl	118a4 <fprintf>
    8fa0:	eaffffd3 	b	8ef4 <crypto_srv_chan_handler+0x128>
    8fa4:	e1a01009 	mov	r1, r9
    8fa8:	e5940000 	ldr	r0, [r4]
    8fac:	ebfffe4a 	bl	88dc <wait_to_send>
    8fb0:	e1a07000 	mov	r7, r0
    8fb4:	eaffffc2 	b	8ec4 <crypto_srv_chan_handler+0xf8>
    8fb8:	e1a00008 	mov	r0, r8
    8fbc:	eb000ce8 	bl	c364 <free>
    8fc0:	e59f10a0 	ldr	r1, [pc, #160]	; 9068 <crypto_srv_chan_handler+0x29c>
    8fc4:	e59f20b8 	ldr	r2, [pc, #184]	; 9084 <crypto_srv_chan_handler+0x2b8>
    8fc8:	e3003107 	movw	r3, #263	; 0x107
    8fcc:	e594c000 	ldr	ip, [r4]
    8fd0:	e08f2002 	add	r2, pc, r2
    8fd4:	e7955001 	ldr	r5, [r5, r1]
    8fd8:	e59f10a8 	ldr	r1, [pc, #168]	; 9088 <crypto_srv_chan_handler+0x2bc>
    8fdc:	e58d7000 	str	r7, [sp]
    8fe0:	e2850028 	add	r0, r5, #40	; 0x28
    8fe4:	e58dc004 	str	ip, [sp, #4]
    8fe8:	e08f1001 	add	r1, pc, r1
    8fec:	eb00222c 	bl	118a4 <fprintf>
    8ff0:	eaffffbf 	b	8ef4 <crypto_srv_chan_handler+0x128>
    8ff4:	eb000cda 	bl	c364 <free>
    8ff8:	e59f1068 	ldr	r1, [pc, #104]	; 9068 <crypto_srv_chan_handler+0x29c>
    8ffc:	e59f2088 	ldr	r2, [pc, #136]	; 908c <crypto_srv_chan_handler+0x2c0>
    9000:	e300311e 	movw	r3, #286	; 0x11e
    9004:	e594c000 	ldr	ip, [r4]
    9008:	e08f2002 	add	r2, pc, r2
    900c:	e7955001 	ldr	r5, [r5, r1]
    9010:	e59f1078 	ldr	r1, [pc, #120]	; 9090 <crypto_srv_chan_handler+0x2c4>
    9014:	e58d7000 	str	r7, [sp]
    9018:	e2850028 	add	r0, r5, #40	; 0x28
    901c:	e58dc004 	str	ip, [sp, #4]
    9020:	e08f1001 	add	r1, pc, r1
    9024:	eb00221e 	bl	118a4 <fprintf>
    9028:	eaffffb1 	b	8ef4 <crypto_srv_chan_handler+0x128>
    902c:	e59f0034 	ldr	r0, [pc, #52]	; 9068 <crypto_srv_chan_handler+0x29c>
    9030:	e3a030ea 	mov	r3, #234	; 0xea
    9034:	e59f2058 	ldr	r2, [pc, #88]	; 9094 <crypto_srv_chan_handler+0x2c8>
    9038:	e59f1058 	ldr	r1, [pc, #88]	; 9098 <crypto_srv_chan_handler+0x2cc>
    903c:	e594c000 	ldr	ip, [r4]
    9040:	e08f2002 	add	r2, pc, r2
    9044:	e7955000 	ldr	r5, [r5, r0]
    9048:	e08f1001 	add	r1, pc, r1
    904c:	e58dc000 	str	ip, [sp]
    9050:	e2850028 	add	r0, r5, #40	; 0x28
    9054:	eb002212 	bl	118a4 <fprintf>
    9058:	eaffffa5 	b	8ef4 <crypto_srv_chan_handler+0x128>
    905c:	eb00222c 	bl	11914 <__stack_chk_fail>
    9060:	0000c298 	.word	0x0000c298
    9064:	00000010 	.word	0x00000010
    9068:	00000018 	.word	0x00000018
    906c:	00009664 	.word	0x00009664
    9070:	00009198 	.word	0x00009198
    9074:	0000916c 	.word	0x0000916c
    9078:	00009530 	.word	0x00009530
    907c:	00009130 	.word	0x00009130
    9080:	00009580 	.word	0x00009580
    9084:	000090e0 	.word	0x000090e0
    9088:	00009500 	.word	0x00009500
    908c:	000090a8 	.word	0x000090a8
    9090:	00009528 	.word	0x00009528
    9094:	00009070 	.word	0x00009070
    9098:	00009474 	.word	0x00009474

0000909c <get_key_srv_chan_handler>:
    909c:	e92d40f0 	push	{r4, r5, r6, r7, lr}
    90a0:	e1a04000 	mov	r4, r0
    90a4:	e59f5204 	ldr	r5, [pc, #516]	; 92b0 <get_key_srv_chan_handler+0x214>
    90a8:	e59f3204 	ldr	r3, [pc, #516]	; 92b4 <get_key_srv_chan_handler+0x218>
    90ac:	e24dd054 	sub	sp, sp, #84	; 0x54
    90b0:	e08f5005 	add	r5, pc, r5
    90b4:	e5902004 	ldr	r2, [r0, #4]
    90b8:	e3120006 	tst	r2, #6
    90bc:	e7956003 	ldr	r6, [r5, r3]
    90c0:	e5963000 	ldr	r3, [r6]
    90c4:	e58d304c 	str	r3, [sp, #76]	; 0x4c
    90c8:	1a00004a 	bne	91f8 <get_key_srv_chan_handler+0x15c>
    90cc:	e3120008 	tst	r2, #8
    90d0:	1a000005 	bne	90ec <get_key_srv_chan_handler+0x50>
    90d4:	e59d204c 	ldr	r2, [sp, #76]	; 0x4c
    90d8:	e5963000 	ldr	r3, [r6]
    90dc:	e1520003 	cmp	r2, r3
    90e0:	1a000071 	bne	92ac <get_key_srv_chan_handler+0x210>
    90e4:	e28dd054 	add	sp, sp, #84	; 0x54
    90e8:	e8bd80f0 	pop	{r4, r5, r6, r7, pc}
    90ec:	e28d1008 	add	r1, sp, #8
    90f0:	e5900000 	ldr	r0, [r0]
    90f4:	eb000f75 	bl	ced0 <get_msg>
    90f8:	e1a0c000 	mov	ip, r0
    90fc:	e3700004 	cmn	r0, #4
    9100:	0a00002f 	beq	91c4 <get_key_srv_chan_handler+0x128>
    9104:	e3500000 	cmp	r0, #0
    9108:	e5940000 	ldr	r0, [r4]
    910c:	1a00003e 	bne	920c <get_key_srv_chan_handler+0x170>
    9110:	e28d7018 	add	r7, sp, #24
    9114:	e1a0200c 	mov	r2, ip
    9118:	e1a03007 	mov	r3, r7
    911c:	e59d100c 	ldr	r1, [sp, #12]
    9120:	e58dc020 	str	ip, [sp, #32]
    9124:	e58dc024 	str	ip, [sp, #36]	; 0x24
    9128:	e28dc028 	add	ip, sp, #40	; 0x28
    912c:	e58dc010 	str	ip, [sp, #16]
    9130:	e3a0c024 	mov	ip, #36	; 0x24
    9134:	e58dc014 	str	ip, [sp, #20]
    9138:	e3a0c001 	mov	ip, #1
    913c:	e58dc018 	str	ip, [sp, #24]
    9140:	e28dc010 	add	ip, sp, #16
    9144:	e58dc01c 	str	ip, [sp, #28]
    9148:	eb000f63 	bl	cedc <read_msg>
    914c:	e3500000 	cmp	r0, #0
    9150:	ba000048 	blt	9278 <get_key_srv_chan_handler+0x1dc>
    9154:	e59d001c 	ldr	r0, [sp, #28]
    9158:	ebfffdb6 	bl	8838 <get_key_srv_process_req>
    915c:	e1a01007 	mov	r1, r7
    9160:	e5940000 	ldr	r0, [r4]
    9164:	eb000f62 	bl	cef4 <send_msg>
    9168:	e3700009 	cmn	r0, #9
    916c:	0a00003d 	beq	9268 <get_key_srv_chan_handler+0x1cc>
    9170:	e3500000 	cmp	r0, #0
    9174:	e594c000 	ldr	ip, [r4]
    9178:	ba00002f 	blt	923c <get_key_srv_chan_handler+0x1a0>
    917c:	e1a0000c 	mov	r0, ip
    9180:	e59d100c 	ldr	r1, [sp, #12]
    9184:	eb000f57 	bl	cee8 <put_msg>
    9188:	e3500000 	cmp	r0, #0
    918c:	0affffd0 	beq	90d4 <get_key_srv_chan_handler+0x38>
    9190:	e59f1120 	ldr	r1, [pc, #288]	; 92b8 <get_key_srv_chan_handler+0x21c>
    9194:	e300315f 	movw	r3, #351	; 0x15f
    9198:	e59f211c 	ldr	r2, [pc, #284]	; 92bc <get_key_srv_chan_handler+0x220>
    919c:	e594c000 	ldr	ip, [r4]
    91a0:	e08f2002 	add	r2, pc, r2
    91a4:	e7955001 	ldr	r5, [r5, r1]
    91a8:	e59f1110 	ldr	r1, [pc, #272]	; 92c0 <get_key_srv_chan_handler+0x224>
    91ac:	e58d0000 	str	r0, [sp]
    91b0:	e2850028 	add	r0, r5, #40	; 0x28
    91b4:	e58dc004 	str	ip, [sp, #4]
    91b8:	e08f1001 	add	r1, pc, r1
    91bc:	eb0021b8 	bl	118a4 <fprintf>
    91c0:	ea000001 	b	91cc <get_key_srv_chan_handler+0x130>
    91c4:	e59f30ec 	ldr	r3, [pc, #236]	; 92b8 <get_key_srv_chan_handler+0x21c>
    91c8:	e7955003 	ldr	r5, [r5, r3]
    91cc:	e5941000 	ldr	r1, [r4]
    91d0:	e2850028 	add	r0, r5, #40	; 0x28
    91d4:	e5942004 	ldr	r2, [r4, #4]
    91d8:	e3a03f63 	mov	r3, #396	; 0x18c
    91dc:	e58d1004 	str	r1, [sp, #4]
    91e0:	e58d2000 	str	r2, [sp]
    91e4:	e59f10d8 	ldr	r1, [pc, #216]	; 92c4 <get_key_srv_chan_handler+0x228>
    91e8:	e59f20d8 	ldr	r2, [pc, #216]	; 92c8 <get_key_srv_chan_handler+0x22c>
    91ec:	e08f1001 	add	r1, pc, r1
    91f0:	e08f2002 	add	r2, pc, r2
    91f4:	eb0021aa 	bl	118a4 <fprintf>
    91f8:	e5940008 	ldr	r0, [r4, #8]
    91fc:	eb000c58 	bl	c364 <free>
    9200:	e5940000 	ldr	r0, [r4]
    9204:	eb000f25 	bl	cea0 <close>
    9208:	eaffffb1 	b	90d4 <get_key_srv_chan_handler+0x38>
    920c:	e59fe0a4 	ldr	lr, [pc, #164]	; 92b8 <get_key_srv_chan_handler+0x21c>
    9210:	e3a03f4d 	mov	r3, #308	; 0x134
    9214:	e59f20b0 	ldr	r2, [pc, #176]	; 92cc <get_key_srv_chan_handler+0x230>
    9218:	e59f10b0 	ldr	r1, [pc, #176]	; 92d0 <get_key_srv_chan_handler+0x234>
    921c:	e08f2002 	add	r2, pc, r2
    9220:	e795500e 	ldr	r5, [r5, lr]
    9224:	e08f1001 	add	r1, pc, r1
    9228:	e58d0004 	str	r0, [sp, #4]
    922c:	e58dc000 	str	ip, [sp]
    9230:	e2850028 	add	r0, r5, #40	; 0x28
    9234:	eb00219a 	bl	118a4 <fprintf>
    9238:	eaffffe3 	b	91cc <get_key_srv_chan_handler+0x130>
    923c:	e59fe074 	ldr	lr, [pc, #116]	; 92b8 <get_key_srv_chan_handler+0x21c>
    9240:	e3003157 	movw	r3, #343	; 0x157
    9244:	e59f2088 	ldr	r2, [pc, #136]	; 92d4 <get_key_srv_chan_handler+0x238>
    9248:	e59f1088 	ldr	r1, [pc, #136]	; 92d8 <get_key_srv_chan_handler+0x23c>
    924c:	e08f2002 	add	r2, pc, r2
    9250:	e795500e 	ldr	r5, [r5, lr]
    9254:	e08f1001 	add	r1, pc, r1
    9258:	e88d1001 	stm	sp, {r0, ip}
    925c:	e2850028 	add	r0, r5, #40	; 0x28
    9260:	eb00218f 	bl	118a4 <fprintf>
    9264:	eaffffd8 	b	91cc <get_key_srv_chan_handler+0x130>
    9268:	e1a01007 	mov	r1, r7
    926c:	e5940000 	ldr	r0, [r4]
    9270:	ebfffd99 	bl	88dc <wait_to_send>
    9274:	eaffffbd 	b	9170 <get_key_srv_chan_handler+0xd4>
    9278:	e59f1038 	ldr	r1, [pc, #56]	; 92b8 <get_key_srv_chan_handler+0x21c>
    927c:	e300314a 	movw	r3, #330	; 0x14a
    9280:	e59f2054 	ldr	r2, [pc, #84]	; 92dc <get_key_srv_chan_handler+0x240>
    9284:	e594c000 	ldr	ip, [r4]
    9288:	e08f2002 	add	r2, pc, r2
    928c:	e7955001 	ldr	r5, [r5, r1]
    9290:	e59f1048 	ldr	r1, [pc, #72]	; 92e0 <get_key_srv_chan_handler+0x244>
    9294:	e58d0000 	str	r0, [sp]
    9298:	e2850028 	add	r0, r5, #40	; 0x28
    929c:	e58dc004 	str	ip, [sp, #4]
    92a0:	e08f1001 	add	r1, pc, r1
    92a4:	eb00217e 	bl	118a4 <fprintf>
    92a8:	eaffffc7 	b	91cc <get_key_srv_chan_handler+0x130>
    92ac:	eb002198 	bl	11914 <__stack_chk_fail>
    92b0:	0000bfc8 	.word	0x0000bfc8
    92b4:	00000010 	.word	0x00000010
    92b8:	00000018 	.word	0x00000018
    92bc:	00008f10 	.word	0x00008f10
    92c0:	00009390 	.word	0x00009390
    92c4:	0000938c 	.word	0x0000938c
    92c8:	00008ec0 	.word	0x00008ec0
    92cc:	00008e94 	.word	0x00008e94
    92d0:	00009268 	.word	0x00009268
    92d4:	00008e64 	.word	0x00008e64
    92d8:	000092c4 	.word	0x000092c4
    92dc:	00008e28 	.word	0x00008e28
    92e0:	00009248 	.word	0x00009248

000092e4 <init_hwkey_agent_srv>:
    92e4:	e59f00b4 	ldr	r0, [pc, #180]	; 93a0 <init_hwkey_agent_srv+0xbc>
    92e8:	e3a030a7 	mov	r3, #167	; 0xa7
    92ec:	e59fc0b0 	ldr	ip, [pc, #176]	; 93a4 <init_hwkey_agent_srv+0xc0>
    92f0:	e08f0000 	add	r0, pc, r0
    92f4:	e92d40f0 	push	{r4, r5, r6, r7, lr}
    92f8:	e59f20a8 	ldr	r2, [pc, #168]	; 93a8 <init_hwkey_agent_srv+0xc4>
    92fc:	e59f60a8 	ldr	r6, [pc, #168]	; 93ac <init_hwkey_agent_srv+0xc8>
    9300:	e24dd00c 	sub	sp, sp, #12
    9304:	e790700c 	ldr	r7, [r0, ip]
    9308:	e08f2002 	add	r2, pc, r2
    930c:	e59f109c 	ldr	r1, [pc, #156]	; 93b0 <init_hwkey_agent_srv+0xcc>
    9310:	e08f6006 	add	r6, pc, r6
    9314:	e59f5098 	ldr	r5, [pc, #152]	; 93b4 <init_hwkey_agent_srv+0xd0>
    9318:	e2870028 	add	r0, r7, #40	; 0x28
    931c:	e08f1001 	add	r1, pc, r1
    9320:	e08f5005 	add	r5, pc, r5
    9324:	eb00215e 	bl	118a4 <fprintf>
    9328:	e1a01006 	mov	r1, r6
    932c:	e1a00005 	mov	r0, r5
    9330:	ebfffdd5 	bl	8a8c <_create_service>
    9334:	e2504000 	subs	r4, r0, #0
    9338:	ba00000a 	blt	9368 <init_hwkey_agent_srv+0x84>
    933c:	e2861014 	add	r1, r6, #20
    9340:	e2850018 	add	r0, r5, #24
    9344:	ebfffdd0 	bl	8a8c <_create_service>
    9348:	e59f3068 	ldr	r3, [pc, #104]	; 93b8 <init_hwkey_agent_srv+0xd4>
    934c:	e2504000 	subs	r4, r0, #0
    9350:	e08f3003 	add	r3, pc, r3
    9354:	ba000005 	blt	9370 <init_hwkey_agent_srv+0x8c>
    9358:	e3a04000 	mov	r4, #0
    935c:	e1a00004 	mov	r0, r4
    9360:	e28dd00c 	add	sp, sp, #12
    9364:	e8bd80f0 	pop	{r4, r5, r6, r7, pc}
    9368:	e59f304c 	ldr	r3, [pc, #76]	; 93bc <init_hwkey_agent_srv+0xd8>
    936c:	e08f3003 	add	r3, pc, r3
    9370:	e59f2048 	ldr	r2, [pc, #72]	; 93c0 <init_hwkey_agent_srv+0xdc>
    9374:	e2870028 	add	r0, r7, #40	; 0x28
    9378:	e59f1044 	ldr	r1, [pc, #68]	; 93c4 <init_hwkey_agent_srv+0xe0>
    937c:	e58d3004 	str	r3, [sp, #4]
    9380:	e08f2002 	add	r2, pc, r2
    9384:	e58d4000 	str	r4, [sp]
    9388:	e3a030ad 	mov	r3, #173	; 0xad
    938c:	e08f1001 	add	r1, pc, r1
    9390:	eb002143 	bl	118a4 <fprintf>
    9394:	e1a00004 	mov	r0, r4
    9398:	e28dd00c 	add	sp, sp, #12
    939c:	e8bd80f0 	pop	{r4, r5, r6, r7, pc}
    93a0:	0000bd88 	.word	0x0000bd88
    93a4:	00000018 	.word	0x00000018
    93a8:	00008da8 	.word	0x00008da8
    93ac:	0000bd94 	.word	0x0000bd94
    93b0:	00009370 	.word	0x00009370
    93b4:	0000bcf4 	.word	0x0000bcf4
    93b8:	00009304 	.word	0x00009304
    93bc:	00009304 	.word	0x00009304
    93c0:	00008d30 	.word	0x00008d30
    93c4:	00009328 	.word	0x00009328

000093c8 <kill_hwkey_agent_srv>:
    93c8:	e59f0044 	ldr	r0, [pc, #68]	; 9414 <kill_hwkey_agent_srv+0x4c>
    93cc:	e3a030b7 	mov	r3, #183	; 0xb7
    93d0:	e59fc040 	ldr	ip, [pc, #64]	; 9418 <kill_hwkey_agent_srv+0x50>
    93d4:	e08f0000 	add	r0, pc, r0
    93d8:	e92d4010 	push	{r4, lr}
    93dc:	e59f4038 	ldr	r4, [pc, #56]	; 941c <kill_hwkey_agent_srv+0x54>
    93e0:	e59f2038 	ldr	r2, [pc, #56]	; 9420 <kill_hwkey_agent_srv+0x58>
    93e4:	e790000c 	ldr	r0, [r0, ip]
    93e8:	e08f4004 	add	r4, pc, r4
    93ec:	e59f1030 	ldr	r1, [pc, #48]	; 9424 <kill_hwkey_agent_srv+0x5c>
    93f0:	e08f2002 	add	r2, pc, r2
    93f4:	e2800028 	add	r0, r0, #40	; 0x28
    93f8:	e08f1001 	add	r1, pc, r1
    93fc:	eb002128 	bl	118a4 <fprintf>
    9400:	e1a00004 	mov	r0, r4
    9404:	ebfffd6c 	bl	89bc <_destroy_service>
    9408:	e2840014 	add	r0, r4, #20
    940c:	e8bd4010 	pop	{r4, lr}
    9410:	eafffd69 	b	89bc <_destroy_service>
    9414:	0000bca4 	.word	0x0000bca4
    9418:	00000018 	.word	0x00000018
    941c:	0000bcbc 	.word	0x0000bcbc
    9420:	00008cc0 	.word	0x00008cc0
    9424:	000092e8 	.word	0x000092e8

00009428 <dispatch_hwkey_agent_srv_event>:
    9428:	e92d4030 	push	{r4, r5, lr}
    942c:	e2504000 	subs	r4, r0, #0
    9430:	e59fc100 	ldr	ip, [pc, #256]	; 9538 <dispatch_hwkey_agent_srv_event+0x110>
    9434:	e24dd00c 	sub	sp, sp, #12
    9438:	e08fc00c 	add	ip, pc, ip
    943c:	0a000035 	beq	9518 <dispatch_hwkey_agent_srv_event+0xf0>
    9440:	e594e004 	ldr	lr, [r4, #4]
    9444:	e35e0000 	cmp	lr, #0
    9448:	0a00000b 	beq	947c <dispatch_hwkey_agent_srv_event+0x54>
    944c:	e5945000 	ldr	r5, [r4]
    9450:	e3750001 	cmn	r5, #1
    9454:	0a000022 	beq	94e4 <dispatch_hwkey_agent_srv_event+0xbc>
    9458:	e5943008 	ldr	r3, [r4, #8]
    945c:	e3530000 	cmp	r3, #0
    9460:	0a000010 	beq	94a8 <dispatch_hwkey_agent_srv_event+0x80>
    9464:	e5933000 	ldr	r3, [r3]
    9468:	e3530000 	cmp	r3, #0
    946c:	0a00000d 	beq	94a8 <dispatch_hwkey_agent_srv_event+0x80>
    9470:	e28dd00c 	add	sp, sp, #12
    9474:	e8bd4030 	pop	{r4, r5, lr}
    9478:	e12fff13 	bx	r3
    947c:	e59f00b8 	ldr	r0, [pc, #184]	; 953c <dispatch_hwkey_agent_srv_event+0x114>
    9480:	e30031f1 	movw	r3, #497	; 0x1f1
    9484:	e59f20b4 	ldr	r2, [pc, #180]	; 9540 <dispatch_hwkey_agent_srv_event+0x118>
    9488:	e59f10b4 	ldr	r1, [pc, #180]	; 9544 <dispatch_hwkey_agent_srv_event+0x11c>
    948c:	e08f2002 	add	r2, pc, r2
    9490:	e79c0000 	ldr	r0, [ip, r0]
    9494:	e08f1001 	add	r1, pc, r1
    9498:	e2800028 	add	r0, r0, #40	; 0x28
    949c:	e28dd00c 	add	sp, sp, #12
    94a0:	e8bd4030 	pop	{r4, r5, lr}
    94a4:	ea0020fe 	b	118a4 <fprintf>
    94a8:	e59f108c 	ldr	r1, [pc, #140]	; 953c <dispatch_hwkey_agent_srv_event+0x114>
    94ac:	e3003206 	movw	r3, #518	; 0x206
    94b0:	e59f2090 	ldr	r2, [pc, #144]	; 9548 <dispatch_hwkey_agent_srv_event+0x120>
    94b4:	e08f2002 	add	r2, pc, r2
    94b8:	e79c0001 	ldr	r0, [ip, r1]
    94bc:	e59f1088 	ldr	r1, [pc, #136]	; 954c <dispatch_hwkey_agent_srv_event+0x124>
    94c0:	e58d5004 	str	r5, [sp, #4]
    94c4:	e2800028 	add	r0, r0, #40	; 0x28
    94c8:	e58de000 	str	lr, [sp]
    94cc:	e08f1001 	add	r1, pc, r1
    94d0:	eb0020f3 	bl	118a4 <fprintf>
    94d4:	e5940000 	ldr	r0, [r4]
    94d8:	e28dd00c 	add	sp, sp, #12
    94dc:	e8bd4030 	pop	{r4, r5, lr}
    94e0:	ea000e6e 	b	cea0 <close>
    94e4:	e59f0050 	ldr	r0, [pc, #80]	; 953c <dispatch_hwkey_agent_srv_event+0x114>
    94e8:	e3a03f7e 	mov	r3, #504	; 0x1f8
    94ec:	e59f205c 	ldr	r2, [pc, #92]	; 9550 <dispatch_hwkey_agent_srv_event+0x128>
    94f0:	e59f105c 	ldr	r1, [pc, #92]	; 9554 <dispatch_hwkey_agent_srv_event+0x12c>
    94f4:	e08f2002 	add	r2, pc, r2
    94f8:	e79c0000 	ldr	r0, [ip, r0]
    94fc:	e08f1001 	add	r1, pc, r1
    9500:	e58d5004 	str	r5, [sp, #4]
    9504:	e58de000 	str	lr, [sp]
    9508:	e2800028 	add	r0, r0, #40	; 0x28
    950c:	eb0020e4 	bl	118a4 <fprintf>
    9510:	e28dd00c 	add	sp, sp, #12
    9514:	e8bd8030 	pop	{r4, r5, pc}
    9518:	e59f3038 	ldr	r3, [pc, #56]	; 9558 <dispatch_hwkey_agent_srv_event+0x130>
    951c:	e30011ed 	movw	r1, #493	; 0x1ed
    9520:	e59f2034 	ldr	r2, [pc, #52]	; 955c <dispatch_hwkey_agent_srv_event+0x134>
    9524:	e59f0034 	ldr	r0, [pc, #52]	; 9560 <dispatch_hwkey_agent_srv_event+0x138>
    9528:	e08f3003 	add	r3, pc, r3
    952c:	e08f2002 	add	r2, pc, r2
    9530:	e08f0000 	add	r0, pc, r0
    9534:	eb0003a8 	bl	a3dc <__assert2>
    9538:	0000bc40 	.word	0x0000bc40
    953c:	00000018 	.word	0x00000018
    9540:	00008c24 	.word	0x00008c24
    9544:	00009138 	.word	0x00009138
    9548:	00008bfc 	.word	0x00008bfc
    954c:	00009154 	.word	0x00009154
    9550:	00008bbc 	.word	0x00008bbc
    9554:	000090ec 	.word	0x000090ec
    9558:	0000907c 	.word	0x0000907c
    955c:	00008dc0 	.word	0x00008dc0
    9560:	00009078 	.word	0x00009078

00009564 <nist_sp_800_108_with_cmac>:
    9564:	e92d4ff0 	push	{r4, r5, r6, r7, r8, r9, sl, fp, lr}
    9568:	e1a08001 	mov	r8, r1
    956c:	e59fa1a8 	ldr	sl, [pc, #424]	; 971c <nist_sp_800_108_with_cmac+0x1b8>
    9570:	e24dd02c 	sub	sp, sp, #44	; 0x2c
    9574:	e59f11a4 	ldr	r1, [pc, #420]	; 9720 <nist_sp_800_108_with_cmac+0x1bc>
    9578:	e08fa00a 	add	sl, pc, sl
    957c:	e1a07002 	mov	r7, r2
    9580:	e3a0b001 	mov	fp, #1
    9584:	e3a06000 	mov	r6, #0
    9588:	e58d0010 	str	r0, [sp, #16]
    958c:	e1a00008 	mov	r0, r8
    9590:	e58d3014 	str	r3, [sp, #20]
    9594:	e79a3001 	ldr	r3, [sl, r1]
    9598:	e58d300c 	str	r3, [sp, #12]
    959c:	e5cdb01c 	strb	fp, [sp, #28]
    95a0:	e5932000 	ldr	r2, [r3]
    95a4:	e58d2024 	str	r2, [sp, #36]	; 0x24
    95a8:	e5cd6020 	strb	r6, [sp, #32]
    95ac:	eb002165 	bl	11b48 <strlen>
    95b0:	e1a05000 	mov	r5, r0
    95b4:	e1a00007 	mov	r0, r7
    95b8:	eb002162 	bl	11b48 <strlen>
    95bc:	e0855000 	add	r5, r5, r0
    95c0:	e2855002 	add	r5, r5, #2
    95c4:	e1a00005 	mov	r0, r5
    95c8:	eb0004bb 	bl	a8bc <malloc>
    95cc:	e2509000 	subs	r9, r0, #0
    95d0:	0a000042 	beq	96e0 <nist_sp_800_108_with_cmac+0x17c>
    95d4:	e1a0200b 	mov	r2, fp
    95d8:	e28d101c 	add	r1, sp, #28
    95dc:	eb0020f5 	bl	119b8 <memcpy>
    95e0:	e2894001 	add	r4, r9, #1
    95e4:	e1a00007 	mov	r0, r7
    95e8:	eb002156 	bl	11b48 <strlen>
    95ec:	e1a01007 	mov	r1, r7
    95f0:	e1a02000 	mov	r2, r0
    95f4:	e1a00004 	mov	r0, r4
    95f8:	eb0020ee 	bl	119b8 <memcpy>
    95fc:	e1a00007 	mov	r0, r7
    9600:	eb002150 	bl	11b48 <strlen>
    9604:	e0844000 	add	r4, r4, r0
    9608:	e1a0200b 	mov	r2, fp
    960c:	e28d1020 	add	r1, sp, #32
    9610:	e1a00004 	mov	r0, r4
    9614:	eb0020e7 	bl	119b8 <memcpy>
    9618:	e1a00008 	mov	r0, r8
    961c:	eb002149 	bl	11b48 <strlen>
    9620:	e1a01008 	mov	r1, r8
    9624:	e1a02000 	mov	r2, r0
    9628:	e2840001 	add	r0, r4, #1
    962c:	eb0020e1 	bl	119b8 <memcpy>
    9630:	eb0012d9 	bl	e19c <CMAC_CTX_new>
    9634:	e2504000 	subs	r4, r0, #0
    9638:	0a00001a 	beq	96a8 <nist_sp_800_108_with_cmac+0x144>
    963c:	eb00158c 	bl	ec74 <EVP_aes_128_cbc>
    9640:	e59d1010 	ldr	r1, [sp, #16]
    9644:	e1a03000 	mov	r3, r0
    9648:	e3a02010 	mov	r2, #16
    964c:	e58d6000 	str	r6, [sp]
    9650:	e1a00004 	mov	r0, r4
    9654:	eb001312 	bl	e2a4 <CMAC_Init>
    9658:	e1a02005 	mov	r2, r5
    965c:	e1a01009 	mov	r1, r9
    9660:	e1a00004 	mov	r0, r4
    9664:	eb001384 	bl	e47c <CMAC_Update>
    9668:	e59d1014 	ldr	r1, [sp, #20]
    966c:	e28d2018 	add	r2, sp, #24
    9670:	e1a00004 	mov	r0, r4
    9674:	eb0013c7 	bl	e598 <CMAC_Final>
    9678:	e1a00004 	mov	r0, r4
    967c:	eb0012fb 	bl	e270 <CMAC_CTX_free>
    9680:	e1a00009 	mov	r0, r9
    9684:	eb000b36 	bl	c364 <free>
    9688:	e59d300c 	ldr	r3, [sp, #12]
    968c:	e1a00006 	mov	r0, r6
    9690:	e59d2024 	ldr	r2, [sp, #36]	; 0x24
    9694:	e5933000 	ldr	r3, [r3]
    9698:	e1520003 	cmp	r2, r3
    969c:	1a00001d 	bne	9718 <nist_sp_800_108_with_cmac+0x1b4>
    96a0:	e28dd02c 	add	sp, sp, #44	; 0x2c
    96a4:	e8bd8ff0 	pop	{r4, r5, r6, r7, r8, r9, sl, fp, pc}
    96a8:	e59f0074 	ldr	r0, [pc, #116]	; 9724 <nist_sp_800_108_with_cmac+0x1c0>
    96ac:	e3a03076 	mov	r3, #118	; 0x76
    96b0:	e59f1070 	ldr	r1, [pc, #112]	; 9728 <nist_sp_800_108_with_cmac+0x1c4>
    96b4:	e3e06004 	mvn	r6, #4
    96b8:	e59f206c 	ldr	r2, [pc, #108]	; 972c <nist_sp_800_108_with_cmac+0x1c8>
    96bc:	e08f1001 	add	r1, pc, r1
    96c0:	e79a0000 	ldr	r0, [sl, r0]
    96c4:	e08f2002 	add	r2, pc, r2
    96c8:	e58d1000 	str	r1, [sp]
    96cc:	e59f105c 	ldr	r1, [pc, #92]	; 9730 <nist_sp_800_108_with_cmac+0x1cc>
    96d0:	e2800028 	add	r0, r0, #40	; 0x28
    96d4:	e08f1001 	add	r1, pc, r1
    96d8:	eb002071 	bl	118a4 <fprintf>
    96dc:	eaffffe7 	b	9680 <nist_sp_800_108_with_cmac+0x11c>
    96e0:	e59f003c 	ldr	r0, [pc, #60]	; 9724 <nist_sp_800_108_with_cmac+0x1c0>
    96e4:	e3a03065 	mov	r3, #101	; 0x65
    96e8:	e59f1044 	ldr	r1, [pc, #68]	; 9734 <nist_sp_800_108_with_cmac+0x1d0>
    96ec:	e3e06004 	mvn	r6, #4
    96f0:	e59f2040 	ldr	r2, [pc, #64]	; 9738 <nist_sp_800_108_with_cmac+0x1d4>
    96f4:	e08f1001 	add	r1, pc, r1
    96f8:	e79a0000 	ldr	r0, [sl, r0]
    96fc:	e08f2002 	add	r2, pc, r2
    9700:	e58d1000 	str	r1, [sp]
    9704:	e59f1030 	ldr	r1, [pc, #48]	; 973c <nist_sp_800_108_with_cmac+0x1d8>
    9708:	e2800028 	add	r0, r0, #40	; 0x28
    970c:	e08f1001 	add	r1, pc, r1
    9710:	eb002063 	bl	118a4 <fprintf>
    9714:	eaffffdb 	b	9688 <nist_sp_800_108_with_cmac+0x124>
    9718:	eb00207d 	bl	11914 <__stack_chk_fail>
    971c:	0000bb00 	.word	0x0000bb00
    9720:	00000010 	.word	0x00000010
    9724:	00000018 	.word	0x00000018
    9728:	00009088 	.word	0x00009088
    972c:	000089ec 	.word	0x000089ec
    9730:	00008ac4 	.word	0x00008ac4
    9734:	00009050 	.word	0x00009050
    9738:	000089b4 	.word	0x000089b4
    973c:	000091d4 	.word	0x000091d4

00009740 <key_mgnt_processing>:
    9740:	e59f0298 	ldr	r0, [pc, #664]	; 99e0 <key_mgnt_processing+0x2a0>
    9744:	e3a030c5 	mov	r3, #197	; 0xc5
    9748:	e92d43f0 	push	{r4, r5, r6, r7, r8, r9, lr}
    974c:	e59fe290 	ldr	lr, [pc, #656]	; 99e4 <key_mgnt_processing+0x2a4>
    9750:	e08f0000 	add	r0, pc, r0
    9754:	e24dd00c 	sub	sp, sp, #12
    9758:	e59f6288 	ldr	r6, [pc, #648]	; 99e8 <key_mgnt_processing+0x2a8>
    975c:	e59fc288 	ldr	ip, [pc, #648]	; 99ec <key_mgnt_processing+0x2ac>
    9760:	e790700e 	ldr	r7, [r0, lr]
    9764:	e08f6006 	add	r6, pc, r6
    9768:	e59f1280 	ldr	r1, [pc, #640]	; 99f0 <key_mgnt_processing+0x2b0>
    976c:	e08fc00c 	add	ip, pc, ip
    9770:	e2875028 	add	r5, r7, #40	; 0x28
    9774:	e1a02006 	mov	r2, r6
    9778:	e08f1001 	add	r1, pc, r1
    977c:	e58dc000 	str	ip, [sp]
    9780:	e1a00005 	mov	r0, r5
    9784:	eb002046 	bl	118a4 <fprintf>
    9788:	eb0000b9 	bl	9a74 <fuse_query_ecid>
    978c:	eb000116 	bl	9bec <se_acquire>
    9790:	e2504000 	subs	r4, r0, #0
    9794:	1a00004a 	bne	98c4 <key_mgnt_processing+0x184>
    9798:	e3a0200b 	mov	r2, #11
    979c:	e59f0250 	ldr	r0, [pc, #592]	; 99f4 <key_mgnt_processing+0x2b4>
    97a0:	e58d2000 	str	r2, [sp]
    97a4:	e3a03010 	mov	r3, #16
    97a8:	e59f2248 	ldr	r2, [pc, #584]	; 99f8 <key_mgnt_processing+0x2b8>
    97ac:	e1a01003 	mov	r1, r3
    97b0:	e08f0000 	add	r0, pc, r0
    97b4:	e08f2002 	add	r2, pc, r2
    97b8:	eb000169 	bl	9d64 <se_derive_root_key>
    97bc:	e3500000 	cmp	r0, #0
    97c0:	0a000029 	beq	986c <key_mgnt_processing+0x12c>
    97c4:	e59f3230 	ldr	r3, [pc, #560]	; 99fc <key_mgnt_processing+0x2bc>
    97c8:	e1a02006 	mov	r2, r6
    97cc:	e59f122c 	ldr	r1, [pc, #556]	; 9a00 <key_mgnt_processing+0x2c0>
    97d0:	e08f3003 	add	r3, pc, r3
    97d4:	e58d0004 	str	r0, [sp, #4]
    97d8:	e58d3000 	str	r3, [sp]
    97dc:	e1a00005 	mov	r0, r5
    97e0:	e3a0309c 	mov	r3, #156	; 0x9c
    97e4:	e08f1001 	add	r1, pc, r1
    97e8:	eb00202d 	bl	118a4 <fprintf>
    97ec:	eb00020e 	bl	a02c <se_clear_aes_keyslots>
    97f0:	e2504000 	subs	r4, r0, #0
    97f4:	1a00003d 	bne	98f0 <key_mgnt_processing+0x1b0>
    97f8:	e59f8204 	ldr	r8, [pc, #516]	; 9a04 <key_mgnt_processing+0x2c4>
    97fc:	eb00014e 	bl	9d3c <se_release>
    9800:	e59f5200 	ldr	r5, [pc, #512]	; 9a08 <key_mgnt_processing+0x2c8>
    9804:	e59f6200 	ldr	r6, [pc, #512]	; 9a0c <key_mgnt_processing+0x2cc>
    9808:	e08f8008 	add	r8, pc, r8
    980c:	e59f21fc 	ldr	r2, [pc, #508]	; 9a10 <key_mgnt_processing+0x2d0>
    9810:	e08f5005 	add	r5, pc, r5
    9814:	e08f6006 	add	r6, pc, r6
    9818:	e1a03008 	mov	r3, r8
    981c:	e1a01005 	mov	r1, r5
    9820:	e08f2002 	add	r2, pc, r2
    9824:	e1a00006 	mov	r0, r6
    9828:	ebffff4d 	bl	9564 <nist_sp_800_108_with_cmac>
    982c:	e2504000 	subs	r4, r0, #0
    9830:	0a00003b 	beq	9924 <key_mgnt_processing+0x1e4>
    9834:	e59f21d8 	ldr	r2, [pc, #472]	; 9a14 <key_mgnt_processing+0x2d4>
    9838:	e2870028 	add	r0, r7, #40	; 0x28
    983c:	e59f11d4 	ldr	r1, [pc, #468]	; 9a18 <key_mgnt_processing+0x2d8>
    9840:	e3a030f0 	mov	r3, #240	; 0xf0
    9844:	e08f2002 	add	r2, pc, r2
    9848:	e58d2000 	str	r2, [sp]
    984c:	e59f21c8 	ldr	r2, [pc, #456]	; 9a1c <key_mgnt_processing+0x2dc>
    9850:	e08f1001 	add	r1, pc, r1
    9854:	e58d4004 	str	r4, [sp, #4]
    9858:	e08f2002 	add	r2, pc, r2
    985c:	eb002010 	bl	118a4 <fprintf>
    9860:	e1a00004 	mov	r0, r4
    9864:	e28dd00c 	add	sp, sp, #12
    9868:	e8bd83f0 	pop	{r4, r5, r6, r7, r8, r9, pc}
    986c:	e3a0200f 	mov	r2, #15
    9870:	e59f01a8 	ldr	r0, [pc, #424]	; 9a20 <key_mgnt_processing+0x2e0>
    9874:	e58d2000 	str	r2, [sp]
    9878:	e3a03010 	mov	r3, #16
    987c:	e59f21a0 	ldr	r2, [pc, #416]	; 9a24 <key_mgnt_processing+0x2e4>
    9880:	e1a01003 	mov	r1, r3
    9884:	e08f0000 	add	r0, pc, r0
    9888:	e08f2002 	add	r2, pc, r2
    988c:	eb000134 	bl	9d64 <se_derive_root_key>
    9890:	e3500000 	cmp	r0, #0
    9894:	0affffd4 	beq	97ec <key_mgnt_processing+0xac>
    9898:	e59f3188 	ldr	r3, [pc, #392]	; 9a28 <key_mgnt_processing+0x2e8>
    989c:	e1a02006 	mov	r2, r6
    98a0:	e59f1184 	ldr	r1, [pc, #388]	; 9a2c <key_mgnt_processing+0x2ec>
    98a4:	e08f3003 	add	r3, pc, r3
    98a8:	e58d0004 	str	r0, [sp, #4]
    98ac:	e58d3000 	str	r3, [sp]
    98b0:	e1a00005 	mov	r0, r5
    98b4:	e3a030a4 	mov	r3, #164	; 0xa4
    98b8:	e08f1001 	add	r1, pc, r1
    98bc:	eb001ff8 	bl	118a4 <fprintf>
    98c0:	eaffffc9 	b	97ec <key_mgnt_processing+0xac>
    98c4:	e59f3164 	ldr	r3, [pc, #356]	; 9a30 <key_mgnt_processing+0x2f0>
    98c8:	e1a02006 	mov	r2, r6
    98cc:	e59f1160 	ldr	r1, [pc, #352]	; 9a34 <key_mgnt_processing+0x2f4>
    98d0:	e1a00005 	mov	r0, r5
    98d4:	e08f3003 	add	r3, pc, r3
    98d8:	e58d4004 	str	r4, [sp, #4]
    98dc:	e58d3000 	str	r3, [sp]
    98e0:	e08f1001 	add	r1, pc, r1
    98e4:	e3a03090 	mov	r3, #144	; 0x90
    98e8:	eb001fed 	bl	118a4 <fprintf>
    98ec:	eaffffd0 	b	9834 <key_mgnt_processing+0xf4>
    98f0:	e59f2140 	ldr	r2, [pc, #320]	; 9a38 <key_mgnt_processing+0x2f8>
    98f4:	e3a030ac 	mov	r3, #172	; 0xac
    98f8:	e59f113c 	ldr	r1, [pc, #316]	; 9a3c <key_mgnt_processing+0x2fc>
    98fc:	e2870028 	add	r0, r7, #40	; 0x28
    9900:	e08f2002 	add	r2, pc, r2
    9904:	e58d2000 	str	r2, [sp]
    9908:	e59f2130 	ldr	r2, [pc, #304]	; 9a40 <key_mgnt_processing+0x300>
    990c:	e08f1001 	add	r1, pc, r1
    9910:	e58d4004 	str	r4, [sp, #4]
    9914:	e08f2002 	add	r2, pc, r2
    9918:	eb001fe1 	bl	118a4 <fprintf>
    991c:	eb000106 	bl	9d3c <se_release>
    9920:	eaffffc3 	b	9834 <key_mgnt_processing+0xf4>
    9924:	e59f9118 	ldr	r9, [pc, #280]	; 9a44 <key_mgnt_processing+0x304>
    9928:	e1a01005 	mov	r1, r5
    992c:	e59f2114 	ldr	r2, [pc, #276]	; 9a48 <key_mgnt_processing+0x308>
    9930:	e1a00006 	mov	r0, r6
    9934:	e08f9009 	add	r9, pc, r9
    9938:	e08f2002 	add	r2, pc, r2
    993c:	e1a03009 	mov	r3, r9
    9940:	ebffff07 	bl	9564 <nist_sp_800_108_with_cmac>
    9944:	e2504000 	subs	r4, r0, #0
    9948:	1affffb9 	bne	9834 <key_mgnt_processing+0xf4>
    994c:	e59f30f8 	ldr	r3, [pc, #248]	; 9a4c <key_mgnt_processing+0x30c>
    9950:	e59f20f8 	ldr	r2, [pc, #248]	; 9a50 <key_mgnt_processing+0x310>
    9954:	e59f10f8 	ldr	r1, [pc, #248]	; 9a54 <key_mgnt_processing+0x314>
    9958:	e08f3003 	add	r3, pc, r3
    995c:	e59f00f4 	ldr	r0, [pc, #244]	; 9a58 <key_mgnt_processing+0x318>
    9960:	e08f2002 	add	r2, pc, r2
    9964:	e08f1001 	add	r1, pc, r1
    9968:	e08f0000 	add	r0, pc, r0
    996c:	ebfffefc 	bl	9564 <nist_sp_800_108_with_cmac>
    9970:	e2504000 	subs	r4, r0, #0
    9974:	1affffae 	bne	9834 <key_mgnt_processing+0xf4>
    9978:	e1a01008 	mov	r1, r8
    997c:	e1a00009 	mov	r0, r9
    9980:	ebfffa75 	bl	835c <ekb_verification>
    9984:	e2504000 	subs	r4, r0, #0
    9988:	1affffa9 	bne	9834 <key_mgnt_processing+0xf4>
    998c:	ebfffa66 	bl	832c <ekb_get_key>
    9990:	e2505000 	subs	r5, r0, #0
    9994:	0a00000f 	beq	99d8 <key_mgnt_processing+0x298>
    9998:	e59f20bc 	ldr	r2, [pc, #188]	; 9a5c <key_mgnt_processing+0x31c>
    999c:	e3a030bd 	mov	r3, #189	; 0xbd
    99a0:	e59f10b8 	ldr	r1, [pc, #184]	; 9a60 <key_mgnt_processing+0x320>
    99a4:	e2870028 	add	r0, r7, #40	; 0x28
    99a8:	e58d4000 	str	r4, [sp]
    99ac:	e08f2002 	add	r2, pc, r2
    99b0:	e3a0400e 	mov	r4, #14
    99b4:	e08f1001 	add	r1, pc, r1
    99b8:	e58d4004 	str	r4, [sp, #4]
    99bc:	eb001fb8 	bl	118a4 <fprintf>
    99c0:	e1a01004 	mov	r1, r4
    99c4:	e1a00005 	mov	r0, r5
    99c8:	eb000172 	bl	9f98 <se_write_keyslot>
    99cc:	e2504000 	subs	r4, r0, #0
    99d0:	0affffa2 	beq	9860 <key_mgnt_processing+0x120>
    99d4:	eaffff96 	b	9834 <key_mgnt_processing+0xf4>
    99d8:	e3e04006 	mvn	r4, #6
    99dc:	eaffff94 	b	9834 <key_mgnt_processing+0xf4>
    99e0:	0000b928 	.word	0x0000b928
    99e4:	00000018 	.word	0x00000018
    99e8:	0000894c 	.word	0x0000894c
    99ec:	00009010 	.word	0x00009010
    99f0:	00009018 	.word	0x00009018
    99f4:	0000ba10 	.word	0x0000ba10
    99f8:	0000b918 	.word	0x0000b918
    99fc:	00008f90 	.word	0x00008f90
    9a00:	00008ff4 	.word	0x00008ff4
    9a04:	0000b9a8 	.word	0x0000b9a8
    9a08:	0000906c 	.word	0x0000906c
    9a0c:	0000b9ac 	.word	0x0000b9ac
    9a10:	000090b4 	.word	0x000090b4
    9a14:	00008f38 	.word	0x00008f38
    9a18:	00009068 	.word	0x00009068
    9a1c:	00008858 	.word	0x00008858
    9a20:	0000b95c 	.word	0x0000b95c
    9a24:	0000b854 	.word	0x0000b854
    9a28:	00008ebc 	.word	0x00008ebc
    9a2c:	00008f54 	.word	0x00008f54
    9a30:	00008e8c 	.word	0x00008e8c
    9a34:	00008ec4 	.word	0x00008ec4
    9a38:	00008e60 	.word	0x00008e60
    9a3c:	00008f30 	.word	0x00008f30
    9a40:	0000879c 	.word	0x0000879c
    9a44:	0000b86c 	.word	0x0000b86c
    9a48:	00008f34 	.word	0x00008f34
    9a4c:	0000b878 	.word	0x0000b878
    9a50:	00008f20 	.word	0x00008f20
    9a54:	00008f28 	.word	0x00008f28
    9a58:	0000b878 	.word	0x0000b878
    9a5c:	00008704 	.word	0x00008704
    9a60:	00008edc 	.word	0x00008edc

00009a64 <fuse_get_queried_ecid>:
    9a64:	e59f0004 	ldr	r0, [pc, #4]	; 9a70 <fuse_get_queried_ecid+0xc>
    9a68:	e08f0000 	add	r0, pc, r0
    9a6c:	e12fff1e 	bx	lr
    9a70:	0000b788 	.word	0x0000b788

00009a74 <fuse_query_ecid>:
    9a74:	e92d40f0 	push	{r4, r5, r6, r7, lr}
    9a78:	e3a01801 	mov	r1, #65536	; 0x10000
    9a7c:	e59f4134 	ldr	r4, [pc, #308]	; 9bb8 <fuse_query_ecid+0x144>
    9a80:	e24dd014 	sub	sp, sp, #20
    9a84:	e3a03002 	mov	r3, #2
    9a88:	e3a02001 	mov	r2, #1
    9a8c:	e3a00000 	mov	r0, #0
    9a90:	eb000cf0 	bl	ce58 <mmap>
    9a94:	e08f4004 	add	r4, pc, r4
    9a98:	e3700901 	cmn	r0, #16384	; 0x4000
    9a9c:	e1a01000 	mov	r1, r0
    9aa0:	2a000025 	bcs	9b3c <fuse_query_ecid+0xc8>
    9aa4:	e590c218 	ldr	ip, [r0, #536]	; 0x218
    9aa8:	e3a02902 	mov	r2, #32768	; 0x8000
    9aac:	e34020ff 	movt	r2, #255	; 0xff
    9ab0:	e5905214 	ldr	r5, [r0, #532]	; 0x214
    9ab4:	e3073fc0 	movw	r3, #32704	; 0x7fc0
    9ab8:	e590e210 	ldr	lr, [r0, #528]	; 0x210
    9abc:	e003330c 	and	r3, r3, ip, lsl #6
    9ac0:	e590c220 	ldr	ip, [r0, #544]	; 0x220
    9ac4:	e3a01801 	mov	r1, #65536	; 0x10000
    9ac8:	e0025785 	and	r5, r2, r5, lsl #15
    9acc:	e590220c 	ldr	r2, [r0, #524]	; 0x20c
    9ad0:	e1a0ec0e 	lsl	lr, lr, #24
    9ad4:	e1833005 	orr	r3, r3, r5
    9ad8:	e20ee43f 	and	lr, lr, #1056964608	; 0x3f000000
    9adc:	e59f50d8 	ldr	r5, [pc, #216]	; 9bbc <fuse_query_ecid+0x148>
    9ae0:	e3c2220f 	bic	r2, r2, #-268435456	; 0xf0000000
    9ae4:	e183300e 	orr	r3, r3, lr
    9ae8:	e590e208 	ldr	lr, [r0, #520]	; 0x208
    9aec:	e08f5005 	add	r5, pc, r5
    9af0:	e5907204 	ldr	r7, [r0, #516]	; 0x204
    9af4:	e21cc03f 	ands	ip, ip, #63	; 0x3f
    9af8:	e1833f02 	orr	r3, r3, r2, lsl #30
    9afc:	e5906200 	ldr	r6, [r0, #512]	; 0x200
    9b00:	e1a02122 	lsr	r2, r2, #2
    9b04:	13a0c001 	movne	ip, #1
    9b08:	e1822d0e 	orr	r2, r2, lr, lsl #26
    9b0c:	e1a0e32e 	lsr	lr, lr, #6
    9b10:	e18c3003 	orr	r3, ip, r3
    9b14:	e18eed07 	orr	lr, lr, r7, lsl #26
    9b18:	e5853000 	str	r3, [r5]
    9b1c:	e206300f 	and	r3, r6, #15
    9b20:	e9854004 	stmib	r5, {r2, lr}
    9b24:	e585300c 	str	r3, [r5, #12]
    9b28:	eb000ccd 	bl	ce64 <munmap>
    9b2c:	e3500000 	cmp	r0, #0
    9b30:	1a000012 	bne	9b80 <fuse_query_ecid+0x10c>
    9b34:	e28dd014 	add	sp, sp, #20
    9b38:	e8bd80f0 	pop	{r4, r5, r6, r7, pc}
    9b3c:	e59f007c 	ldr	r0, [pc, #124]	; 9bc0 <fuse_query_ecid+0x14c>
    9b40:	e3a0e801 	mov	lr, #65536	; 0x10000
    9b44:	e59fc078 	ldr	ip, [pc, #120]	; 9bc4 <fuse_query_ecid+0x150>
    9b48:	e3a03059 	mov	r3, #89	; 0x59
    9b4c:	e59f2074 	ldr	r2, [pc, #116]	; 9bc8 <fuse_query_ecid+0x154>
    9b50:	e08fc00c 	add	ip, pc, ip
    9b54:	e7940000 	ldr	r0, [r4, r0]
    9b58:	e08f2002 	add	r2, pc, r2
    9b5c:	e58d1004 	str	r1, [sp, #4]
    9b60:	e59f1064 	ldr	r1, [pc, #100]	; 9bcc <fuse_query_ecid+0x158>
    9b64:	e2800028 	add	r0, r0, #40	; 0x28
    9b68:	e58dc000 	str	ip, [sp]
    9b6c:	e58de008 	str	lr, [sp, #8]
    9b70:	e08f1001 	add	r1, pc, r1
    9b74:	eb001f4a 	bl	118a4 <fprintf>
    9b78:	e28dd014 	add	sp, sp, #20
    9b7c:	e8bd80f0 	pop	{r4, r5, r6, r7, pc}
    9b80:	e59f0038 	ldr	r0, [pc, #56]	; 9bc0 <fuse_query_ecid+0x14c>
    9b84:	e3a03092 	mov	r3, #146	; 0x92
    9b88:	e59fc040 	ldr	ip, [pc, #64]	; 9bd0 <fuse_query_ecid+0x15c>
    9b8c:	e59f2040 	ldr	r2, [pc, #64]	; 9bd4 <fuse_query_ecid+0x160>
    9b90:	e59f1040 	ldr	r1, [pc, #64]	; 9bd8 <fuse_query_ecid+0x164>
    9b94:	e08fc00c 	add	ip, pc, ip
    9b98:	e7940000 	ldr	r0, [r4, r0]
    9b9c:	e08f2002 	add	r2, pc, r2
    9ba0:	e08f1001 	add	r1, pc, r1
    9ba4:	e58dc000 	str	ip, [sp]
    9ba8:	e2800028 	add	r0, r0, #40	; 0x28
    9bac:	eb001f3c 	bl	118a4 <fprintf>
    9bb0:	e28dd014 	add	sp, sp, #20
    9bb4:	e8bd80f0 	pop	{r4, r5, r6, r7, pc}
    9bb8:	0000b5e4 	.word	0x0000b5e4
    9bbc:	0000b704 	.word	0x0000b704
    9bc0:	00000018 	.word	0x00000018
    9bc4:	00008dac 	.word	0x00008dac
    9bc8:	00008558 	.word	0x00008558
    9bcc:	00008d9c 	.word	0x00008d9c
    9bd0:	00008d68 	.word	0x00008d68
    9bd4:	00008514 	.word	0x00008514
    9bd8:	00008d9c 	.word	0x00008d9c

00009bdc <get_nv_se_base>:
    9bdc:	e59f3004 	ldr	r3, [pc, #4]	; 9be8 <get_nv_se_base+0xc>
    9be0:	e79f0003 	ldr	r0, [pc, r3]
    9be4:	e12fff1e 	bx	lr
    9be8:	0000b620 	.word	0x0000b620

00009bec <se_acquire>:
    9bec:	e92d4070 	push	{r4, r5, r6, lr}
    9bf0:	e3a03001 	mov	r3, #1
    9bf4:	e3a01a02 	mov	r1, #8192	; 0x2000
    9bf8:	e24dd010 	sub	sp, sp, #16
    9bfc:	e1a02003 	mov	r2, r3
    9c00:	e3a00000 	mov	r0, #0
    9c04:	eb000c93 	bl	ce58 <mmap>
    9c08:	e3700901 	cmn	r0, #16384	; 0x4000
    9c0c:	e1a04000 	mov	r4, r0
    9c10:	e59f00f8 	ldr	r0, [pc, #248]	; 9d10 <se_acquire+0x124>
    9c14:	e08f0000 	add	r0, pc, r0
    9c18:	2a000027 	bcs	9cbc <se_acquire+0xd0>
    9c1c:	e59f20f0 	ldr	r2, [pc, #240]	; 9d14 <se_acquire+0x128>
    9c20:	e2841050 	add	r1, r4, #80	; 0x50
    9c24:	e3a03064 	mov	r3, #100	; 0x64
    9c28:	e08f2002 	add	r2, pc, r2
    9c2c:	e5824000 	str	r4, [r2]
    9c30:	e5912000 	ldr	r2, [r1]
    9c34:	e3120001 	tst	r2, #1
    9c38:	1a000031 	bne	9d04 <se_acquire+0x118>
    9c3c:	e2533001 	subs	r3, r3, #1
    9c40:	1afffffa 	bne	9c30 <se_acquire+0x44>
    9c44:	e59fc0cc 	ldr	ip, [pc, #204]	; 9d18 <se_acquire+0x12c>
    9c48:	e3a03045 	mov	r3, #69	; 0x45
    9c4c:	e59f10c8 	ldr	r1, [pc, #200]	; 9d1c <se_acquire+0x130>
    9c50:	e3e05020 	mvn	r5, #32
    9c54:	e594e064 	ldr	lr, [r4, #100]	; 0x64
    9c58:	e08f1001 	add	r1, pc, r1
    9c5c:	e59f20bc 	ldr	r2, [pc, #188]	; 9d20 <se_acquire+0x134>
    9c60:	e790600c 	ldr	r6, [r0, ip]
    9c64:	e58d1000 	str	r1, [sp]
    9c68:	e08f2002 	add	r2, pc, r2
    9c6c:	e59f10b0 	ldr	r1, [pc, #176]	; 9d24 <se_acquire+0x138>
    9c70:	e2866028 	add	r6, r6, #40	; 0x28
    9c74:	e58de004 	str	lr, [sp, #4]
    9c78:	e1a00006 	mov	r0, r6
    9c7c:	e08f1001 	add	r1, pc, r1
    9c80:	e1a04002 	mov	r4, r2
    9c84:	eb001f06 	bl	118a4 <fprintf>
    9c88:	e59f3098 	ldr	r3, [pc, #152]	; 9d28 <se_acquire+0x13c>
    9c8c:	e59f1098 	ldr	r1, [pc, #152]	; 9d2c <se_acquire+0x140>
    9c90:	e1a00006 	mov	r0, r6
    9c94:	e08f3003 	add	r3, pc, r3
    9c98:	e1a02004 	mov	r2, r4
    9c9c:	e58d3000 	str	r3, [sp]
    9ca0:	e08f1001 	add	r1, pc, r1
    9ca4:	e3a03067 	mov	r3, #103	; 0x67
    9ca8:	e58d5004 	str	r5, [sp, #4]
    9cac:	eb001efc 	bl	118a4 <fprintf>
    9cb0:	e1a00005 	mov	r0, r5
    9cb4:	e28dd010 	add	sp, sp, #16
    9cb8:	e8bd8070 	pop	{r4, r5, r6, pc}
    9cbc:	e59fc054 	ldr	ip, [pc, #84]	; 9d18 <se_acquire+0x12c>
    9cc0:	e3a0ea02 	mov	lr, #8192	; 0x2000
    9cc4:	e59f1064 	ldr	r1, [pc, #100]	; 9d30 <se_acquire+0x144>
    9cc8:	e3a0305c 	mov	r3, #92	; 0x5c
    9ccc:	e59f2060 	ldr	r2, [pc, #96]	; 9d34 <se_acquire+0x148>
    9cd0:	e08f1001 	add	r1, pc, r1
    9cd4:	e790000c 	ldr	r0, [r0, ip]
    9cd8:	e08f2002 	add	r2, pc, r2
    9cdc:	e58d1000 	str	r1, [sp]
    9ce0:	e59f1050 	ldr	r1, [pc, #80]	; 9d38 <se_acquire+0x14c>
    9ce4:	e2800028 	add	r0, r0, #40	; 0x28
    9ce8:	e58d4004 	str	r4, [sp, #4]
    9cec:	e58de008 	str	lr, [sp, #8]
    9cf0:	e08f1001 	add	r1, pc, r1
    9cf4:	eb001eea 	bl	118a4 <fprintf>
    9cf8:	e5940000 	ldr	r0, [r4]
    9cfc:	e28dd010 	add	sp, sp, #16
    9d00:	e8bd8070 	pop	{r4, r5, r6, pc}
    9d04:	e3a00000 	mov	r0, #0
    9d08:	e28dd010 	add	sp, sp, #16
    9d0c:	e8bd8070 	pop	{r4, r5, r6, pc}
    9d10:	0000b464 	.word	0x0000b464
    9d14:	0000b5d8 	.word	0x0000b5d8
    9d18:	00000018 	.word	0x00000018
    9d1c:	00008d10 	.word	0x00008d10
    9d20:	00008448 	.word	0x00008448
    9d24:	00008d50 	.word	0x00008d50
    9d28:	00008cec 	.word	0x00008cec
    9d2c:	00008d6c 	.word	0x00008d6c
    9d30:	00008cb0 	.word	0x00008cb0
    9d34:	000083d8 	.word	0x000083d8
    9d38:	00008cb0 	.word	0x00008cb0

00009d3c <se_release>:
    9d3c:	e59f301c 	ldr	r3, [pc, #28]	; 9d60 <se_release+0x24>
    9d40:	e3a02001 	mov	r2, #1
    9d44:	e08f3003 	add	r3, pc, r3
    9d48:	e5933000 	ldr	r3, [r3]
    9d4c:	e59312f0 	ldr	r1, [r3, #752]	; 0x2f0
    9d50:	e58312f0 	str	r1, [r3, #752]	; 0x2f0
    9d54:	e59312f0 	ldr	r1, [r3, #752]	; 0x2f0
    9d58:	e5832050 	str	r2, [r3, #80]	; 0x50
    9d5c:	e12fff1e 	bx	lr
    9d60:	0000b4bc 	.word	0x0000b4bc

00009d64 <se_derive_root_key>:
    9d64:	e92d4030 	push	{r4, r5, lr}
    9d68:	e3520000 	cmp	r2, #0
    9d6c:	13500000 	cmpne	r0, #0
    9d70:	e59f4108 	ldr	r4, [pc, #264]	; 9e80 <se_derive_root_key+0x11c>
    9d74:	e24dd00c 	sub	sp, sp, #12
    9d78:	e08f4004 	add	r4, pc, r4
    9d7c:	0a00002f 	beq	9e40 <se_derive_root_key+0xdc>
    9d80:	e3530010 	cmp	r3, #16
    9d84:	03510010 	cmpeq	r1, #16
    9d88:	1a00001c 	bne	9e00 <se_derive_root_key+0x9c>
    9d8c:	e1a0c002 	mov	ip, r2
    9d90:	e3a03010 	mov	r3, #16
    9d94:	e59d2018 	ldr	r2, [sp, #24]
    9d98:	e1a01003 	mov	r1, r3
    9d9c:	e58d2000 	str	r2, [sp]
    9da0:	e1a02000 	mov	r2, r0
    9da4:	e1a0000c 	mov	r0, ip
    9da8:	eb0000cf 	bl	a0ec <se_aes_ecb_operation>
    9dac:	e2505000 	subs	r5, r0, #0
    9db0:	1a000002 	bne	9dc0 <se_derive_root_key+0x5c>
    9db4:	e1a00005 	mov	r0, r5
    9db8:	e28dd00c 	add	sp, sp, #12
    9dbc:	e8bd8030 	pop	{r4, r5, pc}
    9dc0:	e59f00bc 	ldr	r0, [pc, #188]	; 9e84 <se_derive_root_key+0x120>
    9dc4:	e3a0308e 	mov	r3, #142	; 0x8e
    9dc8:	e59f10b8 	ldr	r1, [pc, #184]	; 9e88 <se_derive_root_key+0x124>
    9dcc:	e59f20b8 	ldr	r2, [pc, #184]	; 9e8c <se_derive_root_key+0x128>
    9dd0:	e08f1001 	add	r1, pc, r1
    9dd4:	e7940000 	ldr	r0, [r4, r0]
    9dd8:	e08f2002 	add	r2, pc, r2
    9ddc:	e58d1000 	str	r1, [sp]
    9de0:	e59f10a8 	ldr	r1, [pc, #168]	; 9e90 <se_derive_root_key+0x12c>
    9de4:	e2800028 	add	r0, r0, #40	; 0x28
    9de8:	e58d5004 	str	r5, [sp, #4]
    9dec:	e08f1001 	add	r1, pc, r1
    9df0:	eb001eab 	bl	118a4 <fprintf>
    9df4:	e1a00005 	mov	r0, r5
    9df8:	e28dd00c 	add	sp, sp, #12
    9dfc:	e8bd8030 	pop	{r4, r5, pc}
    9e00:	e59f007c 	ldr	r0, [pc, #124]	; 9e84 <se_derive_root_key+0x120>
    9e04:	e3a03085 	mov	r3, #133	; 0x85
    9e08:	e59f1084 	ldr	r1, [pc, #132]	; 9e94 <se_derive_root_key+0x130>
    9e0c:	e3e05007 	mvn	r5, #7
    9e10:	e59f2080 	ldr	r2, [pc, #128]	; 9e98 <se_derive_root_key+0x134>
    9e14:	e08f1001 	add	r1, pc, r1
    9e18:	e7940000 	ldr	r0, [r4, r0]
    9e1c:	e08f2002 	add	r2, pc, r2
    9e20:	e58d1000 	str	r1, [sp]
    9e24:	e59f1070 	ldr	r1, [pc, #112]	; 9e9c <se_derive_root_key+0x138>
    9e28:	e2800028 	add	r0, r0, #40	; 0x28
    9e2c:	e08f1001 	add	r1, pc, r1
    9e30:	eb001e9b 	bl	118a4 <fprintf>
    9e34:	e1a00005 	mov	r0, r5
    9e38:	e28dd00c 	add	sp, sp, #12
    9e3c:	e8bd8030 	pop	{r4, r5, pc}
    9e40:	e59f003c 	ldr	r0, [pc, #60]	; 9e84 <se_derive_root_key+0x120>
    9e44:	e3a03081 	mov	r3, #129	; 0x81
    9e48:	e59f1050 	ldr	r1, [pc, #80]	; 9ea0 <se_derive_root_key+0x13c>
    9e4c:	e3e05007 	mvn	r5, #7
    9e50:	e59f204c 	ldr	r2, [pc, #76]	; 9ea4 <se_derive_root_key+0x140>
    9e54:	e08f1001 	add	r1, pc, r1
    9e58:	e7940000 	ldr	r0, [r4, r0]
    9e5c:	e08f2002 	add	r2, pc, r2
    9e60:	e58d1000 	str	r1, [sp]
    9e64:	e59f103c 	ldr	r1, [pc, #60]	; 9ea8 <se_derive_root_key+0x144>
    9e68:	e2800028 	add	r0, r0, #40	; 0x28
    9e6c:	e08f1001 	add	r1, pc, r1
    9e70:	eb001e8b 	bl	118a4 <fprintf>
    9e74:	e1a00005 	mov	r0, r5
    9e78:	e28dd00c 	add	sp, sp, #12
    9e7c:	e8bd8030 	pop	{r4, r5, pc}
    9e80:	0000b300 	.word	0x0000b300
    9e84:	00000018 	.word	0x00000018
    9e88:	00008bbc 	.word	0x00008bbc
    9e8c:	000082d8 	.word	0x000082d8
    9e90:	00008c94 	.word	0x00008c94
    9e94:	00008b78 	.word	0x00008b78
    9e98:	00008294 	.word	0x00008294
    9e9c:	00008c30 	.word	0x00008c30
    9ea0:	00008b38 	.word	0x00008b38
    9ea4:	00008254 	.word	0x00008254
    9ea8:	00008bd0 	.word	0x00008bd0

00009eac <write_aes_keyslot.constprop.2>:
    9eac:	e92d4030 	push	{r4, r5, lr}
    9eb0:	e2505000 	subs	r5, r0, #0
    9eb4:	e59f00bc 	ldr	r0, [pc, #188]	; 9f78 <write_aes_keyslot.constprop.2+0xcc>
    9eb8:	e24dd00c 	sub	sp, sp, #12
    9ebc:	e08f0000 	add	r0, pc, r0
    9ec0:	0a00001e 	beq	9f40 <write_aes_keyslot.constprop.2+0x94>
    9ec4:	e1a04001 	mov	r4, r1
    9ec8:	e351000f 	cmp	r1, #15
    9ecc:	8a00000d 	bhi	9f08 <write_aes_keyslot.constprop.2+0x5c>
    9ed0:	ebffff41 	bl	9bdc <get_nv_se_base>
    9ed4:	e1a01204 	lsl	r1, r4, #4
    9ed8:	e280efaf 	add	lr, r0, #700	; 0x2bc
    9edc:	e2453004 	sub	r3, r5, #4
    9ee0:	e2800d0b 	add	r0, r0, #704	; 0x2c0
    9ee4:	e281c004 	add	ip, r1, #4
    9ee8:	e5b32004 	ldr	r2, [r3, #4]!
    9eec:	e58e1000 	str	r1, [lr]
    9ef0:	e2811001 	add	r1, r1, #1
    9ef4:	e5802000 	str	r2, [r0]
    9ef8:	e15c0001 	cmp	ip, r1
    9efc:	1afffff9 	bne	9ee8 <write_aes_keyslot.constprop.2+0x3c>
    9f00:	e28dd00c 	add	sp, sp, #12
    9f04:	e8bd8030 	pop	{r4, r5, pc}
    9f08:	e59fe06c 	ldr	lr, [pc, #108]	; 9f7c <write_aes_keyslot.constprop.2+0xd0>
    9f0c:	e3a0306a 	mov	r3, #106	; 0x6a
    9f10:	e59fc068 	ldr	ip, [pc, #104]	; 9f80 <write_aes_keyslot.constprop.2+0xd4>
    9f14:	e59f2068 	ldr	r2, [pc, #104]	; 9f84 <write_aes_keyslot.constprop.2+0xd8>
    9f18:	e59f1068 	ldr	r1, [pc, #104]	; 9f88 <write_aes_keyslot.constprop.2+0xdc>
    9f1c:	e08fc00c 	add	ip, pc, ip
    9f20:	e790000e 	ldr	r0, [r0, lr]
    9f24:	e08f2002 	add	r2, pc, r2
    9f28:	e08f1001 	add	r1, pc, r1
    9f2c:	e58dc000 	str	ip, [sp]
    9f30:	e2800028 	add	r0, r0, #40	; 0x28
    9f34:	eb001e5a 	bl	118a4 <fprintf>
    9f38:	e28dd00c 	add	sp, sp, #12
    9f3c:	e8bd8030 	pop	{r4, r5, pc}
    9f40:	e59fe034 	ldr	lr, [pc, #52]	; 9f7c <write_aes_keyslot.constprop.2+0xd0>
    9f44:	e3a03065 	mov	r3, #101	; 0x65
    9f48:	e59fc03c 	ldr	ip, [pc, #60]	; 9f8c <write_aes_keyslot.constprop.2+0xe0>
    9f4c:	e59f203c 	ldr	r2, [pc, #60]	; 9f90 <write_aes_keyslot.constprop.2+0xe4>
    9f50:	e59f103c 	ldr	r1, [pc, #60]	; 9f94 <write_aes_keyslot.constprop.2+0xe8>
    9f54:	e08fc00c 	add	ip, pc, ip
    9f58:	e790000e 	ldr	r0, [r0, lr]
    9f5c:	e08f2002 	add	r2, pc, r2
    9f60:	e08f1001 	add	r1, pc, r1
    9f64:	e58dc000 	str	ip, [sp]
    9f68:	e2800028 	add	r0, r0, #40	; 0x28
    9f6c:	eb001e4c 	bl	118a4 <fprintf>
    9f70:	e28dd00c 	add	sp, sp, #12
    9f74:	e8bd8030 	pop	{r4, r5, pc}
    9f78:	0000b1bc 	.word	0x0000b1bc
    9f7c:	00000018 	.word	0x00000018
    9f80:	00008ba4 	.word	0x00008ba4
    9f84:	0000818c 	.word	0x0000818c
    9f88:	00008c48 	.word	0x00008c48
    9f8c:	00008b6c 	.word	0x00008b6c
    9f90:	00008154 	.word	0x00008154
    9f94:	00008be8 	.word	0x00008be8

00009f98 <se_write_keyslot>:
    9f98:	e92d40f0 	push	{r4, r5, r6, r7, lr}
    9f9c:	e1a06000 	mov	r6, r0
    9fa0:	e59f5070 	ldr	r5, [pc, #112]	; a018 <se_write_keyslot+0x80>
    9fa4:	e24dd00c 	sub	sp, sp, #12
    9fa8:	e1a07001 	mov	r7, r1
    9fac:	e08f5005 	add	r5, pc, r5
    9fb0:	ebffff0d 	bl	9bec <se_acquire>
    9fb4:	e2504000 	subs	r4, r0, #0
    9fb8:	1a000006 	bne	9fd8 <se_write_keyslot+0x40>
    9fbc:	e1a00006 	mov	r0, r6
    9fc0:	e1a01007 	mov	r1, r7
    9fc4:	ebffffb8 	bl	9eac <write_aes_keyslot.constprop.2>
    9fc8:	ebffff5b 	bl	9d3c <se_release>
    9fcc:	e1a00004 	mov	r0, r4
    9fd0:	e28dd00c 	add	sp, sp, #12
    9fd4:	e8bd80f0 	pop	{r4, r5, r6, r7, pc}
    9fd8:	e59f003c 	ldr	r0, [pc, #60]	; a01c <se_write_keyslot+0x84>
    9fdc:	e3a03096 	mov	r3, #150	; 0x96
    9fe0:	e59f1038 	ldr	r1, [pc, #56]	; a020 <se_write_keyslot+0x88>
    9fe4:	e59f2038 	ldr	r2, [pc, #56]	; a024 <se_write_keyslot+0x8c>
    9fe8:	e08f1001 	add	r1, pc, r1
    9fec:	e7950000 	ldr	r0, [r5, r0]
    9ff0:	e08f2002 	add	r2, pc, r2
    9ff4:	e58d1000 	str	r1, [sp]
    9ff8:	e59f1028 	ldr	r1, [pc, #40]	; a028 <se_write_keyslot+0x90>
    9ffc:	e2800028 	add	r0, r0, #40	; 0x28
    a000:	e58d4004 	str	r4, [sp, #4]
    a004:	e08f1001 	add	r1, pc, r1
    a008:	eb001e25 	bl	118a4 <fprintf>
    a00c:	e1a00004 	mov	r0, r4
    a010:	e28dd00c 	add	sp, sp, #12
    a014:	e8bd80f0 	pop	{r4, r5, r6, r7, pc}
    a018:	0000b0cc 	.word	0x0000b0cc
    a01c:	00000018 	.word	0x00000018
    a020:	00008aec 	.word	0x00008aec
    a024:	000080c0 	.word	0x000080c0
    a028:	000087a0 	.word	0x000087a0

0000a02c <se_clear_aes_keyslots>:
    a02c:	e59f30b0 	ldr	r3, [pc, #176]	; a0e4 <se_clear_aes_keyslots+0xb8>
    a030:	e3a0100b 	mov	r1, #11
    a034:	e59f20ac 	ldr	r2, [pc, #172]	; a0e8 <se_clear_aes_keyslots+0xbc>
    a038:	e08f3003 	add	r3, pc, r3
    a03c:	e92d4070 	push	{r4, r5, r6, lr}
    a040:	e3a05000 	mov	r5, #0
    a044:	e24dd018 	sub	sp, sp, #24
    a048:	e7936002 	ldr	r6, [r3, r2]
    a04c:	e28d4004 	add	r4, sp, #4
    a050:	e1a00004 	mov	r0, r4
    a054:	e58d5008 	str	r5, [sp, #8]
    a058:	e5963000 	ldr	r3, [r6]
    a05c:	e58d3014 	str	r3, [sp, #20]
    a060:	e58d5004 	str	r5, [sp, #4]
    a064:	e58d500c 	str	r5, [sp, #12]
    a068:	e58d5010 	str	r5, [sp, #16]
    a06c:	ebffff8e 	bl	9eac <write_aes_keyslot.constprop.2>
    a070:	e1a00004 	mov	r0, r4
    a074:	e3a0100c 	mov	r1, #12
    a078:	e58d5004 	str	r5, [sp, #4]
    a07c:	e5845004 	str	r5, [r4, #4]
    a080:	e5845008 	str	r5, [r4, #8]
    a084:	e584500c 	str	r5, [r4, #12]
    a088:	ebffff87 	bl	9eac <write_aes_keyslot.constprop.2>
    a08c:	e1a00004 	mov	r0, r4
    a090:	e3a0100d 	mov	r1, #13
    a094:	e58d5004 	str	r5, [sp, #4]
    a098:	e5845004 	str	r5, [r4, #4]
    a09c:	e5845008 	str	r5, [r4, #8]
    a0a0:	e584500c 	str	r5, [r4, #12]
    a0a4:	ebffff80 	bl	9eac <write_aes_keyslot.constprop.2>
    a0a8:	e1a00004 	mov	r0, r4
    a0ac:	e3a0100e 	mov	r1, #14
    a0b0:	e58d5004 	str	r5, [sp, #4]
    a0b4:	e5845004 	str	r5, [r4, #4]
    a0b8:	e5845008 	str	r5, [r4, #8]
    a0bc:	e584500c 	str	r5, [r4, #12]
    a0c0:	ebffff79 	bl	9eac <write_aes_keyslot.constprop.2>
    a0c4:	e59d2014 	ldr	r2, [sp, #20]
    a0c8:	e5963000 	ldr	r3, [r6]
    a0cc:	e1520003 	cmp	r2, r3
    a0d0:	1a000002 	bne	a0e0 <se_clear_aes_keyslots+0xb4>
    a0d4:	e1a00005 	mov	r0, r5
    a0d8:	e28dd018 	add	sp, sp, #24
    a0dc:	e8bd8070 	pop	{r4, r5, r6, pc}
    a0e0:	eb001e0b 	bl	11914 <__stack_chk_fail>
    a0e4:	0000b040 	.word	0x0000b040
    a0e8:	00000010 	.word	0x00000010

0000a0ec <se_aes_ecb_operation>:
    a0ec:	e92d4ff0 	push	{r4, r5, r6, r7, r8, r9, sl, fp, lr}
    a0f0:	e1a08000 	mov	r8, r0
    a0f4:	e59f5204 	ldr	r5, [pc, #516]	; a300 <se_aes_ecb_operation+0x214>
    a0f8:	e59f0204 	ldr	r0, [pc, #516]	; a304 <se_aes_ecb_operation+0x218>
    a0fc:	e24dd03c 	sub	sp, sp, #60	; 0x3c
    a100:	e08f5005 	add	r5, pc, r5
    a104:	e1a07003 	mov	r7, r3
    a108:	e1a06001 	mov	r6, r1
    a10c:	e1a0a002 	mov	sl, r2
    a110:	e59db060 	ldr	fp, [sp, #96]	; 0x60
    a114:	e28d9010 	add	r9, sp, #16
    a118:	e7953000 	ldr	r3, [r5, r0]
    a11c:	e58d300c 	str	r3, [sp, #12]
    a120:	e1a0bc0b 	lsl	fp, fp, #24
    a124:	e5933000 	ldr	r3, [r3]
    a128:	e38bbd09 	orr	fp, fp, #576	; 0x240
    a12c:	e58d3034 	str	r3, [sp, #52]	; 0x34
    a130:	ebfffea9 	bl	9bdc <get_nv_se_base>
    a134:	e1a04000 	mov	r4, r0
    a138:	ebfffea7 	bl	9bdc <get_nv_se_base>
    a13c:	e1a02000 	mov	r2, r0
    a140:	e3a0ca01 	mov	ip, #4096	; 0x1000
    a144:	e1a00008 	mov	r0, r8
    a148:	e1a01006 	mov	r1, r6
    a14c:	e1a03009 	mov	r3, r9
    a150:	e582b208 	str	fp, [r2, #520]	; 0x208
    a154:	e582c204 	str	ip, [r2, #516]	; 0x204
    a158:	e3a02009 	mov	r2, #9
    a15c:	eb000b43 	bl	ce70 <prepare_dma>
    a160:	e3500000 	cmp	r0, #0
    a164:	ba00002a 	blt	a214 <se_aes_ecb_operation+0x128>
    a168:	e1a03009 	mov	r3, r9
    a16c:	e3a0200a 	mov	r2, #10
    a170:	e1a01007 	mov	r1, r7
    a174:	e1a0000a 	mov	r0, sl
    a178:	e59db010 	ldr	fp, [sp, #16]
    a17c:	e59d9014 	ldr	r9, [sp, #20]
    a180:	eb000b3a 	bl	ce70 <prepare_dma>
    a184:	e3500000 	cmp	r0, #0
    a188:	ba00003e 	blt	a288 <se_aes_ecb_operation+0x19c>
    a18c:	e59d0014 	ldr	r0, [sp, #20]
    a190:	e1a02226 	lsr	r2, r6, #4
    a194:	e59d1010 	ldr	r1, [sp, #16]
    a198:	e2843fbd 	add	r3, r4, #756	; 0x2f4
    a19c:	e584b20c 	str	fp, [r4, #524]	; 0x20c
    a1a0:	e1869c09 	orr	r9, r6, r9, lsl #24
    a1a4:	e1870c00 	orr	r0, r7, r0, lsl #24
    a1a8:	e5849210 	str	r9, [r4, #528]	; 0x210
    a1ac:	e2422001 	sub	r2, r2, #1
    a1b0:	e5841214 	str	r1, [r4, #532]	; 0x214
    a1b4:	e5840218 	str	r0, [r4, #536]	; 0x218
    a1b8:	e3a01001 	mov	r1, #1
    a1bc:	e3401001 	movt	r1, #1
    a1c0:	e584222c 	str	r2, [r4, #556]	; 0x22c
    a1c4:	e5841238 	str	r1, [r4, #568]	; 0x238
    a1c8:	e5934000 	ldr	r4, [r3]
    a1cc:	e3540000 	cmp	r4, #0
    a1d0:	1afffffc 	bne	a1c8 <se_aes_ecb_operation+0xdc>
    a1d4:	e1a01006 	mov	r1, r6
    a1d8:	e3a02002 	mov	r2, #2
    a1dc:	e1a00008 	mov	r0, r8
    a1e0:	eb000b25 	bl	ce7c <finish_dma>
    a1e4:	e1a01007 	mov	r1, r7
    a1e8:	e1a0000a 	mov	r0, sl
    a1ec:	e3a02002 	mov	r2, #2
    a1f0:	eb000b21 	bl	ce7c <finish_dma>
    a1f4:	e1a00004 	mov	r0, r4
    a1f8:	e59d300c 	ldr	r3, [sp, #12]
    a1fc:	e59d2034 	ldr	r2, [sp, #52]	; 0x34
    a200:	e5933000 	ldr	r3, [r3]
    a204:	e1520003 	cmp	r2, r3
    a208:	1a00003b 	bne	a2fc <se_aes_ecb_operation+0x210>
    a20c:	e28dd03c 	add	sp, sp, #60	; 0x3c
    a210:	e8bd8ff0 	pop	{r4, r5, r6, r7, r8, r9, sl, fp, pc}
    a214:	e59f20ec 	ldr	r2, [pc, #236]	; a308 <se_aes_ecb_operation+0x21c>
    a218:	e3a03039 	mov	r3, #57	; 0x39
    a21c:	e59f10e8 	ldr	r1, [pc, #232]	; a30c <se_aes_ecb_operation+0x220>
    a220:	e3e04000 	mvn	r4, #0
    a224:	e59fc0e4 	ldr	ip, [pc, #228]	; a310 <se_aes_ecb_operation+0x224>
    a228:	e08f1001 	add	r1, pc, r1
    a22c:	e7956002 	ldr	r6, [r5, r2]
    a230:	e08fc00c 	add	ip, pc, ip
    a234:	e58d1000 	str	r1, [sp]
    a238:	e1a0200c 	mov	r2, ip
    a23c:	e59f10d0 	ldr	r1, [pc, #208]	; a314 <se_aes_ecb_operation+0x228>
    a240:	e2866028 	add	r6, r6, #40	; 0x28
    a244:	e58d0004 	str	r0, [sp, #4]
    a248:	e1a00006 	mov	r0, r6
    a24c:	e08f1001 	add	r1, pc, r1
    a250:	e1a0500c 	mov	r5, ip
    a254:	eb001d92 	bl	118a4 <fprintf>
    a258:	e59f30b8 	ldr	r3, [pc, #184]	; a318 <se_aes_ecb_operation+0x22c>
    a25c:	e59f10b8 	ldr	r1, [pc, #184]	; a31c <se_aes_ecb_operation+0x230>
    a260:	e1a00006 	mov	r0, r6
    a264:	e08f3003 	add	r3, pc, r3
    a268:	e1a02005 	mov	r2, r5
    a26c:	e58d3000 	str	r3, [sp]
    a270:	e08f1001 	add	r1, pc, r1
    a274:	e3a030d2 	mov	r3, #210	; 0xd2
    a278:	e58d4004 	str	r4, [sp, #4]
    a27c:	eb001d88 	bl	118a4 <fprintf>
    a280:	e1a00004 	mov	r0, r4
    a284:	eaffffdb 	b	a1f8 <se_aes_ecb_operation+0x10c>
    a288:	e59f2078 	ldr	r2, [pc, #120]	; a308 <se_aes_ecb_operation+0x21c>
    a28c:	e3a03039 	mov	r3, #57	; 0x39
    a290:	e59f1088 	ldr	r1, [pc, #136]	; a320 <se_aes_ecb_operation+0x234>
    a294:	e3e04000 	mvn	r4, #0
    a298:	e59fc084 	ldr	ip, [pc, #132]	; a324 <se_aes_ecb_operation+0x238>
    a29c:	e08f1001 	add	r1, pc, r1
    a2a0:	e7956002 	ldr	r6, [r5, r2]
    a2a4:	e08fc00c 	add	ip, pc, ip
    a2a8:	e58d1000 	str	r1, [sp]
    a2ac:	e1a0200c 	mov	r2, ip
    a2b0:	e59f1070 	ldr	r1, [pc, #112]	; a328 <se_aes_ecb_operation+0x23c>
    a2b4:	e2866028 	add	r6, r6, #40	; 0x28
    a2b8:	e58d0004 	str	r0, [sp, #4]
    a2bc:	e1a00006 	mov	r0, r6
    a2c0:	e08f1001 	add	r1, pc, r1
    a2c4:	e1a0500c 	mov	r5, ip
    a2c8:	eb001d75 	bl	118a4 <fprintf>
    a2cc:	e59f3058 	ldr	r3, [pc, #88]	; a32c <se_aes_ecb_operation+0x240>
    a2d0:	e59f1058 	ldr	r1, [pc, #88]	; a330 <se_aes_ecb_operation+0x244>
    a2d4:	e1a00006 	mov	r0, r6
    a2d8:	e08f3003 	add	r3, pc, r3
    a2dc:	e1a02005 	mov	r2, r5
    a2e0:	e58d3000 	str	r3, [sp]
    a2e4:	e08f1001 	add	r1, pc, r1
    a2e8:	e3a030d9 	mov	r3, #217	; 0xd9
    a2ec:	e58d4004 	str	r4, [sp, #4]
    a2f0:	eb001d6b 	bl	118a4 <fprintf>
    a2f4:	e1a00004 	mov	r0, r4
    a2f8:	eaffffbe 	b	a1f8 <se_aes_ecb_operation+0x10c>
    a2fc:	eb001d84 	bl	11914 <__stack_chk_fail>
    a300:	0000af78 	.word	0x0000af78
    a304:	00000010 	.word	0x00000010
    a308:	00000018 	.word	0x00000018
    a30c:	00008888 	.word	0x00008888
    a310:	00007e80 	.word	0x00007e80
    a314:	000088b4 	.word	0x000088b4
    a318:	00008884 	.word	0x00008884
    a31c:	000088b8 	.word	0x000088b8
    a320:	00008814 	.word	0x00008814
    a324:	00007e0c 	.word	0x00007e0c
    a328:	00008840 	.word	0x00008840
    a32c:	00008810 	.word	0x00008810
    a330:	00008844 	.word	0x00008844

0000a334 <_start>:
    a334:	e92d4800 	push	{fp, lr}
    a338:	e28db004 	add	fp, sp, #4
    a33c:	e24dd018 	sub	sp, sp, #24
    a340:	e50b0018 	str	r0, [fp, #-24]	; 0xffffffe8
    a344:	e59f3068 	ldr	r3, [pc, #104]	; a3b4 <_start+0x80>
    a348:	e08f3003 	add	r3, pc, r3
    a34c:	e59f2064 	ldr	r2, [pc, #100]	; a3b8 <_start+0x84>
    a350:	e7932002 	ldr	r2, [r3, r2]
    a354:	e5922000 	ldr	r2, [r2]
    a358:	e50b2008 	str	r2, [fp, #-8]
    a35c:	e59f2058 	ldr	r2, [pc, #88]	; a3bc <_start+0x88>
    a360:	e08f2002 	add	r2, pc, r2
    a364:	e50b2014 	str	r2, [fp, #-20]	; 0xffffffec
    a368:	e59f2050 	ldr	r2, [pc, #80]	; a3c0 <_start+0x8c>
    a36c:	e08f2002 	add	r2, pc, r2
    a370:	e50b2010 	str	r2, [fp, #-16]
    a374:	e59f2048 	ldr	r2, [pc, #72]	; a3c4 <_start+0x90>
    a378:	e08f2002 	add	r2, pc, r2
    a37c:	e5922000 	ldr	r2, [r2]
    a380:	e3520000 	cmp	r2, #0
    a384:	0a000002 	beq	a394 <_start+0x60>
    a388:	e59f2038 	ldr	r2, [pc, #56]	; a3c8 <_start+0x94>
    a38c:	e08f2002 	add	r2, pc, r2
    a390:	ea000000 	b	a398 <_start+0x64>
    a394:	e3a02000 	mov	r2, #0
    a398:	e50b200c 	str	r2, [fp, #-12]
    a39c:	e24b2014 	sub	r2, fp, #20
    a3a0:	e59f1024 	ldr	r1, [pc, #36]	; a3cc <_start+0x98>
    a3a4:	e7933001 	ldr	r3, [r3, r1]
    a3a8:	e1a01003 	mov	r1, r3
    a3ac:	e51b0018 	ldr	r0, [fp, #-24]	; 0xffffffe8
    a3b0:	eb000a60 	bl	cd38 <__libc_init>
    a3b4:	0000ad30 	.word	0x0000ad30
    a3b8:	00000010 	.word	0x00000010
    a3bc:	0000ac98 	.word	0x0000ac98
    a3c0:	0000ac94 	.word	0x0000ac94
    a3c4:	0000ac94 	.word	0x0000ac94
    a3c8:	0000ac80 	.word	0x0000ac80
    a3cc:	00000020 	.word	0x00000020

0000a3d0 <abort>:
    a3d0:	e92d4010 	push	{r4, lr}
    a3d4:	e3a00001 	mov	r0, #1
    a3d8:	ebfff708 	bl	8000 <exit>

0000a3dc <__assert2>:
    a3dc:	e52de004 	push	{lr}		; (str lr, [sp, #-4]!)
    a3e0:	e24dd00c 	sub	sp, sp, #12
    a3e4:	e58d3000 	str	r3, [sp]
    a3e8:	e1a03002 	mov	r3, r2
    a3ec:	e1a02001 	mov	r2, r1
    a3f0:	e1a01000 	mov	r1, r0
    a3f4:	e59f0004 	ldr	r0, [pc, #4]	; a400 <__assert2+0x24>
    a3f8:	e08f0000 	add	r0, pc, r0
    a3fc:	eb000a74 	bl	cdd4 <__libc_fatal>
    a400:	00008798 	.word	0x00008798

0000a404 <__cxa_atexit>:
    a404:	e59f30c4 	ldr	r3, [pc, #196]	; a4d0 <__cxa_atexit+0xcc>
    a408:	e59f20c4 	ldr	r2, [pc, #196]	; a4d4 <__cxa_atexit+0xd0>
    a40c:	e08f3003 	add	r3, pc, r3
    a410:	e92d41f0 	push	{r4, r5, r6, r7, r8, lr}
    a414:	e1a06000 	mov	r6, r0
    a418:	e1a05001 	mov	r5, r1
    a41c:	e7937002 	ldr	r7, [r3, r2]
    a420:	e5974000 	ldr	r4, [r7]
    a424:	e3540000 	cmp	r4, #0
    a428:	0a000004 	beq	a440 <__cxa_atexit+0x3c>
    a42c:	e5943004 	ldr	r3, [r4, #4]
    a430:	e5941008 	ldr	r1, [r4, #8]
    a434:	e2832001 	add	r2, r3, #1
    a438:	e1520001 	cmp	r2, r1
    a43c:	ba000014 	blt	a494 <__cxa_atexit+0x90>
    a440:	e3a00040 	mov	r0, #64	; 0x40
    a444:	eb00011c 	bl	a8bc <malloc>
    a448:	e2504000 	subs	r4, r0, #0
    a44c:	0a00001d 	beq	a4c8 <__cxa_atexit+0xc4>
    a450:	e5971000 	ldr	r1, [r7]
    a454:	e3510000 	cmp	r1, #0
    a458:	13a03000 	movne	r3, #0
    a45c:	15843004 	strne	r3, [r4, #4]
    a460:	0a000011 	beq	a4ac <__cxa_atexit+0xa8>
    a464:	e59f206c 	ldr	r2, [pc, #108]	; a4d8 <__cxa_atexit+0xd4>
    a468:	e3a03006 	mov	r3, #6
    a46c:	e5843008 	str	r3, [r4, #8]
    a470:	e08f2002 	add	r2, pc, r2
    a474:	e5841000 	str	r1, [r4]
    a478:	e5874000 	str	r4, [r7]
    a47c:	e5923000 	ldr	r3, [r2]
    a480:	e3530000 	cmp	r3, #0
    a484:	e5943004 	ldr	r3, [r4, #4]
    a488:	13a01000 	movne	r1, #0
    a48c:	15821000 	strne	r1, [r2]
    a490:	e2832001 	add	r2, r3, #1
    a494:	e0843183 	add	r3, r4, r3, lsl #3
    a498:	e5842004 	str	r2, [r4, #4]
    a49c:	e3a00000 	mov	r0, #0
    a4a0:	e583600c 	str	r6, [r3, #12]
    a4a4:	e5835010 	str	r5, [r3, #16]
    a4a8:	e8bd81f0 	pop	{r4, r5, r6, r7, r8, pc}
    a4ac:	e3a02008 	mov	r2, #8
    a4b0:	e284000c 	add	r0, r4, #12
    a4b4:	eb001d7a 	bl	11aa4 <memset>
    a4b8:	e3a03001 	mov	r3, #1
    a4bc:	e5971000 	ldr	r1, [r7]
    a4c0:	e5843004 	str	r3, [r4, #4]
    a4c4:	eaffffe6 	b	a464 <__cxa_atexit+0x60>
    a4c8:	e3e00000 	mvn	r0, #0
    a4cc:	e8bd81f0 	pop	{r4, r5, r6, r7, r8, pc}
    a4d0:	0000ac6c 	.word	0x0000ac6c
    a4d4:	0000001c 	.word	0x0000001c
    a4d8:	0000ac7c 	.word	0x0000ac7c

0000a4dc <__cxa_finalize>:
    a4dc:	e59f30c8 	ldr	r3, [pc, #200]	; a5ac <__cxa_finalize+0xd0>
    a4e0:	e92d41f0 	push	{r4, r5, r6, r7, r8, lr}
    a4e4:	e08f3003 	add	r3, pc, r3
    a4e8:	e59f20c0 	ldr	r2, [pc, #192]	; a5b0 <__cxa_finalize+0xd4>
    a4ec:	e5936000 	ldr	r6, [r3]
    a4f0:	e08f2002 	add	r2, pc, r2
    a4f4:	e3560000 	cmp	r6, #0
    a4f8:	18bd81f0 	popne	{r4, r5, r6, r7, r8, pc}
    a4fc:	e59f00b0 	ldr	r0, [pc, #176]	; a5b4 <__cxa_finalize+0xd8>
    a500:	e59f10b0 	ldr	r1, [pc, #176]	; a5b8 <__cxa_finalize+0xdc>
    a504:	e08f0000 	add	r0, pc, r0
    a508:	e5903000 	ldr	r3, [r0]
    a50c:	e2833001 	add	r3, r3, #1
    a510:	e5803000 	str	r3, [r0]
    a514:	e7928001 	ldr	r8, [r2, r1]
    a518:	e5987000 	ldr	r7, [r8]
    a51c:	e3570000 	cmp	r7, #0
    a520:	0a000011 	beq	a56c <__cxa_finalize+0x90>
    a524:	e5975004 	ldr	r5, [r7, #4]
    a528:	e0874185 	add	r4, r7, r5, lsl #3
    a52c:	ea000006 	b	a54c <__cxa_finalize+0x70>
    a530:	e5943004 	ldr	r3, [r4, #4]
    a534:	e3530000 	cmp	r3, #0
    a538:	0a000002 	beq	a548 <__cxa_finalize+0x6c>
    a53c:	e5940008 	ldr	r0, [r4, #8]
    a540:	e5846004 	str	r6, [r4, #4]
    a544:	e12fff33 	blx	r3
    a548:	e2444008 	sub	r4, r4, #8
    a54c:	e2555001 	subs	r5, r5, #1
    a550:	5afffff6 	bpl	a530 <__cxa_finalize+0x54>
    a554:	e5977000 	ldr	r7, [r7]
    a558:	e3570000 	cmp	r7, #0
    a55c:	1afffff0 	bne	a524 <__cxa_finalize+0x48>
    a560:	e59f3054 	ldr	r3, [pc, #84]	; a5bc <__cxa_finalize+0xe0>
    a564:	e08f3003 	add	r3, pc, r3
    a568:	e5933000 	ldr	r3, [r3]
    a56c:	e59f204c 	ldr	r2, [pc, #76]	; a5c0 <__cxa_finalize+0xe4>
    a570:	e2433001 	sub	r3, r3, #1
    a574:	e3530000 	cmp	r3, #0
    a578:	e08f2002 	add	r2, pc, r2
    a57c:	e5823000 	str	r3, [r2]
    a580:	18bd81f0 	popne	{r4, r5, r6, r7, r8, pc}
    a584:	e5980000 	ldr	r0, [r8]
    a588:	e3500000 	cmp	r0, #0
    a58c:	0a000003 	beq	a5a0 <__cxa_finalize+0xc4>
    a590:	e5904000 	ldr	r4, [r0]
    a594:	eb000772 	bl	c364 <free>
    a598:	e2540000 	subs	r0, r4, #0
    a59c:	1afffffb 	bne	a590 <__cxa_finalize+0xb4>
    a5a0:	e3a03000 	mov	r3, #0
    a5a4:	e5883000 	str	r3, [r8]
    a5a8:	e8bd81f0 	pop	{r4, r5, r6, r7, r8, pc}
    a5ac:	0000ac08 	.word	0x0000ac08
    a5b0:	0000ab88 	.word	0x0000ab88
    a5b4:	0000ad00 	.word	0x0000ad00
    a5b8:	0000001c 	.word	0x0000001c
    a5bc:	0000aca0 	.word	0x0000aca0
    a5c0:	0000ac8c 	.word	0x0000ac8c

0000a5c4 <sbrk>:
    a5c4:	e92d4070 	push	{r4, r5, r6, lr}
    a5c8:	e1a04000 	mov	r4, r0
    a5cc:	e59f5050 	ldr	r5, [pc, #80]	; a624 <sbrk+0x60>
    a5d0:	e08f5005 	add	r5, pc, r5
    a5d4:	e5950000 	ldr	r0, [r5]
    a5d8:	e3500000 	cmp	r0, #0
    a5dc:	0a00000d 	beq	a618 <sbrk+0x54>
    a5e0:	e280001f 	add	r0, r0, #31
    a5e4:	e284401f 	add	r4, r4, #31
    a5e8:	e3c0501f 	bic	r5, r0, #31
    a5ec:	e3c4401f 	bic	r4, r4, #31
    a5f0:	e0854004 	add	r4, r5, r4
    a5f4:	e1a00004 	mov	r0, r4
    a5f8:	eb000a0d 	bl	ce34 <brk>
    a5fc:	e1540000 	cmp	r4, r0
    a600:	83e05000 	mvnhi	r5, #0
    a604:	959f301c 	ldrls	r3, [pc, #28]	; a628 <sbrk+0x64>
    a608:	908f3003 	addls	r3, pc, r3
    a60c:	95830000 	strls	r0, [r3]
    a610:	e1a00005 	mov	r0, r5
    a614:	e8bd8070 	pop	{r4, r5, r6, pc}
    a618:	eb000a05 	bl	ce34 <brk>
    a61c:	e5850000 	str	r0, [r5]
    a620:	eaffffee 	b	a5e0 <sbrk+0x1c>
    a624:	0000ac38 	.word	0x0000ac38
    a628:	0000ac00 	.word	0x0000ac00

0000a62c <init_mparams.part.2>:
    a62c:	e59f1084 	ldr	r1, [pc, #132]	; a6b8 <init_mparams.part.2+0x8c>
    a630:	e3052550 	movw	r2, #21840	; 0x5550
    a634:	e3452555 	movt	r2, #21845	; 0x5555
    a638:	e59fc07c 	ldr	ip, [pc, #124]	; a6bc <init_mparams.part.2+0x90>
    a63c:	e08f1001 	add	r1, pc, r1
    a640:	e92d4010 	push	{r4, lr}
    a644:	e3e04000 	mvn	r4, #0
    a648:	e59f3070 	ldr	r3, [pc, #112]	; a6c0 <init_mparams.part.2+0x94>
    a64c:	e24dd008 	sub	sp, sp, #8
    a650:	e791e00c 	ldr	lr, [r1, ip]
    a654:	e08f3003 	add	r3, pc, r3
    a658:	e1a0000d 	mov	r0, sp
    a65c:	e3a01602 	mov	r1, #2097152	; 0x200000
    a660:	e0222000 	eor	r2, r2, r0
    a664:	e59f0058 	ldr	r0, [pc, #88]	; a6c4 <init_mparams.part.2+0x98>
    a668:	e5831010 	str	r1, [r3, #16]
    a66c:	e3822008 	orr	r2, r2, #8
    a670:	e59e1000 	ldr	r1, [lr]
    a674:	e08f0000 	add	r0, pc, r0
    a678:	e58d1004 	str	r1, [sp, #4]
    a67c:	e3a0ca01 	mov	ip, #4096	; 0x1000
    a680:	e5832000 	str	r2, [r3]
    a684:	e3a01000 	mov	r1, #0
    a688:	e583400c 	str	r4, [r3, #12]
    a68c:	e59d4004 	ldr	r4, [sp, #4]
    a690:	e59e2000 	ldr	r2, [lr]
    a694:	e583c008 	str	ip, [r3, #8]
    a698:	e1540002 	cmp	r4, r2
    a69c:	e583c004 	str	ip, [r3, #4]
    a6a0:	e5831014 	str	r1, [r3, #20]
    a6a4:	e58011bc 	str	r1, [r0, #444]	; 0x1bc
    a6a8:	1a000001 	bne	a6b4 <init_mparams.part.2+0x88>
    a6ac:	e28dd008 	add	sp, sp, #8
    a6b0:	e8bd8010 	pop	{r4, pc}
    a6b4:	eb001c96 	bl	11914 <__stack_chk_fail>
    a6b8:	0000aa3c 	.word	0x0000aa3c
    a6bc:	00000010 	.word	0x00000010
    a6c0:	0000ad90 	.word	0x0000ad90
    a6c4:	0000ab98 	.word	0x0000ab98

0000a6c8 <sys_trim.constprop.7>:
    a6c8:	e59f31c8 	ldr	r3, [pc, #456]	; a898 <sys_trim.constprop.7+0x1d0>
    a6cc:	e92d4070 	push	{r4, r5, r6, lr}
    a6d0:	e1a05000 	mov	r5, r0
    a6d4:	e08f3003 	add	r3, pc, r3
    a6d8:	e5933000 	ldr	r3, [r3]
    a6dc:	e3530000 	cmp	r3, #0
    a6e0:	0a000036 	beq	a7c0 <sys_trim.constprop.7+0xf8>
    a6e4:	e3750041 	cmn	r5, #65	; 0x41
    a6e8:	8a000032 	bhi	a7b8 <sys_trim.constprop.7+0xf0>
    a6ec:	e59f41a8 	ldr	r4, [pc, #424]	; a89c <sys_trim.constprop.7+0x1d4>
    a6f0:	e08f4004 	add	r4, pc, r4
    a6f4:	e5942018 	ldr	r2, [r4, #24]
    a6f8:	e3520000 	cmp	r2, #0
    a6fc:	0a00002d 	beq	a7b8 <sys_trim.constprop.7+0xf0>
    a700:	e594100c 	ldr	r1, [r4, #12]
    a704:	e2855028 	add	r5, r5, #40	; 0x28
    a708:	e1550001 	cmp	r5, r1
    a70c:	2a000024 	bcs	a7a4 <sys_trim.constprop.7+0xdc>
    a710:	e2844d07 	add	r4, r4, #448	; 0x1c0
    a714:	e5943000 	ldr	r3, [r4]
    a718:	e1520003 	cmp	r2, r3
    a71c:	3a000003 	bcc	a730 <sys_trim.constprop.7+0x68>
    a720:	e5940004 	ldr	r0, [r4, #4]
    a724:	e0833000 	add	r3, r3, r0
    a728:	e1520003 	cmp	r2, r3
    a72c:	3a000004 	bcc	a744 <sys_trim.constprop.7+0x7c>
    a730:	e5944008 	ldr	r4, [r4, #8]
    a734:	e3540000 	cmp	r4, #0
    a738:	1afffff5 	bne	a714 <sys_trim.constprop.7+0x4c>
    a73c:	e594300c 	ldr	r3, [r4, #12]
    a740:	e7f000f0 	udf	#0
    a744:	e594300c 	ldr	r3, [r4, #12]
    a748:	e3130008 	tst	r3, #8
    a74c:	1a000014 	bne	a7a4 <sys_trim.constprop.7+0xdc>
    a750:	e59f3148 	ldr	r3, [pc, #328]	; a8a0 <sys_trim.constprop.7+0x1d8>
    a754:	e3a00000 	mov	r0, #0
    a758:	e08f3003 	add	r3, pc, r3
    a75c:	e5933008 	ldr	r3, [r3, #8]
    a760:	e0811003 	add	r1, r1, r3
    a764:	e2411001 	sub	r1, r1, #1
    a768:	e0415005 	sub	r5, r1, r5
    a76c:	e735f315 	udiv	r5, r5, r3
    a770:	e2455001 	sub	r5, r5, #1
    a774:	e0050593 	mul	r5, r3, r5
    a778:	e375010a 	cmn	r5, #-2147483646	; 0x80000002
    a77c:	82635102 	rsbhi	r5, r3, #-2147483648	; 0x80000000
    a780:	ebffff8f 	bl	a5c4 <sbrk>
    a784:	e1c420d0 	ldrd	r2, [r4]
    a788:	e1a06000 	mov	r6, r0
    a78c:	e0833002 	add	r3, r3, r2
    a790:	e1500003 	cmp	r0, r3
    a794:	0a00000f 	beq	a7d8 <sys_trim.constprop.7+0x110>
    a798:	e59f3104 	ldr	r3, [pc, #260]	; a8a4 <sys_trim.constprop.7+0x1dc>
    a79c:	e08f3003 	add	r3, pc, r3
    a7a0:	e593100c 	ldr	r1, [r3, #12]
    a7a4:	e59f30fc 	ldr	r3, [pc, #252]	; a8a8 <sys_trim.constprop.7+0x1e0>
    a7a8:	e08f3003 	add	r3, pc, r3
    a7ac:	e593201c 	ldr	r2, [r3, #28]
    a7b0:	e1520001 	cmp	r2, r1
    a7b4:	3a000003 	bcc	a7c8 <sys_trim.constprop.7+0x100>
    a7b8:	e3a00000 	mov	r0, #0
    a7bc:	e8bd8070 	pop	{r4, r5, r6, pc}
    a7c0:	ebffff99 	bl	a62c <init_mparams.part.2>
    a7c4:	eaffffc6 	b	a6e4 <sys_trim.constprop.7+0x1c>
    a7c8:	e3e02000 	mvn	r2, #0
    a7cc:	e3a00000 	mov	r0, #0
    a7d0:	e583201c 	str	r2, [r3, #28]
    a7d4:	e8bd8070 	pop	{r4, r5, r6, pc}
    a7d8:	e2650000 	rsb	r0, r5, #0
    a7dc:	ebffff78 	bl	a5c4 <sbrk>
    a7e0:	e1a05000 	mov	r5, r0
    a7e4:	e3a00000 	mov	r0, #0
    a7e8:	ebffff75 	bl	a5c4 <sbrk>
    a7ec:	e3750001 	cmn	r5, #1
    a7f0:	11560000 	cmpne	r6, r0
    a7f4:	9a000023 	bls	a888 <sys_trim.constprop.7+0x1c0>
    a7f8:	e0566000 	subs	r6, r6, r0
    a7fc:	0a000021 	beq	a888 <sys_trim.constprop.7+0x1c0>
    a800:	e59f00a4 	ldr	r0, [pc, #164]	; a8ac <sys_trim.constprop.7+0x1e4>
    a804:	e5943004 	ldr	r3, [r4, #4]
    a808:	e08f0000 	add	r0, pc, r0
    a80c:	e0433006 	sub	r3, r3, r6
    a810:	e5843004 	str	r3, [r4, #4]
    a814:	e3a04028 	mov	r4, #40	; 0x28
    a818:	e5902018 	ldr	r2, [r0, #24]
    a81c:	e590100c 	ldr	r1, [r0, #12]
    a820:	e2823008 	add	r3, r2, #8
    a824:	e590c1b0 	ldr	ip, [r0, #432]	; 0x1b0
    a828:	e3130007 	tst	r3, #7
    a82c:	12633000 	rsbne	r3, r3, #0
    a830:	e04cc006 	sub	ip, ip, r6
    a834:	12033007 	andne	r3, r3, #7
    a838:	e580c1b0 	str	ip, [r0, #432]	; 0x1b0
    a83c:	e0416006 	sub	r6, r1, r6
    a840:	e59f0068 	ldr	r0, [pc, #104]	; a8b0 <sys_trim.constprop.7+0x1e8>
    a844:	1082c003 	addne	ip, r2, r3
    a848:	01a0c002 	moveq	ip, r2
    a84c:	e0821006 	add	r1, r2, r6
    a850:	e59f205c 	ldr	r2, [pc, #92]	; a8b4 <sys_trim.constprop.7+0x1ec>
    a854:	e08f0000 	add	r0, pc, r0
    a858:	10463003 	subne	r3, r6, r3
    a85c:	e08f2002 	add	r2, pc, r2
    a860:	01a03006 	moveq	r3, r6
    a864:	e3835001 	orr	r5, r3, #1
    a868:	e590e010 	ldr	lr, [r0, #16]
    a86c:	e3a00001 	mov	r0, #1
    a870:	e582c018 	str	ip, [r2, #24]
    a874:	e582300c 	str	r3, [r2, #12]
    a878:	e58c5004 	str	r5, [ip, #4]
    a87c:	e5814004 	str	r4, [r1, #4]
    a880:	e582e01c 	str	lr, [r2, #28]
    a884:	e8bd8070 	pop	{r4, r5, r6, pc}
    a888:	e59f3028 	ldr	r3, [pc, #40]	; a8b8 <sys_trim.constprop.7+0x1f0>
    a88c:	e08f3003 	add	r3, pc, r3
    a890:	e593100c 	ldr	r1, [r3, #12]
    a894:	eaffffc2 	b	a7a4 <sys_trim.constprop.7+0xdc>
    a898:	0000ad10 	.word	0x0000ad10
    a89c:	0000ab1c 	.word	0x0000ab1c
    a8a0:	0000ac8c 	.word	0x0000ac8c
    a8a4:	0000aa70 	.word	0x0000aa70
    a8a8:	0000aa64 	.word	0x0000aa64
    a8ac:	0000aa04 	.word	0x0000aa04
    a8b0:	0000ab90 	.word	0x0000ab90
    a8b4:	0000a9b0 	.word	0x0000a9b0
    a8b8:	0000a980 	.word	0x0000a980

0000a8bc <malloc>:
    a8bc:	e92d4ff0 	push	{r4, r5, r6, r7, r8, r9, sl, fp, lr}
    a8c0:	e35000f4 	cmp	r0, #244	; 0xf4
    a8c4:	e24dd00c 	sub	sp, sp, #12
    a8c8:	8a00002d 	bhi	a984 <malloc+0xc8>
    a8cc:	e59fefdc 	ldr	lr, [pc, #4060]	; b8b0 <malloc+0xff4>
    a8d0:	e350000a 	cmp	r0, #10
    a8d4:	8280400b 	addhi	r4, r0, #11
    a8d8:	93a01002 	movls	r1, #2
    a8dc:	e08fe00e 	add	lr, pc, lr
    a8e0:	83c44007 	bichi	r4, r4, #7
    a8e4:	93a04010 	movls	r4, #16
    a8e8:	81a011a4 	lsrhi	r1, r4, #3
    a8ec:	e59ec000 	ldr	ip, [lr]
    a8f0:	e1a0313c 	lsr	r3, ip, r1
    a8f4:	e3130003 	tst	r3, #3
    a8f8:	0a00004e 	beq	aa38 <malloc+0x17c>
    a8fc:	e1e03003 	mvn	r3, r3
    a900:	e2033001 	and	r3, r3, #1
    a904:	e0833001 	add	r3, r3, r1
    a908:	e08e1183 	add	r1, lr, r3, lsl #3
    a90c:	e2811028 	add	r1, r1, #40	; 0x28
    a910:	e5910008 	ldr	r0, [r1, #8]
    a914:	e5902004 	ldr	r2, [r0, #4]
    a918:	e3c22007 	bic	r2, r2, #7
    a91c:	e1520183 	cmp	r2, r3, lsl #3
    a920:	1a0001e9 	bne	b0cc <malloc+0x810>
    a924:	e1510000 	cmp	r1, r0
    a928:	e5904008 	ldr	r4, [r0, #8]
    a92c:	0a0001e6 	beq	b0cc <malloc+0x810>
    a930:	e1500004 	cmp	r0, r4
    a934:	0a0001e4 	beq	b0cc <malloc+0x810>
    a938:	e1510004 	cmp	r1, r4
    a93c:	0a00019c 	beq	afb4 <malloc+0x6f8>
    a940:	e59e3010 	ldr	r3, [lr, #16]
    a944:	e1530004 	cmp	r3, r4
    a948:	8a0001df 	bhi	b0cc <malloc+0x810>
    a94c:	e594300c 	ldr	r3, [r4, #12]
    a950:	e1530000 	cmp	r3, r0
    a954:	1a0001dc 	bne	b0cc <malloc+0x810>
    a958:	e584100c 	str	r1, [r4, #12]
    a95c:	e5814008 	str	r4, [r1, #8]
    a960:	e0801002 	add	r1, r0, r2
    a964:	e3822003 	orr	r2, r2, #3
    a968:	e5802004 	str	r2, [r0, #4]
    a96c:	e2800008 	add	r0, r0, #8
    a970:	e5913004 	ldr	r3, [r1, #4]
    a974:	e3833001 	orr	r3, r3, #1
    a978:	e5813004 	str	r3, [r1, #4]
    a97c:	e28dd00c 	add	sp, sp, #12
    a980:	e8bd8ff0 	pop	{r4, r5, r6, r7, r8, r9, sl, fp, pc}
    a984:	e59f3f28 	ldr	r3, [pc, #3880]	; b8b4 <malloc+0xff8>
    a988:	e3700041 	cmn	r0, #65	; 0x41
    a98c:	e08f3003 	add	r3, pc, r3
    a990:	e5932008 	ldr	r2, [r3, #8]
    a994:	9a00000f 	bls	a9d8 <malloc+0x11c>
    a998:	e3720001 	cmn	r2, #1
    a99c:	1a000090 	bne	abe4 <malloc+0x328>
    a9a0:	e5930014 	ldr	r0, [r3, #20]
    a9a4:	e240c001 	sub	ip, r0, #1
    a9a8:	e59f3f08 	ldr	r3, [pc, #3848]	; b8b8 <malloc+0xffc>
    a9ac:	e3a01000 	mov	r1, #0
    a9b0:	e08f3003 	add	r3, pc, r3
    a9b4:	e5831008 	str	r1, [r3, #8]
    a9b8:	e5831014 	str	r1, [r3, #20]
    a9bc:	e5802004 	str	r2, [r0, #4]
    a9c0:	e59c3004 	ldr	r3, [ip, #4]
    a9c4:	e3833001 	orr	r3, r3, #1
    a9c8:	e58c3004 	str	r3, [ip, #4]
    a9cc:	e2800008 	add	r0, r0, #8
    a9d0:	e28dd00c 	add	sp, sp, #12
    a9d4:	e8bd8ff0 	pop	{r4, r5, r6, r7, r8, r9, sl, fp, pc}
    a9d8:	e5931004 	ldr	r1, [r3, #4]
    a9dc:	e280400b 	add	r4, r0, #11
    a9e0:	e3c44007 	bic	r4, r4, #7
    a9e4:	e3510000 	cmp	r1, #0
    a9e8:	1a0000ea 	bne	ad98 <malloc+0x4dc>
    a9ec:	e1540002 	cmp	r4, r2
    a9f0:	9a00006b 	bls	aba4 <malloc+0x2e8>
    a9f4:	e59f2ec0 	ldr	r2, [pc, #3776]	; b8bc <malloc+0x1000>
    a9f8:	e08f2002 	add	r2, pc, r2
    a9fc:	e592300c 	ldr	r3, [r2, #12]
    aa00:	e1530004 	cmp	r3, r4
    aa04:	9a00064c 	bls	c33c <malloc+0x1a80>
    aa08:	e5921018 	ldr	r1, [r2, #24]
    aa0c:	e0433004 	sub	r3, r3, r4
    aa10:	e383c001 	orr	ip, r3, #1
    aa14:	e582300c 	str	r3, [r2, #12]
    aa18:	e0813004 	add	r3, r1, r4
    aa1c:	e2810008 	add	r0, r1, #8
    aa20:	e5823018 	str	r3, [r2, #24]
    aa24:	e3844003 	orr	r4, r4, #3
    aa28:	e583c004 	str	ip, [r3, #4]
    aa2c:	e5814004 	str	r4, [r1, #4]
    aa30:	e28dd00c 	add	sp, sp, #12
    aa34:	e8bd8ff0 	pop	{r4, r5, r6, r7, r8, r9, sl, fp, pc}
    aa38:	e59e2008 	ldr	r2, [lr, #8]
    aa3c:	e1520004 	cmp	r2, r4
    aa40:	2a000057 	bcs	aba4 <malloc+0x2e8>
    aa44:	e3530000 	cmp	r3, #0
    aa48:	0a0001a1 	beq	b0d4 <malloc+0x818>
    aa4c:	e3a05001 	mov	r5, #1
    aa50:	e1a00115 	lsl	r0, r5, r1
    aa54:	e1a06510 	lsl	r6, r0, r5
    aa58:	e2660000 	rsb	r0, r6, #0
    aa5c:	e1800006 	orr	r0, r0, r6
    aa60:	e0001113 	and	r1, r0, r3, lsl r1
    aa64:	e2613000 	rsb	r3, r1, #0
    aa68:	e0033001 	and	r3, r3, r1
    aa6c:	e2433001 	sub	r3, r3, #1
    aa70:	e1a01623 	lsr	r1, r3, #12
    aa74:	e2011010 	and	r1, r1, #16
    aa78:	e1a03133 	lsr	r3, r3, r1
    aa7c:	e1a002a3 	lsr	r0, r3, #5
    aa80:	e2000008 	and	r0, r0, #8
    aa84:	e1811000 	orr	r1, r1, r0
    aa88:	e1a03033 	lsr	r3, r3, r0
    aa8c:	e1a00123 	lsr	r0, r3, #2
    aa90:	e2000004 	and	r0, r0, #4
    aa94:	e0811000 	add	r1, r1, r0
    aa98:	e1a03033 	lsr	r3, r3, r0
    aa9c:	e1a00533 	lsr	r0, r3, r5
    aaa0:	e2000002 	and	r0, r0, #2
    aaa4:	e0811000 	add	r1, r1, r0
    aaa8:	e1a03033 	lsr	r3, r3, r0
    aaac:	e7e000d3 	ubfx	r0, r3, #1, #1
    aab0:	e0811000 	add	r1, r1, r0
    aab4:	e0813033 	add	r3, r1, r3, lsr r0
    aab8:	e08e1183 	add	r1, lr, r3, lsl #3
    aabc:	e2811028 	add	r1, r1, #40	; 0x28
    aac0:	e5910008 	ldr	r0, [r1, #8]
    aac4:	e5907004 	ldr	r7, [r0, #4]
    aac8:	e3c77007 	bic	r7, r7, #7
    aacc:	e1570183 	cmp	r7, r3, lsl #3
    aad0:	1a00017d 	bne	b0cc <malloc+0x810>
    aad4:	e1510000 	cmp	r1, r0
    aad8:	e5906008 	ldr	r6, [r0, #8]
    aadc:	0a00017a 	beq	b0cc <malloc+0x810>
    aae0:	e1500006 	cmp	r0, r6
    aae4:	0a000178 	beq	b0cc <malloc+0x810>
    aae8:	e1510006 	cmp	r1, r6
    aaec:	01cc3315 	biceq	r3, ip, r5, lsl r3
    aaf0:	058e3000 	streq	r3, [lr]
    aaf4:	0a000007 	beq	ab18 <malloc+0x25c>
    aaf8:	e59e3010 	ldr	r3, [lr, #16]
    aafc:	e1530006 	cmp	r3, r6
    ab00:	8a000171 	bhi	b0cc <malloc+0x810>
    ab04:	e596300c 	ldr	r3, [r6, #12]
    ab08:	e1530000 	cmp	r3, r0
    ab0c:	1a00016e 	bne	b0cc <malloc+0x810>
    ab10:	e586100c 	str	r1, [r6, #12]
    ab14:	e5816008 	str	r6, [r1, #8]
    ab18:	e080e004 	add	lr, r0, r4
    ab1c:	e047c004 	sub	ip, r7, r4
    ab20:	e38c3001 	orr	r3, ip, #1
    ab24:	e3844003 	orr	r4, r4, #3
    ab28:	e3520000 	cmp	r2, #0
    ab2c:	e5804004 	str	r4, [r0, #4]
    ab30:	e1a051a2 	lsr	r5, r2, #3
    ab34:	e58e3004 	str	r3, [lr, #4]
    ab38:	e780c007 	str	ip, [r0, r7]
    ab3c:	0a000012 	beq	ab8c <malloc+0x2d0>
    ab40:	e59f1d78 	ldr	r1, [pc, #3448]	; b8c0 <malloc+0x1004>
    ab44:	e352000f 	cmp	r2, #15
    ab48:	e08f1001 	add	r1, pc, r1
    ab4c:	e0813185 	add	r3, r1, r5, lsl #3
    ab50:	e2833028 	add	r3, r3, #40	; 0x28
    ab54:	e5912014 	ldr	r2, [r1, #20]
    ab58:	9a00015b 	bls	b0cc <malloc+0x810>
    ab5c:	e3a04001 	mov	r4, #1
    ab60:	e5916000 	ldr	r6, [r1]
    ab64:	e1a04514 	lsl	r4, r4, r5
    ab68:	e1160004 	tst	r6, r4
    ab6c:	1a0003da 	bne	badc <malloc+0x1220>
    ab70:	e1a05003 	mov	r5, r3
    ab74:	e1864004 	orr	r4, r6, r4
    ab78:	e5814000 	str	r4, [r1]
    ab7c:	e5832008 	str	r2, [r3, #8]
    ab80:	e585200c 	str	r2, [r5, #12]
    ab84:	e5825008 	str	r5, [r2, #8]
    ab88:	e582300c 	str	r3, [r2, #12]
    ab8c:	e59f3d30 	ldr	r3, [pc, #3376]	; b8c4 <malloc+0x1008>
    ab90:	e2800008 	add	r0, r0, #8
    ab94:	e08f3003 	add	r3, pc, r3
    ab98:	e583c008 	str	ip, [r3, #8]
    ab9c:	e583e014 	str	lr, [r3, #20]
    aba0:	eaffff75 	b	a97c <malloc+0xc0>
    aba4:	e59f1d1c 	ldr	r1, [pc, #3356]	; b8c8 <malloc+0x100c>
    aba8:	e0423004 	sub	r3, r2, r4
    abac:	e353000f 	cmp	r3, #15
    abb0:	e08f1001 	add	r1, pc, r1
    abb4:	e5910014 	ldr	r0, [r1, #20]
    abb8:	e080c002 	add	ip, r0, r2
    abbc:	9a000408 	bls	bbe4 <malloc+0x1328>
    abc0:	e080c004 	add	ip, r0, r4
    abc4:	e5813008 	str	r3, [r1, #8]
    abc8:	e581c014 	str	ip, [r1, #20]
    abcc:	e3844003 	orr	r4, r4, #3
    abd0:	e3831001 	orr	r1, r3, #1
    abd4:	e58c1004 	str	r1, [ip, #4]
    abd8:	e7803002 	str	r3, [r0, r2]
    abdc:	e5804004 	str	r4, [r0, #4]
    abe0:	eaffff79 	b	a9cc <malloc+0x110>
    abe4:	e59f3ce0 	ldr	r3, [pc, #3296]	; b8cc <malloc+0x1010>
    abe8:	e08f3003 	add	r3, pc, r3
    abec:	e5933000 	ldr	r3, [r3]
    abf0:	e3530000 	cmp	r3, #0
    abf4:	1a00012a 	bne	b0a4 <malloc+0x7e8>
    abf8:	e3e04000 	mvn	r4, #0
    abfc:	ebfffe8a 	bl	a62c <init_mparams.part.2>
    ac00:	e59f3cc8 	ldr	r3, [pc, #3272]	; b8d0 <malloc+0x1014>
    ac04:	e08f3003 	add	r3, pc, r3
    ac08:	e5936008 	ldr	r6, [r3, #8]
    ac0c:	e286002f 	add	r0, r6, #47	; 0x2f
    ac10:	e266c000 	rsb	ip, r6, #0
    ac14:	e0848000 	add	r8, r4, r0
    ac18:	e008800c 	and	r8, r8, ip
    ac1c:	e1580004 	cmp	r8, r4
    ac20:	9a00011f 	bls	b0a4 <malloc+0x7e8>
    ac24:	e59f3ca8 	ldr	r3, [pc, #3240]	; b8d4 <malloc+0x1018>
    ac28:	e08f3003 	add	r3, pc, r3
    ac2c:	e59321b8 	ldr	r2, [r3, #440]	; 0x1b8
    ac30:	e3520000 	cmp	r2, #0
    ac34:	0a000008 	beq	ac5c <malloc+0x3a0>
    ac38:	e59331b0 	ldr	r3, [r3, #432]	; 0x1b0
    ac3c:	e0881003 	add	r1, r8, r3
    ac40:	e1530001 	cmp	r3, r1
    ac44:	33a03000 	movcc	r3, #0
    ac48:	23a03001 	movcs	r3, #1
    ac4c:	e1520001 	cmp	r2, r1
    ac50:	33833001 	orrcc	r3, r3, #1
    ac54:	e3530000 	cmp	r3, #0
    ac58:	1a000111 	bne	b0a4 <malloc+0x7e8>
    ac5c:	e59f7c74 	ldr	r7, [pc, #3188]	; b8d8 <malloc+0x101c>
    ac60:	e08f7007 	add	r7, pc, r7
    ac64:	e597e1bc 	ldr	lr, [r7, #444]	; 0x1bc
    ac68:	e31e0004 	tst	lr, #4
    ac6c:	0a0000d4 	beq	afc4 <malloc+0x708>
    ac70:	e378010a 	cmn	r8, #-2147483646	; 0x80000002
    ac74:	8a00010a 	bhi	b0a4 <malloc+0x7e8>
    ac78:	e1a00008 	mov	r0, r8
    ac7c:	ebfffe50 	bl	a5c4 <sbrk>
    ac80:	e1a05000 	mov	r5, r0
    ac84:	e3a00000 	mov	r0, #0
    ac88:	ebfffe4d 	bl	a5c4 <sbrk>
    ac8c:	e3700001 	cmn	r0, #1
    ac90:	13750001 	cmnne	r5, #1
    ac94:	13a03001 	movne	r3, #1
    ac98:	03a03000 	moveq	r3, #0
    ac9c:	e1550000 	cmp	r5, r0
    aca0:	23a03000 	movcs	r3, #0
    aca4:	32033001 	andcc	r3, r3, #1
    aca8:	e3530000 	cmp	r3, #0
    acac:	0a0000fc 	beq	b0a4 <malloc+0x7e8>
    acb0:	e0406005 	sub	r6, r0, r5
    acb4:	e2843028 	add	r3, r4, #40	; 0x28
    acb8:	e1560003 	cmp	r6, r3
    acbc:	9a0000f8 	bls	b0a4 <malloc+0x7e8>
    acc0:	e3750001 	cmn	r5, #1
    acc4:	0a0000f6 	beq	b0a4 <malloc+0x7e8>
    acc8:	e59f2c0c 	ldr	r2, [pc, #3084]	; b8dc <malloc+0x1020>
    accc:	e08f2002 	add	r2, pc, r2
    acd0:	e59231b0 	ldr	r3, [r2, #432]	; 0x1b0
    acd4:	e59211b4 	ldr	r1, [r2, #436]	; 0x1b4
    acd8:	e0863003 	add	r3, r6, r3
    acdc:	e58231b0 	str	r3, [r2, #432]	; 0x1b0
    ace0:	e1530001 	cmp	r3, r1
    ace4:	858231b4 	strhi	r3, [r2, #436]	; 0x1b4
    ace8:	e59f3bf0 	ldr	r3, [pc, #3056]	; b8e0 <malloc+0x1024>
    acec:	e08f3003 	add	r3, pc, r3
    acf0:	e593e018 	ldr	lr, [r3, #24]
    acf4:	e35e0000 	cmp	lr, #0
    acf8:	12833d07 	addne	r3, r3, #448	; 0x1c0
    acfc:	0a000271 	beq	b6c8 <malloc+0xe0c>
    ad00:	e5932000 	ldr	r2, [r3]
    ad04:	e5931004 	ldr	r1, [r3, #4]
    ad08:	e0820001 	add	r0, r2, r1
    ad0c:	e1500005 	cmp	r0, r5
    ad10:	0a00018e 	beq	b350 <malloc+0xa94>
    ad14:	e5933008 	ldr	r3, [r3, #8]
    ad18:	e3530000 	cmp	r3, #0
    ad1c:	1afffff7 	bne	ad00 <malloc+0x444>
    ad20:	e59f3bbc 	ldr	r3, [pc, #3004]	; b8e4 <malloc+0x1028>
    ad24:	e0851006 	add	r1, r5, r6
    ad28:	e08f3003 	add	r3, pc, r3
    ad2c:	e5932010 	ldr	r2, [r3, #16]
    ad30:	e1520005 	cmp	r2, r5
    ad34:	85835010 	strhi	r5, [r3, #16]
    ad38:	e59f3ba8 	ldr	r3, [pc, #2984]	; b8e8 <malloc+0x102c>
    ad3c:	e08f3003 	add	r3, pc, r3
    ad40:	e2833d07 	add	r3, r3, #448	; 0x1c0
    ad44:	e5932000 	ldr	r2, [r3]
    ad48:	e1520001 	cmp	r2, r1
    ad4c:	0a000178 	beq	b334 <malloc+0xa78>
    ad50:	e5933008 	ldr	r3, [r3, #8]
    ad54:	e3530000 	cmp	r3, #0
    ad58:	1afffff9 	bne	ad44 <malloc+0x488>
    ad5c:	e59f3b88 	ldr	r3, [pc, #2952]	; b8ec <malloc+0x1030>
    ad60:	e08f3003 	add	r3, pc, r3
    ad64:	e2833d07 	add	r3, r3, #448	; 0x1c0
    ad68:	e5932000 	ldr	r2, [r3]
    ad6c:	e15e0002 	cmp	lr, r2
    ad70:	3a000003 	bcc	ad84 <malloc+0x4c8>
    ad74:	e5931004 	ldr	r1, [r3, #4]
    ad78:	e0822001 	add	r2, r2, r1
    ad7c:	e15e0002 	cmp	lr, r2
    ad80:	3a0001a3 	bcc	b414 <malloc+0xb58>
    ad84:	e5933008 	ldr	r3, [r3, #8]
    ad88:	e3530000 	cmp	r3, #0
    ad8c:	1afffff5 	bne	ad68 <malloc+0x4ac>
    ad90:	e5933000 	ldr	r3, [r3]
    ad94:	e7f000f0 	udf	#0
    ad98:	e2646000 	rsb	r6, r4, #0
    ad9c:	e1b07424 	lsrs	r7, r4, #8
    ada0:	1a00015b 	bne	b314 <malloc+0xa58>
    ada4:	e593c130 	ldr	ip, [r3, #304]	; 0x130
    ada8:	e35c0000 	cmp	ip, #0
    adac:	01a08006 	moveq	r8, r6
    adb0:	03e07001 	mvneq	r7, #1
    adb4:	0a0001f4 	beq	b58c <malloc+0xcd0>
    adb8:	e3a0e019 	mov	lr, #25
    adbc:	e1a0ee14 	lsl	lr, r4, lr
    adc0:	e3a05000 	mov	r5, #0
    adc4:	e1a00005 	mov	r0, r5
    adc8:	ea000000 	b	add0 <malloc+0x514>
    adcc:	e1a0e08e 	lsl	lr, lr, #1
    add0:	e59c8004 	ldr	r8, [ip, #4]
    add4:	e3c88007 	bic	r8, r8, #7
    add8:	e0488004 	sub	r8, r8, r4
    addc:	e1580006 	cmp	r8, r6
    ade0:	2a000003 	bcs	adf4 <malloc+0x538>
    ade4:	e3580000 	cmp	r8, #0
    ade8:	0a00027e 	beq	b7e8 <malloc+0xf2c>
    adec:	e1a06008 	mov	r6, r8
    adf0:	e1a0000c 	mov	r0, ip
    adf4:	e1a03fae 	lsr	r3, lr, #31
    adf8:	e59c8014 	ldr	r8, [ip, #20]
    adfc:	e2833004 	add	r3, r3, #4
    ae00:	e79cc103 	ldr	ip, [ip, r3, lsl #2]
    ae04:	e3580000 	cmp	r8, #0
    ae08:	1158000c 	cmpne	r8, ip
    ae0c:	11a05008 	movne	r5, r8
    ae10:	e35c0000 	cmp	ip, #0
    ae14:	1affffec 	bne	adcc <malloc+0x510>
    ae18:	e3550000 	cmp	r5, #0
    ae1c:	03500000 	cmpeq	r0, #0
    ae20:	0a0001d6 	beq	b580 <malloc+0xcc4>
    ae24:	e3550000 	cmp	r5, #0
    ae28:	e1a08006 	mov	r8, r6
    ae2c:	11a0c005 	movne	ip, r5
    ae30:	1a000001 	bne	ae3c <malloc+0x580>
    ae34:	ea00000c 	b	ae6c <malloc+0x5b0>
    ae38:	e1a0c00e 	mov	ip, lr
    ae3c:	e59c3004 	ldr	r3, [ip, #4]
    ae40:	e59ce010 	ldr	lr, [ip, #16]
    ae44:	e3c33007 	bic	r3, r3, #7
    ae48:	e0433004 	sub	r3, r3, r4
    ae4c:	e1530008 	cmp	r3, r8
    ae50:	31a08003 	movcc	r8, r3
    ae54:	31a0000c 	movcc	r0, ip
    ae58:	e35e0000 	cmp	lr, #0
    ae5c:	1afffff5 	bne	ae38 <malloc+0x57c>
    ae60:	e59ce014 	ldr	lr, [ip, #20]
    ae64:	e35e0000 	cmp	lr, #0
    ae68:	1afffff2 	bne	ae38 <malloc+0x57c>
    ae6c:	e3500000 	cmp	r0, #0
    ae70:	0afffedd 	beq	a9ec <malloc+0x130>
    ae74:	e0423004 	sub	r3, r2, r4
    ae78:	e1530008 	cmp	r3, r8
    ae7c:	9afffeda 	bls	a9ec <malloc+0x130>
    ae80:	e59fca68 	ldr	ip, [pc, #2664]	; b8f0 <malloc+0x1034>
    ae84:	e08fc00c 	add	ip, pc, ip
    ae88:	e59c6010 	ldr	r6, [ip, #16]
    ae8c:	e1560000 	cmp	r6, r0
    ae90:	8a00008d 	bhi	b0cc <malloc+0x810>
    ae94:	e5905004 	ldr	r5, [r0, #4]
    ae98:	e0843008 	add	r3, r4, r8
    ae9c:	e0807004 	add	r7, r0, r4
    aea0:	e3c55007 	bic	r5, r5, #7
    aea4:	e1550003 	cmp	r5, r3
    aea8:	1a000087 	bne	b0cc <malloc+0x810>
    aeac:	e1570000 	cmp	r7, r0
    aeb0:	9a000085 	bls	b0cc <malloc+0x810>
    aeb4:	e590200c 	ldr	r2, [r0, #12]
    aeb8:	e5909018 	ldr	r9, [r0, #24]
    aebc:	e1520000 	cmp	r2, r0
    aec0:	0a000262 	beq	b850 <malloc+0xf94>
    aec4:	e5903008 	ldr	r3, [r0, #8]
    aec8:	e1560003 	cmp	r6, r3
    aecc:	8a00007e 	bhi	b0cc <malloc+0x810>
    aed0:	e593100c 	ldr	r1, [r3, #12]
    aed4:	e1510000 	cmp	r1, r0
    aed8:	1a00007b 	bne	b0cc <malloc+0x810>
    aedc:	e5921008 	ldr	r1, [r2, #8]
    aee0:	e1510000 	cmp	r1, r0
    aee4:	1a000078 	bne	b0cc <malloc+0x810>
    aee8:	e583200c 	str	r2, [r3, #12]
    aeec:	e5823008 	str	r3, [r2, #8]
    aef0:	e3590000 	cmp	r9, #0
    aef4:	0a000020 	beq	af7c <malloc+0x6c0>
    aef8:	e590301c 	ldr	r3, [r0, #28]
    aefc:	e59f19f0 	ldr	r1, [pc, #2544]	; b8f4 <malloc+0x1038>
    af00:	e283304c 	add	r3, r3, #76	; 0x4c
    af04:	e08f1001 	add	r1, pc, r1
    af08:	e791c103 	ldr	ip, [r1, r3, lsl #2]
    af0c:	e15c0000 	cmp	ip, r0
    af10:	07812103 	streq	r2, [r1, r3, lsl #2]
    af14:	0a000007 	beq	af38 <malloc+0x67c>
    af18:	e1560009 	cmp	r6, r9
    af1c:	8a00006a 	bhi	b0cc <malloc+0x810>
    af20:	e5993010 	ldr	r3, [r9, #16]
    af24:	e1530000 	cmp	r3, r0
    af28:	05892010 	streq	r2, [r9, #16]
    af2c:	15892014 	strne	r2, [r9, #20]
    af30:	e3520000 	cmp	r2, #0
    af34:	0a000010 	beq	af7c <malloc+0x6c0>
    af38:	e1560002 	cmp	r6, r2
    af3c:	8a000062 	bhi	b0cc <malloc+0x810>
    af40:	e5903010 	ldr	r3, [r0, #16]
    af44:	e5829018 	str	r9, [r2, #24]
    af48:	e3530000 	cmp	r3, #0
    af4c:	0a000003 	beq	af60 <malloc+0x6a4>
    af50:	e1560003 	cmp	r6, r3
    af54:	8a00005c 	bhi	b0cc <malloc+0x810>
    af58:	e5823010 	str	r3, [r2, #16]
    af5c:	e5832018 	str	r2, [r3, #24]
    af60:	e5903014 	ldr	r3, [r0, #20]
    af64:	e3530000 	cmp	r3, #0
    af68:	0a000003 	beq	af7c <malloc+0x6c0>
    af6c:	e1560003 	cmp	r6, r3
    af70:	8a000055 	bhi	b0cc <malloc+0x810>
    af74:	e5823014 	str	r3, [r2, #20]
    af78:	e5832018 	str	r2, [r3, #24]
    af7c:	e358000f 	cmp	r8, #15
    af80:	8a00021a 	bhi	b7f0 <malloc+0xf34>
    af84:	e0802005 	add	r2, r0, r5
    af88:	e3855003 	orr	r5, r5, #3
    af8c:	e5805004 	str	r5, [r0, #4]
    af90:	e5923004 	ldr	r3, [r2, #4]
    af94:	e3833001 	orr	r3, r3, #1
    af98:	e5823004 	str	r3, [r2, #4]
    af9c:	e2900008 	adds	r0, r0, #8
    afa0:	1afffe75 	bne	a97c <malloc+0xc0>
    afa4:	e59f394c 	ldr	r3, [pc, #2380]	; b8f8 <malloc+0x103c>
    afa8:	e08f3003 	add	r3, pc, r3
    afac:	e5932008 	ldr	r2, [r3, #8]
    afb0:	eafffe8d 	b	a9ec <malloc+0x130>
    afb4:	e3a01001 	mov	r1, #1
    afb8:	e1cc3311 	bic	r3, ip, r1, lsl r3
    afbc:	e58e3000 	str	r3, [lr]
    afc0:	eafffe66 	b	a960 <malloc+0xa4>
    afc4:	e5971018 	ldr	r1, [r7, #24]
    afc8:	e3510000 	cmp	r1, #0
    afcc:	0a00000a 	beq	affc <malloc+0x740>
    afd0:	e2877d07 	add	r7, r7, #448	; 0x1c0
    afd4:	e5973000 	ldr	r3, [r7]
    afd8:	e1510003 	cmp	r1, r3
    afdc:	3a000003 	bcc	aff0 <malloc+0x734>
    afe0:	e5972004 	ldr	r2, [r7, #4]
    afe4:	e0833002 	add	r3, r3, r2
    afe8:	e1510003 	cmp	r1, r3
    afec:	3a000185 	bcc	b608 <malloc+0xd4c>
    aff0:	e5977008 	ldr	r7, [r7, #8]
    aff4:	e3570000 	cmp	r7, #0
    aff8:	1afffff5 	bne	afd4 <malloc+0x718>
    affc:	e3a00000 	mov	r0, #0
    b000:	ebfffd6f 	bl	a5c4 <sbrk>
    b004:	e1a07000 	mov	r7, r0
    b008:	e3700001 	cmn	r0, #1
    b00c:	0a00001b 	beq	b080 <malloc+0x7c4>
    b010:	e59f38e4 	ldr	r3, [pc, #2276]	; b8fc <malloc+0x1040>
    b014:	e08f3003 	add	r3, pc, r3
    b018:	e5932004 	ldr	r2, [r3, #4]
    b01c:	e2423001 	sub	r3, r2, #1
    b020:	e1100003 	tst	r0, r3
    b024:	10836000 	addne	r6, r3, r0
    b028:	12622000 	rsbne	r2, r2, #0
    b02c:	10483000 	subne	r3, r8, r0
    b030:	10066002 	andne	r6, r6, r2
    b034:	10866003 	addne	r6, r6, r3
    b038:	01a06008 	moveq	r6, r8
    b03c:	e1560004 	cmp	r6, r4
    b040:	83a03001 	movhi	r3, #1
    b044:	93a03000 	movls	r3, #0
    b048:	e376010a 	cmn	r6, #-2147483646	; 0x80000002
    b04c:	83a03000 	movhi	r3, #0
    b050:	e3530000 	cmp	r3, #0
    b054:	0a000009 	beq	b080 <malloc+0x7c4>
    b058:	e59f38a0 	ldr	r3, [pc, #2208]	; b900 <malloc+0x1044>
    b05c:	e08f3003 	add	r3, pc, r3
    b060:	e59321b8 	ldr	r2, [r3, #440]	; 0x1b8
    b064:	e59331b0 	ldr	r3, [r3, #432]	; 0x1b0
    b068:	e3520000 	cmp	r2, #0
    b06c:	0a0003bd 	beq	bf68 <malloc+0x16ac>
    b070:	e0831006 	add	r1, r3, r6
    b074:	e1510002 	cmp	r1, r2
    b078:	91530001 	cmpls	r3, r1
    b07c:	3a0003b9 	bcc	bf68 <malloc+0x16ac>
    b080:	e59f387c 	ldr	r3, [pc, #2172]	; b904 <malloc+0x1048>
    b084:	e08f3003 	add	r3, pc, r3
    b088:	e593e1bc 	ldr	lr, [r3, #444]	; 0x1bc
    b08c:	e59f3874 	ldr	r3, [pc, #2164]	; b908 <malloc+0x104c>
    b090:	e38ee004 	orr	lr, lr, #4
    b094:	e378010a 	cmn	r8, #-2147483646	; 0x80000002
    b098:	e08f3003 	add	r3, pc, r3
    b09c:	e583e1bc 	str	lr, [r3, #444]	; 0x1bc
    b0a0:	9afffef4 	bls	ac78 <malloc+0x3bc>
    b0a4:	e3a00000 	mov	r0, #0
    b0a8:	eafffe33 	b	a97c <malloc+0xc0>
    b0ac:	e59f7858 	ldr	r7, [pc, #2136]	; b90c <malloc+0x1050>
    b0b0:	e08f7007 	add	r7, pc, r7
    b0b4:	e5977010 	ldr	r7, [r7, #16]
    b0b8:	e1540007 	cmp	r4, r7
    b0bc:	3a000002 	bcc	b0cc <malloc+0x810>
    b0c0:	e594700c 	ldr	r7, [r4, #12]
    b0c4:	e1570002 	cmp	r7, r2
    b0c8:	0a0003c2 	beq	bfd8 <malloc+0x171c>
    b0cc:	e3e00000 	mvn	r0, #0
    b0d0:	ebfff3ca 	bl	8000 <exit>
    b0d4:	e59e5004 	ldr	r5, [lr, #4]
    b0d8:	e3550000 	cmp	r5, #0
    b0dc:	0afffe44 	beq	a9f4 <malloc+0x138>
    b0e0:	e2653000 	rsb	r3, r5, #0
    b0e4:	e0033005 	and	r3, r3, r5
    b0e8:	e2433001 	sub	r3, r3, #1
    b0ec:	e1a01623 	lsr	r1, r3, #12
    b0f0:	e2011010 	and	r1, r1, #16
    b0f4:	e1a03133 	lsr	r3, r3, r1
    b0f8:	e1a002a3 	lsr	r0, r3, #5
    b0fc:	e2000008 	and	r0, r0, #8
    b100:	e1811000 	orr	r1, r1, r0
    b104:	e1a03033 	lsr	r3, r3, r0
    b108:	e1a00123 	lsr	r0, r3, #2
    b10c:	e2000004 	and	r0, r0, #4
    b110:	e0811000 	add	r1, r1, r0
    b114:	e1a03033 	lsr	r3, r3, r0
    b118:	e1a000a3 	lsr	r0, r3, #1
    b11c:	e2000002 	and	r0, r0, #2
    b120:	e0811000 	add	r1, r1, r0
    b124:	e1a03033 	lsr	r3, r3, r0
    b128:	e7e000d3 	ubfx	r0, r3, #1, #1
    b12c:	e0811000 	add	r1, r1, r0
    b130:	e0813033 	add	r3, r1, r3, lsr r0
    b134:	e283304c 	add	r3, r3, #76	; 0x4c
    b138:	e79e6103 	ldr	r6, [lr, r3, lsl #2]
    b13c:	e1a00006 	mov	r0, r6
    b140:	e596e004 	ldr	lr, [r6, #4]
    b144:	e3cee007 	bic	lr, lr, #7
    b148:	e04ee004 	sub	lr, lr, r4
    b14c:	ea000006 	b	b16c <malloc+0x8b0>
    b150:	e5913004 	ldr	r3, [r1, #4]
    b154:	e1a06001 	mov	r6, r1
    b158:	e3c33007 	bic	r3, r3, #7
    b15c:	e0433004 	sub	r3, r3, r4
    b160:	e153000e 	cmp	r3, lr
    b164:	31a0e003 	movcc	lr, r3
    b168:	31a00001 	movcc	r0, r1
    b16c:	e5961010 	ldr	r1, [r6, #16]
    b170:	e3510000 	cmp	r1, #0
    b174:	1afffff5 	bne	b150 <malloc+0x894>
    b178:	e5961014 	ldr	r1, [r6, #20]
    b17c:	e3510000 	cmp	r1, #0
    b180:	1afffff2 	bne	b150 <malloc+0x894>
    b184:	e59fb784 	ldr	fp, [pc, #1924]	; b910 <malloc+0x1054>
    b188:	e08fb00b 	add	fp, pc, fp
    b18c:	e59b9010 	ldr	r9, [fp, #16]
    b190:	e1590000 	cmp	r9, r0
    b194:	8affffcc 	bhi	b0cc <malloc+0x810>
    b198:	e5907004 	ldr	r7, [r0, #4]
    b19c:	e084300e 	add	r3, r4, lr
    b1a0:	e0808004 	add	r8, r0, r4
    b1a4:	e3c77007 	bic	r7, r7, #7
    b1a8:	e1570003 	cmp	r7, r3
    b1ac:	1affffc6 	bne	b0cc <malloc+0x810>
    b1b0:	e1580000 	cmp	r8, r0
    b1b4:	9affffc4 	bls	b0cc <malloc+0x810>
    b1b8:	e590600c 	ldr	r6, [r0, #12]
    b1bc:	e590a018 	ldr	sl, [r0, #24]
    b1c0:	e1560000 	cmp	r6, r0
    b1c4:	0a0002d7 	beq	bd28 <malloc+0x146c>
    b1c8:	e5903008 	ldr	r3, [r0, #8]
    b1cc:	e1590003 	cmp	r9, r3
    b1d0:	8affffbd 	bhi	b0cc <malloc+0x810>
    b1d4:	e593100c 	ldr	r1, [r3, #12]
    b1d8:	e1510000 	cmp	r1, r0
    b1dc:	1affffba 	bne	b0cc <malloc+0x810>
    b1e0:	e5961008 	ldr	r1, [r6, #8]
    b1e4:	e1510000 	cmp	r1, r0
    b1e8:	1affffb7 	bne	b0cc <malloc+0x810>
    b1ec:	e583600c 	str	r6, [r3, #12]
    b1f0:	e5863008 	str	r3, [r6, #8]
    b1f4:	e35a0000 	cmp	sl, #0
    b1f8:	0a000020 	beq	b280 <malloc+0x9c4>
    b1fc:	e590301c 	ldr	r3, [r0, #28]
    b200:	e59f170c 	ldr	r1, [pc, #1804]	; b914 <malloc+0x1058>
    b204:	e283304c 	add	r3, r3, #76	; 0x4c
    b208:	e08f1001 	add	r1, pc, r1
    b20c:	e7915103 	ldr	r5, [r1, r3, lsl #2]
    b210:	e1550000 	cmp	r5, r0
    b214:	07816103 	streq	r6, [r1, r3, lsl #2]
    b218:	0a000007 	beq	b23c <malloc+0x980>
    b21c:	e159000a 	cmp	r9, sl
    b220:	8affffa9 	bhi	b0cc <malloc+0x810>
    b224:	e59a3010 	ldr	r3, [sl, #16]
    b228:	e1530000 	cmp	r3, r0
    b22c:	058a6010 	streq	r6, [sl, #16]
    b230:	158a6014 	strne	r6, [sl, #20]
    b234:	e3560000 	cmp	r6, #0
    b238:	0a000010 	beq	b280 <malloc+0x9c4>
    b23c:	e1590006 	cmp	r9, r6
    b240:	8affffa1 	bhi	b0cc <malloc+0x810>
    b244:	e5903010 	ldr	r3, [r0, #16]
    b248:	e586a018 	str	sl, [r6, #24]
    b24c:	e3530000 	cmp	r3, #0
    b250:	0a000003 	beq	b264 <malloc+0x9a8>
    b254:	e1590003 	cmp	r9, r3
    b258:	8affff9b 	bhi	b0cc <malloc+0x810>
    b25c:	e5863010 	str	r3, [r6, #16]
    b260:	e5836018 	str	r6, [r3, #24]
    b264:	e5903014 	ldr	r3, [r0, #20]
    b268:	e3530000 	cmp	r3, #0
    b26c:	0a000003 	beq	b280 <malloc+0x9c4>
    b270:	e1590003 	cmp	r9, r3
    b274:	8affff94 	bhi	b0cc <malloc+0x810>
    b278:	e5863014 	str	r3, [r6, #20]
    b27c:	e5836018 	str	r6, [r3, #24]
    b280:	e35e000f 	cmp	lr, #15
    b284:	9a0002a0 	bls	bd0c <malloc+0x1450>
    b288:	e3843003 	orr	r3, r4, #3
    b28c:	e3520000 	cmp	r2, #0
    b290:	e5803004 	str	r3, [r0, #4]
    b294:	e38e3001 	orr	r3, lr, #1
    b298:	e5883004 	str	r3, [r8, #4]
    b29c:	e788e00e 	str	lr, [r8, lr]
    b2a0:	0a000011 	beq	b2ec <malloc+0xa30>
    b2a4:	e59f566c 	ldr	r5, [pc, #1644]	; b918 <malloc+0x105c>
    b2a8:	e1a061a2 	lsr	r6, r2, #3
    b2ac:	e352000f 	cmp	r2, #15
    b2b0:	e08f5005 	add	r5, pc, r5
    b2b4:	e0853186 	add	r3, r5, r6, lsl #3
    b2b8:	e2833028 	add	r3, r3, #40	; 0x28
    b2bc:	e5951014 	ldr	r1, [r5, #20]
    b2c0:	9affff81 	bls	b0cc <malloc+0x810>
    b2c4:	e3a02001 	mov	r2, #1
    b2c8:	e1a02612 	lsl	r2, r2, r6
    b2cc:	e11c0002 	tst	ip, r2
    b2d0:	1a000382 	bne	c0e0 <malloc+0x1824>
    b2d4:	e18cc002 	orr	ip, ip, r2
    b2d8:	e1a02003 	mov	r2, r3
    b2dc:	e585c000 	str	ip, [r5]
    b2e0:	e5831008 	str	r1, [r3, #8]
    b2e4:	e582100c 	str	r1, [r2, #12]
    b2e8:	e1c120f8 	strd	r2, [r1, #8]
    b2ec:	e59f3628 	ldr	r3, [pc, #1576]	; b91c <malloc+0x1060>
    b2f0:	e08f3003 	add	r3, pc, r3
    b2f4:	e583e008 	str	lr, [r3, #8]
    b2f8:	e5838014 	str	r8, [r3, #20]
    b2fc:	e2900008 	adds	r0, r0, #8
    b300:	1afffd9d 	bne	a97c <malloc+0xc0>
    b304:	e59f3614 	ldr	r3, [pc, #1556]	; b920 <malloc+0x1064>
    b308:	e08f3003 	add	r3, pc, r3
    b30c:	e5932008 	ldr	r2, [r3, #8]
    b310:	eafffdb5 	b	a9ec <malloc+0x130>
    b314:	e3570801 	cmp	r7, #65536	; 0x10000
    b318:	3a000114 	bcc	b770 <malloc+0xeb4>
    b31c:	e593c1ac 	ldr	ip, [r3, #428]	; 0x1ac
    b320:	e35c0000 	cmp	ip, #0
    b324:	11a0e004 	movne	lr, r4
    b328:	13a0701f 	movne	r7, #31
    b32c:	1afffea3 	bne	adc0 <malloc+0x504>
    b330:	eafffdad 	b	a9ec <malloc+0x130>
    b334:	e593100c 	ldr	r1, [r3, #12]
    b338:	e3110008 	tst	r1, #8
    b33c:	0a0001eb 	beq	baf0 <malloc+0x1234>
    b340:	e59f35dc 	ldr	r3, [pc, #1500]	; b924 <malloc+0x1068>
    b344:	e08f3003 	add	r3, pc, r3
    b348:	e2833d07 	add	r3, r3, #448	; 0x1c0
    b34c:	eafffe85 	b	ad68 <malloc+0x4ac>
    b350:	e593000c 	ldr	r0, [r3, #12]
    b354:	e3100008 	tst	r0, #8
    b358:	1afffe70 	bne	ad20 <malloc+0x464>
    b35c:	e15e0002 	cmp	lr, r2
    b360:	3afffe6e 	bcc	ad20 <malloc+0x464>
    b364:	e15e0005 	cmp	lr, r5
    b368:	2afffe6c 	bcs	ad20 <malloc+0x464>
    b36c:	e59f05b4 	ldr	r0, [pc, #1460]	; b928 <malloc+0x106c>
    b370:	e28e2008 	add	r2, lr, #8
    b374:	e0811006 	add	r1, r1, r6
    b378:	e5831004 	str	r1, [r3, #4]
    b37c:	e08f0000 	add	r0, pc, r0
    b380:	e3120007 	tst	r2, #7
    b384:	01a0c00e 	moveq	ip, lr
    b388:	e590300c 	ldr	r3, [r0, #12]
    b38c:	e59f0598 	ldr	r0, [pc, #1432]	; b92c <malloc+0x1070>
    b390:	e0866003 	add	r6, r6, r3
    b394:	12623000 	rsbne	r3, r2, #0
    b398:	e59f2590 	ldr	r2, [pc, #1424]	; b930 <malloc+0x1074>
    b39c:	12033007 	andne	r3, r3, #7
    b3a0:	108ec003 	addne	ip, lr, r3
    b3a4:	01a03006 	moveq	r3, r6
    b3a8:	10463003 	subne	r3, r6, r3
    b3ac:	e08f0000 	add	r0, pc, r0
    b3b0:	e08e6006 	add	r6, lr, r6
    b3b4:	e08f2002 	add	r2, pc, r2
    b3b8:	e5900010 	ldr	r0, [r0, #16]
    b3bc:	e3831001 	orr	r1, r3, #1
    b3c0:	e582c018 	str	ip, [r2, #24]
    b3c4:	e3a0e028 	mov	lr, #40	; 0x28
    b3c8:	e582300c 	str	r3, [r2, #12]
    b3cc:	e58c1004 	str	r1, [ip, #4]
    b3d0:	e586e004 	str	lr, [r6, #4]
    b3d4:	e582001c 	str	r0, [r2, #28]
    b3d8:	e1540003 	cmp	r4, r3
    b3dc:	2affff30 	bcs	b0a4 <malloc+0x7e8>
    b3e0:	e59f154c 	ldr	r1, [pc, #1356]	; b934 <malloc+0x1078>
    b3e4:	e0433004 	sub	r3, r3, r4
    b3e8:	e384c003 	orr	ip, r4, #3
    b3ec:	e383e001 	orr	lr, r3, #1
    b3f0:	e08f1001 	add	r1, pc, r1
    b3f4:	e5912018 	ldr	r2, [r1, #24]
    b3f8:	e581300c 	str	r3, [r1, #12]
    b3fc:	e0824004 	add	r4, r2, r4
    b400:	e2820008 	add	r0, r2, #8
    b404:	e5814018 	str	r4, [r1, #24]
    b408:	e584e004 	str	lr, [r4, #4]
    b40c:	e582c004 	str	ip, [r2, #4]
    b410:	eafffd59 	b	a97c <malloc+0xc0>
    b414:	e2423027 	sub	r3, r2, #39	; 0x27
    b418:	e1a0c002 	mov	ip, r2
    b41c:	e3130007 	tst	r3, #7
    b420:	e59fa510 	ldr	sl, [pc, #1296]	; b938 <malloc+0x107c>
    b424:	12638000 	rsbne	r8, r3, #0
    b428:	e28e3010 	add	r3, lr, #16
    b42c:	12088007 	andne	r8, r8, #7
    b430:	03e0802e 	mvneq	r8, #46	; 0x2e
    b434:	1248802f 	subne	r8, r8, #47	; 0x2f
    b438:	e2461028 	sub	r1, r6, #40	; 0x28
    b43c:	e0828008 	add	r8, r2, r8
    b440:	e08fa00a 	add	sl, pc, sl
    b444:	e1580003 	cmp	r8, r3
    b448:	e2853008 	add	r3, r5, #8
    b44c:	31a0800e 	movcc	r8, lr
    b450:	e3130007 	tst	r3, #7
    b454:	e2882008 	add	r2, r8, #8
    b458:	12633000 	rsbne	r3, r3, #0
    b45c:	e1a09002 	mov	r9, r2
    b460:	e59f24d4 	ldr	r2, [pc, #1236]	; b93c <malloc+0x1080>
    b464:	12033007 	andne	r3, r3, #7
    b468:	01a03001 	moveq	r3, r1
    b46c:	e08f2002 	add	r2, pc, r2
    b470:	10850003 	addne	r0, r5, r3
    b474:	01a00005 	moveq	r0, r5
    b478:	10413003 	subne	r3, r1, r3
    b47c:	e0851001 	add	r1, r5, r1
    b480:	e3837001 	orr	r7, r3, #1
    b484:	e5922010 	ldr	r2, [r2, #16]
    b488:	e58a300c 	str	r3, [sl, #12]
    b48c:	e3a03028 	mov	r3, #40	; 0x28
    b490:	e58a0018 	str	r0, [sl, #24]
    b494:	e5807004 	str	r7, [r0, #4]
    b498:	e1a07009 	mov	r7, r9
    b49c:	e5813004 	str	r3, [r1, #4]
    b4a0:	e2191007 	ands	r1, r9, #7
    b4a4:	e58a201c 	str	r2, [sl, #28]
    b4a8:	1affff07 	bne	b0cc <malloc+0x810>
    b4ac:	e28a3d07 	add	r3, sl, #448	; 0x1c0
    b4b0:	e1a09001 	mov	r9, r1
    b4b4:	e3a0201b 	mov	r2, #27
    b4b8:	e58d1004 	str	r1, [sp, #4]
    b4bc:	e5882004 	str	r2, [r8, #4]
    b4c0:	e3a0b007 	mov	fp, #7
    b4c4:	e893000f 	ldm	r3, {r0, r1, r2, r3}
    b4c8:	e887000f 	stm	r7, {r0, r1, r2, r3}
    b4cc:	e58a71c8 	str	r7, [sl, #456]	; 0x1c8
    b4d0:	e288701c 	add	r7, r8, #28
    b4d4:	e58a51c0 	str	r5, [sl, #448]	; 0x1c0
    b4d8:	e58a61c4 	str	r6, [sl, #452]	; 0x1c4
    b4dc:	e58a91cc 	str	r9, [sl, #460]	; 0x1cc
    b4e0:	e487b004 	str	fp, [r7], #4
    b4e4:	e2899001 	add	r9, r9, #1
    b4e8:	e15c0007 	cmp	ip, r7
    b4ec:	8afffffb 	bhi	b4e0 <malloc+0xc24>
    b4f0:	e3590001 	cmp	r9, #1
    b4f4:	0afffef4 	beq	b0cc <malloc+0x810>
    b4f8:	e15e0008 	cmp	lr, r8
    b4fc:	0a0001ba 	beq	bbec <malloc+0x1330>
    b500:	e048100e 	sub	r1, r8, lr
    b504:	e5983004 	ldr	r3, [r8, #4]
    b508:	e3812001 	orr	r2, r1, #1
    b50c:	e3c33001 	bic	r3, r3, #1
    b510:	e5883004 	str	r3, [r8, #4]
    b514:	e1a031a1 	lsr	r3, r1, #3
    b518:	e58e2004 	str	r2, [lr, #4]
    b51c:	e353001f 	cmp	r3, #31
    b520:	e5881000 	str	r1, [r8]
    b524:	8a000127 	bhi	b9c8 <malloc+0x110c>
    b528:	e59f0410 	ldr	r0, [pc, #1040]	; b940 <malloc+0x1084>
    b52c:	e351000f 	cmp	r1, #15
    b530:	e08f0000 	add	r0, pc, r0
    b534:	e0802183 	add	r2, r0, r3, lsl #3
    b538:	e2822028 	add	r2, r2, #40	; 0x28
    b53c:	9afffee2 	bls	b0cc <malloc+0x810>
    b540:	e3a01001 	mov	r1, #1
    b544:	e590c000 	ldr	ip, [r0]
    b548:	e1a03311 	lsl	r3, r1, r3
    b54c:	e11c0003 	tst	ip, r3
    b550:	1a0001da 	bne	bcc0 <malloc+0x1404>
    b554:	e1a01002 	mov	r1, r2
    b558:	e18c3003 	orr	r3, ip, r3
    b55c:	e5803000 	str	r3, [r0]
    b560:	e59f33dc 	ldr	r3, [pc, #988]	; b944 <malloc+0x1088>
    b564:	e582e008 	str	lr, [r2, #8]
    b568:	e08f3003 	add	r3, pc, r3
    b56c:	e581e00c 	str	lr, [r1, #12]
    b570:	e58e1008 	str	r1, [lr, #8]
    b574:	e58e200c 	str	r2, [lr, #12]
    b578:	e593300c 	ldr	r3, [r3, #12]
    b57c:	eaffff95 	b	b3d8 <malloc+0xb1c>
    b580:	e3e03001 	mvn	r3, #1
    b584:	e1a08006 	mov	r8, r6
    b588:	e1a07713 	lsl	r7, r3, r7
    b58c:	e0117007 	ands	r7, r1, r7
    b590:	0afffd15 	beq	a9ec <malloc+0x130>
    b594:	e2673000 	rsb	r3, r7, #0
    b598:	e59fc3a8 	ldr	ip, [pc, #936]	; b948 <malloc+0x108c>
    b59c:	e0033007 	and	r3, r3, r7
    b5a0:	e2433001 	sub	r3, r3, #1
    b5a4:	e08fc00c 	add	ip, pc, ip
    b5a8:	e1a00623 	lsr	r0, r3, #12
    b5ac:	e2000010 	and	r0, r0, #16
    b5b0:	e1a03033 	lsr	r3, r3, r0
    b5b4:	e1a0e2a3 	lsr	lr, r3, #5
    b5b8:	e20ee008 	and	lr, lr, #8
    b5bc:	e180000e 	orr	r0, r0, lr
    b5c0:	e1a03e33 	lsr	r3, r3, lr
    b5c4:	e1a0e123 	lsr	lr, r3, #2
    b5c8:	e20ee004 	and	lr, lr, #4
    b5cc:	e080000e 	add	r0, r0, lr
    b5d0:	e1a03e33 	lsr	r3, r3, lr
    b5d4:	e1a0e0a3 	lsr	lr, r3, #1
    b5d8:	e20ee002 	and	lr, lr, #2
    b5dc:	e080000e 	add	r0, r0, lr
    b5e0:	e1a03e33 	lsr	r3, r3, lr
    b5e4:	e7e0e0d3 	ubfx	lr, r3, #1, #1
    b5e8:	e080000e 	add	r0, r0, lr
    b5ec:	e0803e33 	add	r3, r0, r3, lsr lr
    b5f0:	e283304c 	add	r3, r3, #76	; 0x4c
    b5f4:	e79cc103 	ldr	ip, [ip, r3, lsl #2]
    b5f8:	e35c0000 	cmp	ip, #0
    b5fc:	13a00000 	movne	r0, #0
    b600:	1afffe0d 	bne	ae3c <malloc+0x580>
    b604:	eafffcf8 	b	a9ec <malloc+0x130>
    b608:	e59f333c 	ldr	r3, [pc, #828]	; b94c <malloc+0x1090>
    b60c:	e08f3003 	add	r3, pc, r3
    b610:	e593600c 	ldr	r6, [r3, #12]
    b614:	e0406006 	sub	r6, r0, r6
    b618:	e0866004 	add	r6, r6, r4
    b61c:	e006600c 	and	r6, r6, ip
    b620:	e376010a 	cmn	r6, #-2147483646	; 0x80000002
    b624:	8afffe98 	bhi	b08c <malloc+0x7d0>
    b628:	e1a00006 	mov	r0, r6
    b62c:	ebfffbe4 	bl	a5c4 <sbrk>
    b630:	e5972000 	ldr	r2, [r7]
    b634:	e5971004 	ldr	r1, [r7, #4]
    b638:	e3700001 	cmn	r0, #1
    b63c:	13a03000 	movne	r3, #0
    b640:	03a03001 	moveq	r3, #1
    b644:	e0822001 	add	r2, r2, r1
    b648:	e1a05000 	mov	r5, r0
    b64c:	e1500002 	cmp	r0, r2
    b650:	13833001 	orrne	r3, r3, #1
    b654:	e3530000 	cmp	r3, #0
    b658:	0afffd9a 	beq	acc8 <malloc+0x40c>
    b65c:	e3750001 	cmn	r5, #1
    b660:	0a00033b 	beq	c354 <malloc+0x1a98>
    b664:	e2843030 	add	r3, r4, #48	; 0x30
    b668:	e1530006 	cmp	r3, r6
    b66c:	9afffd95 	bls	acc8 <malloc+0x40c>
    b670:	e59f32d8 	ldr	r3, [pc, #728]	; b950 <malloc+0x1094>
    b674:	e2669000 	rsb	r9, r6, #0
    b678:	e08f3003 	add	r3, pc, r3
    b67c:	e5933008 	ldr	r3, [r3, #8]
    b680:	e283702f 	add	r7, r3, #47	; 0x2f
    b684:	e2633000 	rsb	r3, r3, #0
    b688:	e0877004 	add	r7, r7, r4
    b68c:	e0477006 	sub	r7, r7, r6
    b690:	e0077003 	and	r7, r7, r3
    b694:	e377010a 	cmn	r7, #-2147483646	; 0x80000002
    b698:	8afffd8a 	bhi	acc8 <malloc+0x40c>
    b69c:	e1a00007 	mov	r0, r7
    b6a0:	ebfffbc7 	bl	a5c4 <sbrk>
    b6a4:	e3700001 	cmn	r0, #1
    b6a8:	10866007 	addne	r6, r6, r7
    b6ac:	1afffd85 	bne	acc8 <malloc+0x40c>
    b6b0:	e1a00009 	mov	r0, r9
    b6b4:	ebfffbc2 	bl	a5c4 <sbrk>
    b6b8:	e59f3294 	ldr	r3, [pc, #660]	; b954 <malloc+0x1098>
    b6bc:	e08f3003 	add	r3, pc, r3
    b6c0:	e593e1bc 	ldr	lr, [r3, #444]	; 0x1bc
    b6c4:	eafffe70 	b	b08c <malloc+0x7d0>
    b6c8:	e5931010 	ldr	r1, [r3, #16]
    b6cc:	e3e00000 	mvn	r0, #0
    b6d0:	e1510005 	cmp	r1, r5
    b6d4:	93a02000 	movls	r2, #0
    b6d8:	83a02001 	movhi	r2, #1
    b6dc:	e3510000 	cmp	r1, #0
    b6e0:	e59f1270 	ldr	r1, [pc, #624]	; b958 <malloc+0x109c>
    b6e4:	03a02001 	moveq	r2, #1
    b6e8:	e3520000 	cmp	r2, #0
    b6ec:	15835010 	strne	r5, [r3, #16]
    b6f0:	e59f3264 	ldr	r3, [pc, #612]	; b95c <malloc+0x10a0>
    b6f4:	e08f1001 	add	r1, pc, r1
    b6f8:	e3a02000 	mov	r2, #0
    b6fc:	e08f3003 	add	r3, pc, r3
    b700:	e58121cc 	str	r2, [r1, #460]	; 0x1cc
    b704:	e2812f4a 	add	r2, r1, #296	; 0x128
    b708:	e58151c0 	str	r5, [r1, #448]	; 0x1c0
    b70c:	e5933000 	ldr	r3, [r3]
    b710:	e5813024 	str	r3, [r1, #36]	; 0x24
    b714:	e2813028 	add	r3, r1, #40	; 0x28
    b718:	e58161c4 	str	r6, [r1, #452]	; 0x1c4
    b71c:	e5810020 	str	r0, [r1, #32]
    b720:	e583300c 	str	r3, [r3, #12]
    b724:	e5833008 	str	r3, [r3, #8]
    b728:	e2833008 	add	r3, r3, #8
    b72c:	e1520003 	cmp	r2, r3
    b730:	1afffffa 	bne	b720 <malloc+0xe64>
    b734:	e2853008 	add	r3, r5, #8
    b738:	e59f0220 	ldr	r0, [pc, #544]	; b960 <malloc+0x10a4>
    b73c:	e3130007 	tst	r3, #7
    b740:	e59f221c 	ldr	r2, [pc, #540]	; b964 <malloc+0x10a8>
    b744:	12633000 	rsbne	r3, r3, #0
    b748:	e2466028 	sub	r6, r6, #40	; 0x28
    b74c:	12033007 	andne	r3, r3, #7
    b750:	01a03006 	moveq	r3, r6
    b754:	1085c003 	addne	ip, r5, r3
    b758:	01a0c005 	moveq	ip, r5
    b75c:	10463003 	subne	r3, r6, r3
    b760:	e08f0000 	add	r0, pc, r0
    b764:	e0856006 	add	r6, r5, r6
    b768:	e08f2002 	add	r2, pc, r2
    b76c:	eaffff11 	b	b3b8 <malloc+0xafc>
    b770:	e2470c01 	sub	r0, r7, #256	; 0x100
    b774:	e1a00820 	lsr	r0, r0, #16
    b778:	e2000008 	and	r0, r0, #8
    b77c:	e1a07017 	lsl	r7, r7, r0
    b780:	e247ca01 	sub	ip, r7, #4096	; 0x1000
    b784:	e1a0c82c 	lsr	ip, ip, #16
    b788:	e20cc004 	and	ip, ip, #4
    b78c:	e180000c 	orr	r0, r0, ip
    b790:	e1a07c17 	lsl	r7, r7, ip
    b794:	e247c901 	sub	ip, r7, #16384	; 0x4000
    b798:	e1a0c82c 	lsr	ip, ip, #16
    b79c:	e20cc002 	and	ip, ip, #2
    b7a0:	e080000c 	add	r0, r0, ip
    b7a4:	e1a07c17 	lsl	r7, r7, ip
    b7a8:	e06077a7 	rsb	r7, r0, r7, lsr #15
    b7ac:	e2870015 	add	r0, r7, #21
    b7b0:	e287700e 	add	r7, r7, #14
    b7b4:	e1a00034 	lsr	r0, r4, r0
    b7b8:	e2000001 	and	r0, r0, #1
    b7bc:	e0807087 	add	r7, r0, r7, lsl #1
    b7c0:	e287004c 	add	r0, r7, #76	; 0x4c
    b7c4:	e793c100 	ldr	ip, [r3, r0, lsl #2]
    b7c8:	e35c0000 	cmp	ip, #0
    b7cc:	0affff6b 	beq	b580 <malloc+0xcc4>
    b7d0:	e357001f 	cmp	r7, #31
    b7d4:	01a0e004 	moveq	lr, r4
    b7d8:	0afffd78 	beq	adc0 <malloc+0x504>
    b7dc:	e1a0e0a7 	lsr	lr, r7, #1
    b7e0:	e26ee019 	rsb	lr, lr, #25
    b7e4:	eafffd74 	b	adbc <malloc+0x500>
    b7e8:	e1a0000c 	mov	r0, ip
    b7ec:	eafffd92 	b	ae3c <malloc+0x580>
    b7f0:	e1a031a8 	lsr	r3, r8, #3
    b7f4:	e3842003 	orr	r2, r4, #3
    b7f8:	e353001f 	cmp	r3, #31
    b7fc:	e5802004 	str	r2, [r0, #4]
    b800:	e3882001 	orr	r2, r8, #1
    b804:	e5872004 	str	r2, [r7, #4]
    b808:	e7878008 	str	r8, [r7, r8]
    b80c:	8a0000fa 	bhi	bbfc <malloc+0x1340>
    b810:	e59f1150 	ldr	r1, [pc, #336]	; b968 <malloc+0x10ac>
    b814:	e3a02001 	mov	r2, #1
    b818:	e08f1001 	add	r1, pc, r1
    b81c:	e1a02312 	lsl	r2, r2, r3
    b820:	e0813183 	add	r3, r1, r3, lsl #3
    b824:	e2833028 	add	r3, r3, #40	; 0x28
    b828:	e591c000 	ldr	ip, [r1]
    b82c:	e11c0002 	tst	ip, r2
    b830:	1a00014e 	bne	bd70 <malloc+0x14b4>
    b834:	e18cc002 	orr	ip, ip, r2
    b838:	e1a02003 	mov	r2, r3
    b83c:	e581c000 	str	ip, [r1]
    b840:	e5837008 	str	r7, [r3, #8]
    b844:	e582700c 	str	r7, [r2, #12]
    b848:	e1c720f8 	strd	r2, [r7, #8]
    b84c:	eafffdd2 	b	af9c <malloc+0x6e0>
    b850:	e590e014 	ldr	lr, [r0, #20]
    b854:	e35e0000 	cmp	lr, #0
    b858:	12803014 	addne	r3, r0, #20
    b85c:	0a000125 	beq	bcf8 <malloc+0x143c>
    b860:	e1a0200e 	mov	r2, lr
    b864:	e1a0c003 	mov	ip, r3
    b868:	e1a03002 	mov	r3, r2
    b86c:	e5b31014 	ldr	r1, [r3, #20]!
    b870:	e3510000 	cmp	r1, #0
    b874:	0a000005 	beq	b890 <malloc+0xfd4>
    b878:	e1a02001 	mov	r2, r1
    b87c:	e1a0c003 	mov	ip, r3
    b880:	e1a03002 	mov	r3, r2
    b884:	e5b31014 	ldr	r1, [r3, #20]!
    b888:	e3510000 	cmp	r1, #0
    b88c:	1afffff9 	bne	b878 <malloc+0xfbc>
    b890:	e1a03002 	mov	r3, r2
    b894:	e5b3e010 	ldr	lr, [r3, #16]!
    b898:	e35e0000 	cmp	lr, #0
    b89c:	1affffef 	bne	b860 <malloc+0xfa4>
    b8a0:	e156000c 	cmp	r6, ip
    b8a4:	8afffe08 	bhi	b0cc <malloc+0x810>
    b8a8:	e58ce000 	str	lr, [ip]
    b8ac:	eafffd8f 	b	aef0 <malloc+0x634>
    b8b0:	0000a930 	.word	0x0000a930
    b8b4:	0000a880 	.word	0x0000a880
    b8b8:	0000a85c 	.word	0x0000a85c
    b8bc:	0000a814 	.word	0x0000a814
    b8c0:	0000a6c4 	.word	0x0000a6c4
    b8c4:	0000a678 	.word	0x0000a678
    b8c8:	0000a65c 	.word	0x0000a65c
    b8cc:	0000a7fc 	.word	0x0000a7fc
    b8d0:	0000a7e0 	.word	0x0000a7e0
    b8d4:	0000a5e4 	.word	0x0000a5e4
    b8d8:	0000a5ac 	.word	0x0000a5ac
    b8dc:	0000a540 	.word	0x0000a540
    b8e0:	0000a520 	.word	0x0000a520
    b8e4:	0000a4e4 	.word	0x0000a4e4
    b8e8:	0000a4d0 	.word	0x0000a4d0
    b8ec:	0000a4ac 	.word	0x0000a4ac
    b8f0:	0000a388 	.word	0x0000a388
    b8f4:	0000a308 	.word	0x0000a308
    b8f8:	0000a264 	.word	0x0000a264
    b8fc:	0000a3d0 	.word	0x0000a3d0
    b900:	0000a1b0 	.word	0x0000a1b0
    b904:	0000a188 	.word	0x0000a188
    b908:	0000a174 	.word	0x0000a174
    b90c:	0000a15c 	.word	0x0000a15c
    b910:	0000a084 	.word	0x0000a084
    b914:	0000a004 	.word	0x0000a004
    b918:	00009f5c 	.word	0x00009f5c
    b91c:	00009f1c 	.word	0x00009f1c
    b920:	00009f04 	.word	0x00009f04
    b924:	00009ec8 	.word	0x00009ec8
    b928:	00009e90 	.word	0x00009e90
    b92c:	0000a038 	.word	0x0000a038
    b930:	00009e58 	.word	0x00009e58
    b934:	00009e1c 	.word	0x00009e1c
    b938:	00009dcc 	.word	0x00009dcc
    b93c:	00009f78 	.word	0x00009f78
    b940:	00009cdc 	.word	0x00009cdc
    b944:	00009ca4 	.word	0x00009ca4
    b948:	00009c68 	.word	0x00009c68
    b94c:	00009c00 	.word	0x00009c00
    b950:	00009d6c 	.word	0x00009d6c
    b954:	00009b50 	.word	0x00009b50
    b958:	00009b18 	.word	0x00009b18
    b95c:	00009ce8 	.word	0x00009ce8
    b960:	00009c84 	.word	0x00009c84
    b964:	00009aa4 	.word	0x00009aa4
    b968:	000099f4 	.word	0x000099f4
    b96c:	000097cc 	.word	0x000097cc
    b970:	00009764 	.word	0x00009764
    b974:	000096a8 	.word	0x000096a8
    b978:	0000965c 	.word	0x0000965c
    b97c:	0000961c 	.word	0x0000961c
    b980:	00009598 	.word	0x00009598
    b984:	000093fc 	.word	0x000093fc
    b988:	000093d0 	.word	0x000093d0
    b98c:	00009338 	.word	0x00009338
    b990:	000092d4 	.word	0x000092d4
    b994:	000091e8 	.word	0x000091e8
    b998:	00009144 	.word	0x00009144
    b99c:	000090b8 	.word	0x000090b8
    b9a0:	000090a0 	.word	0x000090a0
    b9a4:	00009074 	.word	0x00009074
    b9a8:	0000901c 	.word	0x0000901c
    b9ac:	00008fd0 	.word	0x00008fd0
    b9b0:	00008f78 	.word	0x00008f78
    b9b4:	00008f58 	.word	0x00008f58
    b9b8:	00008f40 	.word	0x00008f40
    b9bc:	00008efc 	.word	0x00008efc
    b9c0:	000090a4 	.word	0x000090a4
    b9c4:	00008eb4 	.word	0x00008eb4
    b9c8:	e1a03421 	lsr	r3, r1, #8
    b9cc:	e3530801 	cmp	r3, #65536	; 0x10000
    b9d0:	2a0000b5 	bcs	bcac <malloc+0x13f0>
    b9d4:	e2432c01 	sub	r2, r3, #256	; 0x100
    b9d8:	e3a00001 	mov	r0, #1
    b9dc:	e1a02822 	lsr	r2, r2, #16
    b9e0:	e2022008 	and	r2, r2, #8
    b9e4:	e1a03213 	lsl	r3, r3, r2
    b9e8:	e243ca01 	sub	ip, r3, #4096	; 0x1000
    b9ec:	e1a0c82c 	lsr	ip, ip, #16
    b9f0:	e20cc004 	and	ip, ip, #4
    b9f4:	e182200c 	orr	r2, r2, ip
    b9f8:	e1a03c13 	lsl	r3, r3, ip
    b9fc:	e243c901 	sub	ip, r3, #16384	; 0x4000
    ba00:	e1a0c82c 	lsr	ip, ip, #16
    ba04:	e20cc002 	and	ip, ip, #2
    ba08:	e082200c 	add	r2, r2, ip
    ba0c:	e1a03c13 	lsl	r3, r3, ip
    ba10:	e06227a3 	rsb	r2, r2, r3, lsr #15
    ba14:	e2823015 	add	r3, r2, #21
    ba18:	e282200e 	add	r2, r2, #14
    ba1c:	e1a03331 	lsr	r3, r1, r3
    ba20:	e0033000 	and	r3, r3, r0
    ba24:	e0833012 	add	r3, r3, r2, lsl r0
    ba28:	e283604c 	add	r6, r3, #76	; 0x4c
    ba2c:	e1a00310 	lsl	r0, r0, r3
    ba30:	e1a05106 	lsl	r5, r6, #2
    ba34:	e51f20d0 	ldr	r2, [pc, #-208]	; b96c <malloc+0x10b0>
    ba38:	e3a0c000 	mov	ip, #0
    ba3c:	e58ec014 	str	ip, [lr, #20]
    ba40:	e08f2002 	add	r2, pc, r2
    ba44:	e58ec010 	str	ip, [lr, #16]
    ba48:	e58e301c 	str	r3, [lr, #28]
    ba4c:	e592c004 	ldr	ip, [r2, #4]
    ba50:	e110000c 	tst	r0, ip
    ba54:	0a00009e 	beq	bcd4 <malloc+0x1418>
    ba58:	e353001f 	cmp	r3, #31
    ba5c:	e7920106 	ldr	r0, [r2, r6, lsl #2]
    ba60:	11a020a3 	lsrne	r2, r3, #1
    ba64:	01a02001 	moveq	r2, r1
    ba68:	12622019 	rsbne	r2, r2, #25
    ba6c:	11a02211 	lslne	r2, r1, r2
    ba70:	ea000006 	b	ba90 <malloc+0x11d4>
    ba74:	e1a03fa2 	lsr	r3, r2, #31
    ba78:	e1a02082 	lsl	r2, r2, #1
    ba7c:	e2833004 	add	r3, r3, #4
    ba80:	e790c103 	ldr	ip, [r0, r3, lsl #2]
    ba84:	e35c0000 	cmp	ip, #0
    ba88:	0a0000de 	beq	be08 <malloc+0x154c>
    ba8c:	e1a0000c 	mov	r0, ip
    ba90:	e5903004 	ldr	r3, [r0, #4]
    ba94:	e3c33007 	bic	r3, r3, #7
    ba98:	e1510003 	cmp	r1, r3
    ba9c:	1afffff4 	bne	ba74 <malloc+0x11b8>
    baa0:	e51f1138 	ldr	r1, [pc, #-312]	; b970 <malloc+0x10b4>
    baa4:	e5902008 	ldr	r2, [r0, #8]
    baa8:	e08f1001 	add	r1, pc, r1
    baac:	e5913010 	ldr	r3, [r1, #16]
    bab0:	e1520003 	cmp	r2, r3
    bab4:	21500003 	cmpcs	r0, r3
    bab8:	3afffd83 	bcc	b0cc <malloc+0x810>
    babc:	e582e00c 	str	lr, [r2, #12]
    bac0:	e3a0c000 	mov	ip, #0
    bac4:	e580e008 	str	lr, [r0, #8]
    bac8:	e591300c 	ldr	r3, [r1, #12]
    bacc:	e58ec018 	str	ip, [lr, #24]
    bad0:	e58e2008 	str	r2, [lr, #8]
    bad4:	e58e000c 	str	r0, [lr, #12]
    bad8:	eafffe3e 	b	b3d8 <malloc+0xb1c>
    badc:	e5911010 	ldr	r1, [r1, #16]
    bae0:	e5935008 	ldr	r5, [r3, #8]
    bae4:	e1550001 	cmp	r5, r1
    bae8:	2afffc23 	bcs	ab7c <malloc+0x2c0>
    baec:	eafffd76 	b	b0cc <malloc+0x810>
    baf0:	e5930004 	ldr	r0, [r3, #4]
    baf4:	e2851008 	add	r1, r5, #8
    baf8:	e3110007 	tst	r1, #7
    bafc:	e5835000 	str	r5, [r3]
    bb00:	e0806006 	add	r6, r0, r6
    bb04:	e5836004 	str	r6, [r3, #4]
    bb08:	12613000 	rsbne	r3, r1, #0
    bb0c:	12033007 	andne	r3, r3, #7
    bb10:	10855003 	addne	r5, r5, r3
    bb14:	e2823008 	add	r3, r2, #8
    bb18:	e3130007 	tst	r3, #7
    bb1c:	e085c004 	add	ip, r5, r4
    bb20:	12633000 	rsbne	r3, r3, #0
    bb24:	12033007 	andne	r3, r3, #7
    bb28:	10822003 	addne	r2, r2, r3
    bb2c:	e0423005 	sub	r3, r2, r5
    bb30:	e15c0002 	cmp	ip, r2
    bb34:	e0433004 	sub	r3, r3, r4
    bb38:	e3844003 	orr	r4, r4, #3
    bb3c:	e5854004 	str	r4, [r5, #4]
    bb40:	2afffd61 	bcs	b0cc <malloc+0x810>
    bb44:	e5920004 	ldr	r0, [r2, #4]
    bb48:	e3100001 	tst	r0, #1
    bb4c:	0afffd5e 	beq	b0cc <malloc+0x810>
    bb50:	e353000f 	cmp	r3, #15
    bb54:	9afffd5c 	bls	b0cc <malloc+0x810>
    bb58:	e15e0002 	cmp	lr, r2
    bb5c:	0a0000b5 	beq	be38 <malloc+0x157c>
    bb60:	e51f11f4 	ldr	r1, [pc, #-500]	; b974 <malloc+0x10b8>
    bb64:	e08f1001 	add	r1, pc, r1
    bb68:	e591e014 	ldr	lr, [r1, #20]
    bb6c:	e15e0002 	cmp	lr, r2
    bb70:	0a000102 	beq	bf80 <malloc+0x16c4>
    bb74:	e200e003 	and	lr, r0, #3
    bb78:	e35e0001 	cmp	lr, #1
    bb7c:	0a000107 	beq	bfa0 <malloc+0x16e4>
    bb80:	e1a0e1a3 	lsr	lr, r3, #3
    bb84:	e3c00001 	bic	r0, r0, #1
    bb88:	e35e001f 	cmp	lr, #31
    bb8c:	e5820004 	str	r0, [r2, #4]
    bb90:	e3830001 	orr	r0, r3, #1
    bb94:	e58c0004 	str	r0, [ip, #4]
    bb98:	e5823000 	str	r3, [r2]
    bb9c:	8a0000ae 	bhi	be5c <malloc+0x15a0>
    bba0:	e081318e 	add	r3, r1, lr, lsl #3
    bba4:	e2833028 	add	r3, r3, #40	; 0x28
    bba8:	e51f1238 	ldr	r1, [pc, #-568]	; b978 <malloc+0x10bc>
    bbac:	e3a02001 	mov	r2, #1
    bbb0:	e08f1001 	add	r1, pc, r1
    bbb4:	e1a0ee12 	lsl	lr, r2, lr
    bbb8:	e5912000 	ldr	r2, [r1]
    bbbc:	e112000e 	tst	r2, lr
    bbc0:	1a000129 	bne	c06c <malloc+0x17b0>
    bbc4:	e182e00e 	orr	lr, r2, lr
    bbc8:	e1a02003 	mov	r2, r3
    bbcc:	e581e000 	str	lr, [r1]
    bbd0:	e583c008 	str	ip, [r3, #8]
    bbd4:	e582c00c 	str	ip, [r2, #12]
    bbd8:	e1cc20f8 	strd	r2, [ip, #8]
    bbdc:	e2850008 	add	r0, r5, #8
    bbe0:	eafffb65 	b	a97c <malloc+0xc0>
    bbe4:	e3822003 	orr	r2, r2, #3
    bbe8:	eafffb6e 	b	a9a8 <malloc+0xec>
    bbec:	e51f3278 	ldr	r3, [pc, #-632]	; b97c <malloc+0x10c0>
    bbf0:	e08f3003 	add	r3, pc, r3
    bbf4:	e593300c 	ldr	r3, [r3, #12]
    bbf8:	eafffdf6 	b	b3d8 <malloc+0xb1c>
    bbfc:	e1a03428 	lsr	r3, r8, #8
    bc00:	e3530801 	cmp	r3, #65536	; 0x10000
    bc04:	2a00007a 	bcs	bdf4 <malloc+0x1538>
    bc08:	e2431c01 	sub	r1, r3, #256	; 0x100
    bc0c:	e3a02001 	mov	r2, #1
    bc10:	e1a01821 	lsr	r1, r1, #16
    bc14:	e2011008 	and	r1, r1, #8
    bc18:	e1a03113 	lsl	r3, r3, r1
    bc1c:	e243ca01 	sub	ip, r3, #4096	; 0x1000
    bc20:	e1a0c82c 	lsr	ip, ip, #16
    bc24:	e20cc004 	and	ip, ip, #4
    bc28:	e181100c 	orr	r1, r1, ip
    bc2c:	e1a03c13 	lsl	r3, r3, ip
    bc30:	e243c901 	sub	ip, r3, #16384	; 0x4000
    bc34:	e1a0c82c 	lsr	ip, ip, #16
    bc38:	e20cc002 	and	ip, ip, #2
    bc3c:	e081100c 	add	r1, r1, ip
    bc40:	e1a03c13 	lsl	r3, r3, ip
    bc44:	e06117a3 	rsb	r1, r1, r3, lsr #15
    bc48:	e2813015 	add	r3, r1, #21
    bc4c:	e281100e 	add	r1, r1, #14
    bc50:	e1a03338 	lsr	r3, r8, r3
    bc54:	e0033002 	and	r3, r3, r2
    bc58:	e0833211 	add	r3, r3, r1, lsl r2
    bc5c:	e283e04c 	add	lr, r3, #76	; 0x4c
    bc60:	e1a0c312 	lsl	ip, r2, r3
    bc64:	e1a0510e 	lsl	r5, lr, #2
    bc68:	e51f22f0 	ldr	r2, [pc, #-752]	; b980 <malloc+0x10c4>
    bc6c:	e3a01000 	mov	r1, #0
    bc70:	e5871014 	str	r1, [r7, #20]
    bc74:	e08f2002 	add	r2, pc, r2
    bc78:	e5871010 	str	r1, [r7, #16]
    bc7c:	e587301c 	str	r3, [r7, #28]
    bc80:	e5921004 	ldr	r1, [r2, #4]
    bc84:	e111000c 	tst	r1, ip
    bc88:	1a00003c 	bne	bd80 <malloc+0x14c4>
    bc8c:	e782710e 	str	r7, [r2, lr, lsl #2]
    bc90:	e181100c 	orr	r1, r1, ip
    bc94:	e587700c 	str	r7, [r7, #12]
    bc98:	e5821004 	str	r1, [r2, #4]
    bc9c:	e0822005 	add	r2, r2, r5
    bca0:	e5877008 	str	r7, [r7, #8]
    bca4:	e5872018 	str	r2, [r7, #24]
    bca8:	eafffcbb 	b	af9c <malloc+0x6e0>
    bcac:	e3a00102 	mov	r0, #-2147483648	; 0x80000000
    bcb0:	e3a05f6b 	mov	r5, #428	; 0x1ac
    bcb4:	e3a0301f 	mov	r3, #31
    bcb8:	e3a0606b 	mov	r6, #107	; 0x6b
    bcbc:	eaffff5c 	b	ba34 <malloc+0x1178>
    bcc0:	e5903010 	ldr	r3, [r0, #16]
    bcc4:	e5921008 	ldr	r1, [r2, #8]
    bcc8:	e1510003 	cmp	r1, r3
    bccc:	2afffe23 	bcs	b560 <malloc+0xca4>
    bcd0:	eafffcfd 	b	b0cc <malloc+0x810>
    bcd4:	e782e106 	str	lr, [r2, r6, lsl #2]
    bcd8:	e180000c 	orr	r0, r0, ip
    bcdc:	e0825005 	add	r5, r2, r5
    bce0:	e5820004 	str	r0, [r2, #4]
    bce4:	e58ee00c 	str	lr, [lr, #12]
    bce8:	e58e5018 	str	r5, [lr, #24]
    bcec:	e58ee008 	str	lr, [lr, #8]
    bcf0:	e592300c 	ldr	r3, [r2, #12]
    bcf4:	eafffdb7 	b	b3d8 <malloc+0xb1c>
    bcf8:	e590e010 	ldr	lr, [r0, #16]
    bcfc:	e35e0000 	cmp	lr, #0
    bd00:	0a0000e6 	beq	c0a0 <malloc+0x17e4>
    bd04:	e2803010 	add	r3, r0, #16
    bd08:	eafffed4 	b	b860 <malloc+0xfa4>
    bd0c:	e0802007 	add	r2, r0, r7
    bd10:	e3877003 	orr	r7, r7, #3
    bd14:	e5807004 	str	r7, [r0, #4]
    bd18:	e5923004 	ldr	r3, [r2, #4]
    bd1c:	e3833001 	orr	r3, r3, #1
    bd20:	e5823004 	str	r3, [r2, #4]
    bd24:	eafffd74 	b	b2fc <malloc+0xa40>
    bd28:	e5901014 	ldr	r1, [r0, #20]
    bd2c:	e3510000 	cmp	r1, #0
    bd30:	12803014 	addne	r3, r0, #20
    bd34:	0a0000ed 	beq	c0f0 <malloc+0x1834>
    bd38:	e1a05003 	mov	r5, r3
    bd3c:	e1a03001 	mov	r3, r1
    bd40:	e1a06001 	mov	r6, r1
    bd44:	e5b31014 	ldr	r1, [r3, #20]!
    bd48:	e3510000 	cmp	r1, #0
    bd4c:	1afffff9 	bne	bd38 <malloc+0x147c>
    bd50:	e1a03006 	mov	r3, r6
    bd54:	e5b31010 	ldr	r1, [r3, #16]!
    bd58:	e3510000 	cmp	r1, #0
    bd5c:	1afffff5 	bne	bd38 <malloc+0x147c>
    bd60:	e1590005 	cmp	r9, r5
    bd64:	8afffcd8 	bhi	b0cc <malloc+0x810>
    bd68:	e5851000 	str	r1, [r5]
    bd6c:	eafffd20 	b	b1f4 <malloc+0x938>
    bd70:	e5932008 	ldr	r2, [r3, #8]
    bd74:	e1560002 	cmp	r6, r2
    bd78:	9afffeb0 	bls	b840 <malloc+0xf84>
    bd7c:	eafffcd2 	b	b0cc <malloc+0x810>
    bd80:	e353001f 	cmp	r3, #31
    bd84:	e792110e 	ldr	r1, [r2, lr, lsl #2]
    bd88:	11a020a3 	lsrne	r2, r3, #1
    bd8c:	01a02008 	moveq	r2, r8
    bd90:	12622019 	rsbne	r2, r2, #25
    bd94:	11a02218 	lslne	r2, r8, r2
    bd98:	ea000006 	b	bdb8 <malloc+0x14fc>
    bd9c:	e1a03fa2 	lsr	r3, r2, #31
    bda0:	e1a02082 	lsl	r2, r2, #1
    bda4:	e2833004 	add	r3, r3, #4
    bda8:	e791c103 	ldr	ip, [r1, r3, lsl #2]
    bdac:	e35c0000 	cmp	ip, #0
    bdb0:	0a0000a0 	beq	c038 <malloc+0x177c>
    bdb4:	e1a0100c 	mov	r1, ip
    bdb8:	e5913004 	ldr	r3, [r1, #4]
    bdbc:	e3c33007 	bic	r3, r3, #7
    bdc0:	e1530008 	cmp	r3, r8
    bdc4:	1afffff4 	bne	bd9c <malloc+0x14e0>
    bdc8:	e5913008 	ldr	r3, [r1, #8]
    bdcc:	e1560001 	cmp	r6, r1
    bdd0:	91560003 	cmpls	r6, r3
    bdd4:	8afffcbc 	bhi	b0cc <malloc+0x810>
    bdd8:	e583700c 	str	r7, [r3, #12]
    bddc:	e3a02000 	mov	r2, #0
    bde0:	e5817008 	str	r7, [r1, #8]
    bde4:	e5873008 	str	r3, [r7, #8]
    bde8:	e587100c 	str	r1, [r7, #12]
    bdec:	e5872018 	str	r2, [r7, #24]
    bdf0:	eafffc69 	b	af9c <malloc+0x6e0>
    bdf4:	e3a05f6b 	mov	r5, #428	; 0x1ac
    bdf8:	e3a0c102 	mov	ip, #-2147483648	; 0x80000000
    bdfc:	e3a0301f 	mov	r3, #31
    be00:	e3a0e06b 	mov	lr, #107	; 0x6b
    be04:	eaffff97 	b	bc68 <malloc+0x13ac>
    be08:	e51f148c 	ldr	r1, [pc, #-1164]	; b984 <malloc+0x10c8>
    be0c:	e0802103 	add	r2, r0, r3, lsl #2
    be10:	e08f1001 	add	r1, pc, r1
    be14:	e591c010 	ldr	ip, [r1, #16]
    be18:	e15c0002 	cmp	ip, r2
    be1c:	8afffcaa 	bhi	b0cc <malloc+0x810>
    be20:	e780e103 	str	lr, [r0, r3, lsl #2]
    be24:	e591300c 	ldr	r3, [r1, #12]
    be28:	e58e0018 	str	r0, [lr, #24]
    be2c:	e58ee00c 	str	lr, [lr, #12]
    be30:	e58ee008 	str	lr, [lr, #8]
    be34:	eafffd67 	b	b3d8 <malloc+0xb1c>
    be38:	e51f14b8 	ldr	r1, [pc, #-1208]	; b988 <malloc+0x10cc>
    be3c:	e08f1001 	add	r1, pc, r1
    be40:	e591200c 	ldr	r2, [r1, #12]
    be44:	e581c018 	str	ip, [r1, #24]
    be48:	e0833002 	add	r3, r3, r2
    be4c:	e581300c 	str	r3, [r1, #12]
    be50:	e3833001 	orr	r3, r3, #1
    be54:	e58c3004 	str	r3, [ip, #4]
    be58:	eaffff5f 	b	bbdc <malloc+0x1320>
    be5c:	e1a01423 	lsr	r1, r3, #8
    be60:	e3510801 	cmp	r1, #65536	; 0x10000
    be64:	2a00007b 	bcs	c058 <malloc+0x179c>
    be68:	e2412c01 	sub	r2, r1, #256	; 0x100
    be6c:	e3a00001 	mov	r0, #1
    be70:	e1a02822 	lsr	r2, r2, #16
    be74:	e2022008 	and	r2, r2, #8
    be78:	e1a01211 	lsl	r1, r1, r2
    be7c:	e241ea01 	sub	lr, r1, #4096	; 0x1000
    be80:	e1a0e82e 	lsr	lr, lr, #16
    be84:	e20ee004 	and	lr, lr, #4
    be88:	e182200e 	orr	r2, r2, lr
    be8c:	e1a01e11 	lsl	r1, r1, lr
    be90:	e241e901 	sub	lr, r1, #16384	; 0x4000
    be94:	e1a0e82e 	lsr	lr, lr, #16
    be98:	e20ee002 	and	lr, lr, #2
    be9c:	e082200e 	add	r2, r2, lr
    bea0:	e1a01e11 	lsl	r1, r1, lr
    bea4:	e06227a1 	rsb	r2, r2, r1, lsr #15
    bea8:	e2821015 	add	r1, r2, #21
    beac:	e282200e 	add	r2, r2, #14
    beb0:	e1a01133 	lsr	r1, r3, r1
    beb4:	e0011000 	and	r1, r1, r0
    beb8:	e0811012 	add	r1, r1, r2, lsl r0
    bebc:	e281604c 	add	r6, r1, #76	; 0x4c
    bec0:	e1a00110 	lsl	r0, r0, r1
    bec4:	e1a07106 	lsl	r7, r6, #2
    bec8:	e51fe544 	ldr	lr, [pc, #-1348]	; b98c <malloc+0x10d0>
    becc:	e3a02000 	mov	r2, #0
    bed0:	e58c101c 	str	r1, [ip, #28]
    bed4:	e08fe00e 	add	lr, pc, lr
    bed8:	e58c2014 	str	r2, [ip, #20]
    bedc:	e58c2010 	str	r2, [ip, #16]
    bee0:	e59e4004 	ldr	r4, [lr, #4]
    bee4:	e1100004 	tst	r0, r4
    bee8:	0a000064 	beq	c080 <malloc+0x17c4>
    beec:	e351001f 	cmp	r1, #31
    bef0:	e79ee106 	ldr	lr, [lr, r6, lsl #2]
    bef4:	11a020a1 	lsrne	r2, r1, #1
    bef8:	12622019 	rsbne	r2, r2, #25
    befc:	e1a01213 	lsl	r1, r3, r2
    bf00:	ea000006 	b	bf20 <malloc+0x1664>
    bf04:	e1a02fa1 	lsr	r2, r1, #31
    bf08:	e1a01081 	lsl	r1, r1, #1
    bf0c:	e2822004 	add	r2, r2, #4
    bf10:	e79e0102 	ldr	r0, [lr, r2, lsl #2]
    bf14:	e3500000 	cmp	r0, #0
    bf18:	0a0000b2 	beq	c1e8 <malloc+0x192c>
    bf1c:	e1a0e000 	mov	lr, r0
    bf20:	e59e2004 	ldr	r2, [lr, #4]
    bf24:	e3c22007 	bic	r2, r2, #7
    bf28:	e1530002 	cmp	r3, r2
    bf2c:	1afffff4 	bne	bf04 <malloc+0x1648>
    bf30:	e51f25a8 	ldr	r2, [pc, #-1448]	; b990 <malloc+0x10d4>
    bf34:	e59e3008 	ldr	r3, [lr, #8]
    bf38:	e08f2002 	add	r2, pc, r2
    bf3c:	e5922010 	ldr	r2, [r2, #16]
    bf40:	e1530002 	cmp	r3, r2
    bf44:	215e0002 	cmpcs	lr, r2
    bf48:	3afffc5f 	bcc	b0cc <malloc+0x810>
    bf4c:	e583c00c 	str	ip, [r3, #12]
    bf50:	e3a02000 	mov	r2, #0
    bf54:	e58ec008 	str	ip, [lr, #8]
    bf58:	e58c3008 	str	r3, [ip, #8]
    bf5c:	e58ce00c 	str	lr, [ip, #12]
    bf60:	e58c2018 	str	r2, [ip, #24]
    bf64:	eaffff1c 	b	bbdc <malloc+0x1320>
    bf68:	e1a00006 	mov	r0, r6
    bf6c:	ebfff994 	bl	a5c4 <sbrk>
    bf70:	e1a05000 	mov	r5, r0
    bf74:	e1570000 	cmp	r7, r0
    bf78:	1afffdb7 	bne	b65c <malloc+0xda0>
    bf7c:	eafffb51 	b	acc8 <malloc+0x40c>
    bf80:	e5912008 	ldr	r2, [r1, #8]
    bf84:	e581c014 	str	ip, [r1, #20]
    bf88:	e0833002 	add	r3, r3, r2
    bf8c:	e5813008 	str	r3, [r1, #8]
    bf90:	e3832001 	orr	r2, r3, #1
    bf94:	e58c2004 	str	r2, [ip, #4]
    bf98:	e78c3003 	str	r3, [ip, r3]
    bf9c:	eaffff0e 	b	bbdc <malloc+0x1320>
    bfa0:	e3c00007 	bic	r0, r0, #7
    bfa4:	e592e00c 	ldr	lr, [r2, #12]
    bfa8:	e1a061a0 	lsr	r6, r0, #3
    bfac:	e356001f 	cmp	r6, #31
    bfb0:	8a000053 	bhi	c104 <malloc+0x1848>
    bfb4:	e15e0002 	cmp	lr, r2
    bfb8:	e5924008 	ldr	r4, [r2, #8]
    bfbc:	0afffc42 	beq	b0cc <malloc+0x810>
    bfc0:	e1540002 	cmp	r4, r2
    bfc4:	0afffc40 	beq	b0cc <malloc+0x810>
    bfc8:	e0811186 	add	r1, r1, r6, lsl #3
    bfcc:	e2811028 	add	r1, r1, #40	; 0x28
    bfd0:	e1540001 	cmp	r4, r1
    bfd4:	1afffc34 	bne	b0ac <malloc+0x7f0>
    bfd8:	e154000e 	cmp	r4, lr
    bfdc:	0a0000b2 	beq	c2ac <malloc+0x19f0>
    bfe0:	e151000e 	cmp	r1, lr
    bfe4:	1a0000b7 	bne	c2c8 <malloc+0x1a0c>
    bfe8:	e584e00c 	str	lr, [r4, #12]
    bfec:	e58e4008 	str	r4, [lr, #8]
    bff0:	e0822000 	add	r2, r2, r0
    bff4:	e0833000 	add	r3, r3, r0
    bff8:	e3830001 	orr	r0, r3, #1
    bffc:	e1a0e1a3 	lsr	lr, r3, #3
    c000:	e5921004 	ldr	r1, [r2, #4]
    c004:	e35e001f 	cmp	lr, #31
    c008:	e3c11001 	bic	r1, r1, #1
    c00c:	e5821004 	str	r1, [r2, #4]
    c010:	e58c0004 	str	r0, [ip, #4]
    c014:	e78c3003 	str	r3, [ip, r3]
    c018:	8affff8f 	bhi	be5c <malloc+0x15a0>
    c01c:	e51f2690 	ldr	r2, [pc, #-1680]	; b994 <malloc+0x10d8>
    c020:	e353000f 	cmp	r3, #15
    c024:	e08f2002 	add	r2, pc, r2
    c028:	e082318e 	add	r3, r2, lr, lsl #3
    c02c:	e2833028 	add	r3, r3, #40	; 0x28
    c030:	8afffedc 	bhi	bba8 <malloc+0x12ec>
    c034:	eafffc24 	b	b0cc <malloc+0x810>
    c038:	e0812103 	add	r2, r1, r3, lsl #2
    c03c:	e1560002 	cmp	r6, r2
    c040:	8afffc21 	bhi	b0cc <malloc+0x810>
    c044:	e7817103 	str	r7, [r1, r3, lsl #2]
    c048:	e5871018 	str	r1, [r7, #24]
    c04c:	e587700c 	str	r7, [r7, #12]
    c050:	e5877008 	str	r7, [r7, #8]
    c054:	eafffbd0 	b	af9c <malloc+0x6e0>
    c058:	e3a07f6b 	mov	r7, #428	; 0x1ac
    c05c:	e3a00102 	mov	r0, #-2147483648	; 0x80000000
    c060:	e3a0101f 	mov	r1, #31
    c064:	e3a0606b 	mov	r6, #107	; 0x6b
    c068:	eaffff96 	b	bec8 <malloc+0x160c>
    c06c:	e5911010 	ldr	r1, [r1, #16]
    c070:	e5932008 	ldr	r2, [r3, #8]
    c074:	e1520001 	cmp	r2, r1
    c078:	2afffed4 	bcs	bbd0 <malloc+0x1314>
    c07c:	eafffc12 	b	b0cc <malloc+0x810>
    c080:	e78ec106 	str	ip, [lr, r6, lsl #2]
    c084:	e1800004 	orr	r0, r0, r4
    c088:	e58cc00c 	str	ip, [ip, #12]
    c08c:	e58e0004 	str	r0, [lr, #4]
    c090:	e08ee007 	add	lr, lr, r7
    c094:	e58cc008 	str	ip, [ip, #8]
    c098:	e58ce018 	str	lr, [ip, #24]
    c09c:	eafffece 	b	bbdc <malloc+0x1320>
    c0a0:	e3590000 	cmp	r9, #0
    c0a4:	0afffbb4 	beq	af7c <malloc+0x6c0>
    c0a8:	e590e01c 	ldr	lr, [r0, #28]
    c0ac:	e28e204c 	add	r2, lr, #76	; 0x4c
    c0b0:	e79c3102 	ldr	r3, [ip, r2, lsl #2]
    c0b4:	e1530000 	cmp	r3, r0
    c0b8:	13a02000 	movne	r2, #0
    c0bc:	1afffb95 	bne	af18 <malloc+0x65c>
    c0c0:	e51f3730 	ldr	r3, [pc, #-1840]	; b998 <malloc+0x10dc>
    c0c4:	e3a0c001 	mov	ip, #1
    c0c8:	e08f3003 	add	r3, pc, r3
    c0cc:	e1c11e1c 	bic	r1, r1, ip, lsl lr
    c0d0:	e3a0c000 	mov	ip, #0
    c0d4:	e5831004 	str	r1, [r3, #4]
    c0d8:	e783c102 	str	ip, [r3, r2, lsl #2]
    c0dc:	eafffba6 	b	af7c <malloc+0x6c0>
    c0e0:	e5932008 	ldr	r2, [r3, #8]
    c0e4:	e1590002 	cmp	r9, r2
    c0e8:	9afffc7c 	bls	b2e0 <malloc+0xa24>
    c0ec:	eafffbf6 	b	b0cc <malloc+0x810>
    c0f0:	e5901010 	ldr	r1, [r0, #16]
    c0f4:	e3510000 	cmp	r1, #0
    c0f8:	0a000045 	beq	c214 <malloc+0x1958>
    c0fc:	e2803010 	add	r3, r0, #16
    c100:	eaffff0c 	b	bd38 <malloc+0x147c>
    c104:	e15e0002 	cmp	lr, r2
    c108:	e5927018 	ldr	r7, [r2, #24]
    c10c:	0a000050 	beq	c254 <malloc+0x1998>
    c110:	e5914010 	ldr	r4, [r1, #16]
    c114:	e5921008 	ldr	r1, [r2, #8]
    c118:	e1510004 	cmp	r1, r4
    c11c:	3afffbea 	bcc	b0cc <malloc+0x810>
    c120:	e591400c 	ldr	r4, [r1, #12]
    c124:	e1540002 	cmp	r4, r2
    c128:	1afffbe7 	bne	b0cc <malloc+0x810>
    c12c:	e59e6008 	ldr	r6, [lr, #8]
    c130:	e1540006 	cmp	r4, r6
    c134:	1afffbe4 	bne	b0cc <malloc+0x810>
    c138:	e581e00c 	str	lr, [r1, #12]
    c13c:	e58e1008 	str	r1, [lr, #8]
    c140:	e3570000 	cmp	r7, #0
    c144:	0affffa9 	beq	bff0 <malloc+0x1734>
    c148:	e592101c 	ldr	r1, [r2, #28]
    c14c:	e51f47b8 	ldr	r4, [pc, #-1976]	; b99c <malloc+0x10e0>
    c150:	e281104c 	add	r1, r1, #76	; 0x4c
    c154:	e08f4004 	add	r4, pc, r4
    c158:	e7946101 	ldr	r6, [r4, r1, lsl #2]
    c15c:	e1560002 	cmp	r6, r2
    c160:	0784e101 	streq	lr, [r4, r1, lsl #2]
    c164:	0a00000a 	beq	c194 <malloc+0x18d8>
    c168:	e51f17d0 	ldr	r1, [pc, #-2000]	; b9a0 <malloc+0x10e4>
    c16c:	e08f1001 	add	r1, pc, r1
    c170:	e5911010 	ldr	r1, [r1, #16]
    c174:	e1570001 	cmp	r7, r1
    c178:	3afffbd3 	bcc	b0cc <malloc+0x810>
    c17c:	e5971010 	ldr	r1, [r7, #16]
    c180:	e1510002 	cmp	r1, r2
    c184:	0587e010 	streq	lr, [r7, #16]
    c188:	1587e014 	strne	lr, [r7, #20]
    c18c:	e35e0000 	cmp	lr, #0
    c190:	0affff96 	beq	bff0 <malloc+0x1734>
    c194:	e51f17f8 	ldr	r1, [pc, #-2040]	; b9a4 <malloc+0x10e8>
    c198:	e08f1001 	add	r1, pc, r1
    c19c:	e5914010 	ldr	r4, [r1, #16]
    c1a0:	e15e0004 	cmp	lr, r4
    c1a4:	3afffbc8 	bcc	b0cc <malloc+0x810>
    c1a8:	e5921010 	ldr	r1, [r2, #16]
    c1ac:	e58e7018 	str	r7, [lr, #24]
    c1b0:	e3510000 	cmp	r1, #0
    c1b4:	0a000003 	beq	c1c8 <malloc+0x190c>
    c1b8:	e1540001 	cmp	r4, r1
    c1bc:	8afffbc2 	bhi	b0cc <malloc+0x810>
    c1c0:	e58e1010 	str	r1, [lr, #16]
    c1c4:	e581e018 	str	lr, [r1, #24]
    c1c8:	e5921014 	ldr	r1, [r2, #20]
    c1cc:	e3510000 	cmp	r1, #0
    c1d0:	0affff86 	beq	bff0 <malloc+0x1734>
    c1d4:	e1540001 	cmp	r4, r1
    c1d8:	8afffbbb 	bhi	b0cc <malloc+0x810>
    c1dc:	e58e1014 	str	r1, [lr, #20]
    c1e0:	e581e018 	str	lr, [r1, #24]
    c1e4:	eaffff81 	b	bff0 <malloc+0x1734>
    c1e8:	e51f1848 	ldr	r1, [pc, #-2120]	; b9a8 <malloc+0x10ec>
    c1ec:	e08e3102 	add	r3, lr, r2, lsl #2
    c1f0:	e08f1001 	add	r1, pc, r1
    c1f4:	e5911010 	ldr	r1, [r1, #16]
    c1f8:	e1510003 	cmp	r1, r3
    c1fc:	8afffbb2 	bhi	b0cc <malloc+0x810>
    c200:	e78ec102 	str	ip, [lr, r2, lsl #2]
    c204:	e58ce018 	str	lr, [ip, #24]
    c208:	e58cc00c 	str	ip, [ip, #12]
    c20c:	e58cc008 	str	ip, [ip, #8]
    c210:	eafffe71 	b	bbdc <malloc+0x1320>
    c214:	e35a0000 	cmp	sl, #0
    c218:	0afffc18 	beq	b280 <malloc+0x9c4>
    c21c:	e590601c 	ldr	r6, [r0, #28]
    c220:	e286104c 	add	r1, r6, #76	; 0x4c
    c224:	e79b3101 	ldr	r3, [fp, r1, lsl #2]
    c228:	e1500003 	cmp	r0, r3
    c22c:	13a06000 	movne	r6, #0
    c230:	1afffbf9 	bne	b21c <malloc+0x960>
    c234:	e51f3890 	ldr	r3, [pc, #-2192]	; b9ac <malloc+0x10f0>
    c238:	e3a0a001 	mov	sl, #1
    c23c:	e08f3003 	add	r3, pc, r3
    c240:	e1c5561a 	bic	r5, r5, sl, lsl r6
    c244:	e3a06000 	mov	r6, #0
    c248:	e5835004 	str	r5, [r3, #4]
    c24c:	e7836101 	str	r6, [r3, r1, lsl #2]
    c250:	eafffc0a 	b	b280 <malloc+0x9c4>
    c254:	e592e014 	ldr	lr, [r2, #20]
    c258:	e2821014 	add	r1, r2, #20
    c25c:	e35e0000 	cmp	lr, #0
    c260:	0a000021 	beq	c2ec <malloc+0x1a30>
    c264:	e1a0400e 	mov	r4, lr
    c268:	e1a06001 	mov	r6, r1
    c26c:	e1a01004 	mov	r1, r4
    c270:	e1a0e004 	mov	lr, r4
    c274:	e5b14014 	ldr	r4, [r1, #20]!
    c278:	e3540000 	cmp	r4, #0
    c27c:	1afffff9 	bne	c268 <malloc+0x19ac>
    c280:	e1a0100e 	mov	r1, lr
    c284:	e5b14010 	ldr	r4, [r1, #16]!
    c288:	e3540000 	cmp	r4, #0
    c28c:	1afffff5 	bne	c268 <malloc+0x19ac>
    c290:	e51f18e8 	ldr	r1, [pc, #-2280]	; b9b0 <malloc+0x10f4>
    c294:	e08f1001 	add	r1, pc, r1
    c298:	e5911010 	ldr	r1, [r1, #16]
    c29c:	e1510006 	cmp	r1, r6
    c2a0:	8afffb89 	bhi	b0cc <malloc+0x810>
    c2a4:	e5864000 	str	r4, [r6]
    c2a8:	eaffffa4 	b	c140 <malloc+0x1884>
    c2ac:	e51fe900 	ldr	lr, [pc, #-2304]	; b9b4 <malloc+0x10f8>
    c2b0:	e3a04001 	mov	r4, #1
    c2b4:	e08fe00e 	add	lr, pc, lr
    c2b8:	e59e1000 	ldr	r1, [lr]
    c2bc:	e1c16614 	bic	r6, r1, r4, lsl r6
    c2c0:	e58e6000 	str	r6, [lr]
    c2c4:	eaffff49 	b	bff0 <malloc+0x1734>
    c2c8:	e51f1918 	ldr	r1, [pc, #-2328]	; b9b8 <malloc+0x10fc>
    c2cc:	e08f1001 	add	r1, pc, r1
    c2d0:	e5911010 	ldr	r1, [r1, #16]
    c2d4:	e151000e 	cmp	r1, lr
    c2d8:	8afffb7b 	bhi	b0cc <malloc+0x810>
    c2dc:	e59e1008 	ldr	r1, [lr, #8]
    c2e0:	e1510002 	cmp	r1, r2
    c2e4:	0affff3f 	beq	bfe8 <malloc+0x172c>
    c2e8:	eafffb77 	b	b0cc <malloc+0x810>
    c2ec:	e592e010 	ldr	lr, [r2, #16]
    c2f0:	e2821010 	add	r1, r2, #16
    c2f4:	e35e0000 	cmp	lr, #0
    c2f8:	1affffd9 	bne	c264 <malloc+0x19a8>
    c2fc:	e3570000 	cmp	r7, #0
    c300:	0affff3a 	beq	bff0 <malloc+0x1734>
    c304:	e592401c 	ldr	r4, [r2, #28]
    c308:	e51f1954 	ldr	r1, [pc, #-2388]	; b9bc <malloc+0x1100>
    c30c:	e284604c 	add	r6, r4, #76	; 0x4c
    c310:	e08f1001 	add	r1, pc, r1
    c314:	e7918106 	ldr	r8, [r1, r6, lsl #2]
    c318:	e1580002 	cmp	r8, r2
    c31c:	1affff91 	bne	c168 <malloc+0x18ac>
    c320:	e591e004 	ldr	lr, [r1, #4]
    c324:	e3a07001 	mov	r7, #1
    c328:	e3a08000 	mov	r8, #0
    c32c:	e7818106 	str	r8, [r1, r6, lsl #2]
    c330:	e1cee417 	bic	lr, lr, r7, lsl r4
    c334:	e581e004 	str	lr, [r1, #4]
    c338:	eaffff2c 	b	bff0 <malloc+0x1734>
    c33c:	e51f3984 	ldr	r3, [pc, #-2436]	; b9c0 <malloc+0x1104>
    c340:	e08f3003 	add	r3, pc, r3
    c344:	e5933000 	ldr	r3, [r3]
    c348:	e3530000 	cmp	r3, #0
    c34c:	1afffa2b 	bne	ac00 <malloc+0x344>
    c350:	eafffa29 	b	abfc <malloc+0x340>
    c354:	e51f3998 	ldr	r3, [pc, #-2456]	; b9c4 <malloc+0x1108>
    c358:	e08f3003 	add	r3, pc, r3
    c35c:	e593e1bc 	ldr	lr, [r3, #444]	; 0x1bc
    c360:	eafffb49 	b	b08c <malloc+0x7d0>

0000c364 <free>:
    c364:	e3500000 	cmp	r0, #0
    c368:	012fff1e 	bxeq	lr
    c36c:	e92d41f0 	push	{r4, r5, r6, r7, r8, lr}
    c370:	e2403008 	sub	r3, r0, #8
    c374:	e59f47bc 	ldr	r4, [pc, #1980]	; cb38 <free+0x7d4>
    c378:	e08f4004 	add	r4, pc, r4
    c37c:	e594e010 	ldr	lr, [r4, #16]
    c380:	e15e0003 	cmp	lr, r3
    c384:	8a00004e 	bhi	c4c4 <free+0x160>
    c388:	e5101004 	ldr	r1, [r0, #-4]
    c38c:	e2015003 	and	r5, r1, #3
    c390:	e3550001 	cmp	r5, #1
    c394:	0a00004a 	beq	c4c4 <free+0x160>
    c398:	e3c12007 	bic	r2, r1, #7
    c39c:	e3110001 	tst	r1, #1
    c3a0:	e083c002 	add	ip, r3, r2
    c3a4:	0a000021 	beq	c430 <free+0xcc>
    c3a8:	e153000c 	cmp	r3, ip
    c3ac:	2a000044 	bcs	c4c4 <free+0x160>
    c3b0:	e59c1004 	ldr	r1, [ip, #4]
    c3b4:	e3110001 	tst	r1, #1
    c3b8:	0a000041 	beq	c4c4 <free+0x160>
    c3bc:	e2110002 	ands	r0, r1, #2
    c3c0:	0a000041 	beq	c4cc <free+0x168>
    c3c4:	e3c11001 	bic	r1, r1, #1
    c3c8:	e3820001 	orr	r0, r2, #1
    c3cc:	e58c1004 	str	r1, [ip, #4]
    c3d0:	e5830004 	str	r0, [r3, #4]
    c3d4:	e7832002 	str	r2, [r3, r2]
    c3d8:	e1a011a2 	lsr	r1, r2, #3
    c3dc:	e351001f 	cmp	r1, #31
    c3e0:	8a00008a 	bhi	c610 <free+0x2ac>
    c3e4:	e59fc750 	ldr	ip, [pc, #1872]	; cb3c <free+0x7d8>
    c3e8:	e352000f 	cmp	r2, #15
    c3ec:	e08fc00c 	add	ip, pc, ip
    c3f0:	e08c2181 	add	r2, ip, r1, lsl #3
    c3f4:	e2822028 	add	r2, r2, #40	; 0x28
    c3f8:	9a000082 	bls	c608 <free+0x2a4>
    c3fc:	e3a00001 	mov	r0, #1
    c400:	e59ce000 	ldr	lr, [ip]
    c404:	e1a01110 	lsl	r1, r0, r1
    c408:	e11e0001 	tst	lr, r1
    c40c:	1a000079 	bne	c5f8 <free+0x294>
    c410:	e1a00002 	mov	r0, r2
    c414:	e18e1001 	orr	r1, lr, r1
    c418:	e58c1000 	str	r1, [ip]
    c41c:	e5823008 	str	r3, [r2, #8]
    c420:	e580300c 	str	r3, [r0, #12]
    c424:	e5830008 	str	r0, [r3, #8]
    c428:	e583200c 	str	r2, [r3, #12]
    c42c:	e8bd81f0 	pop	{r4, r5, r6, r7, r8, pc}
    c430:	e3550000 	cmp	r5, #0
    c434:	08bd81f0 	popeq	{r4, r5, r6, r7, r8, pc}
    c438:	e5100008 	ldr	r0, [r0, #-8]
    c43c:	e0433000 	sub	r3, r3, r0
    c440:	e0822000 	add	r2, r2, r0
    c444:	e15e0003 	cmp	lr, r3
    c448:	8a00001d 	bhi	c4c4 <free+0x160>
    c44c:	e5941014 	ldr	r1, [r4, #20]
    c450:	e1510003 	cmp	r1, r3
    c454:	0a00012f 	beq	c918 <free+0x5b4>
    c458:	e1a051a0 	lsr	r5, r0, #3
    c45c:	e593100c 	ldr	r1, [r3, #12]
    c460:	e355001f 	cmp	r5, #31
    c464:	8a000087 	bhi	c688 <free+0x324>
    c468:	e1510003 	cmp	r1, r3
    c46c:	e5934008 	ldr	r4, [r3, #8]
    c470:	0a000064 	beq	c608 <free+0x2a4>
    c474:	e1530004 	cmp	r3, r4
    c478:	0a000062 	beq	c608 <free+0x2a4>
    c47c:	e5936004 	ldr	r6, [r3, #4]
    c480:	e3c00007 	bic	r0, r0, #7
    c484:	e3c66007 	bic	r6, r6, #7
    c488:	e1560000 	cmp	r6, r0
    c48c:	1a00005d 	bne	c608 <free+0x2a4>
    c490:	e59f06a8 	ldr	r0, [pc, #1704]	; cb40 <free+0x7dc>
    c494:	e08f0000 	add	r0, pc, r0
    c498:	e0800185 	add	r0, r0, r5, lsl #3
    c49c:	e2800028 	add	r0, r0, #40	; 0x28
    c4a0:	e1500004 	cmp	r0, r4
    c4a4:	1a0000e4 	bne	c83c <free+0x4d8>
    c4a8:	e1510004 	cmp	r1, r4
    c4ac:	0a000137 	beq	c990 <free+0x62c>
    c4b0:	e1500001 	cmp	r0, r1
    c4b4:	1a000171 	bne	ca80 <free+0x71c>
    c4b8:	e584100c 	str	r1, [r4, #12]
    c4bc:	e5814008 	str	r4, [r1, #8]
    c4c0:	eaffffb8 	b	c3a8 <free+0x44>
    c4c4:	e3e00000 	mvn	r0, #0
    c4c8:	ebffeecc 	bl	8000 <exit>
    c4cc:	e59f4670 	ldr	r4, [pc, #1648]	; cb44 <free+0x7e0>
    c4d0:	e08f4004 	add	r4, pc, r4
    c4d4:	e5946018 	ldr	r6, [r4, #24]
    c4d8:	e5945014 	ldr	r5, [r4, #20]
    c4dc:	e156000c 	cmp	r6, ip
    c4e0:	0a0000fb 	beq	c8d4 <free+0x570>
    c4e4:	e155000c 	cmp	r5, ip
    c4e8:	0a000115 	beq	c944 <free+0x5e0>
    c4ec:	e3c11007 	bic	r1, r1, #7
    c4f0:	e59c000c 	ldr	r0, [ip, #12]
    c4f4:	e0822001 	add	r2, r2, r1
    c4f8:	e1a011a1 	lsr	r1, r1, #3
    c4fc:	e351001f 	cmp	r1, #31
    c500:	9a000092 	bls	c750 <free+0x3ec>
    c504:	e150000c 	cmp	r0, ip
    c508:	e59c6018 	ldr	r6, [ip, #24]
    c50c:	0a000126 	beq	c9ac <free+0x648>
    c510:	e59c1008 	ldr	r1, [ip, #8]
    c514:	e15e0001 	cmp	lr, r1
    c518:	8a00003a 	bhi	c608 <free+0x2a4>
    c51c:	e591400c 	ldr	r4, [r1, #12]
    c520:	e154000c 	cmp	r4, ip
    c524:	1a000037 	bne	c608 <free+0x2a4>
    c528:	e5904008 	ldr	r4, [r0, #8]
    c52c:	e154000c 	cmp	r4, ip
    c530:	1a000034 	bne	c608 <free+0x2a4>
    c534:	e581000c 	str	r0, [r1, #12]
    c538:	e5801008 	str	r1, [r0, #8]
    c53c:	e3560000 	cmp	r6, #0
    c540:	0a000132 	beq	ca10 <free+0x6ac>
    c544:	e59c101c 	ldr	r1, [ip, #28]
    c548:	e59f45f8 	ldr	r4, [pc, #1528]	; cb48 <free+0x7e4>
    c54c:	e281104c 	add	r1, r1, #76	; 0x4c
    c550:	e08f4004 	add	r4, pc, r4
    c554:	e7945101 	ldr	r5, [r4, r1, lsl #2]
    c558:	e155000c 	cmp	r5, ip
    c55c:	07840101 	streq	r0, [r4, r1, lsl #2]
    c560:	0a000007 	beq	c584 <free+0x220>
    c564:	e15e0006 	cmp	lr, r6
    c568:	8a000026 	bhi	c608 <free+0x2a4>
    c56c:	e5961010 	ldr	r1, [r6, #16]
    c570:	e151000c 	cmp	r1, ip
    c574:	05860010 	streq	r0, [r6, #16]
    c578:	15860014 	strne	r0, [r6, #20]
    c57c:	e3500000 	cmp	r0, #0
    c580:	0a00012b 	beq	ca34 <free+0x6d0>
    c584:	e15e0000 	cmp	lr, r0
    c588:	8a00001e 	bhi	c608 <free+0x2a4>
    c58c:	e59c1010 	ldr	r1, [ip, #16]
    c590:	e5806018 	str	r6, [r0, #24]
    c594:	e3510000 	cmp	r1, #0
    c598:	0a000003 	beq	c5ac <free+0x248>
    c59c:	e15e0001 	cmp	lr, r1
    c5a0:	8a000018 	bhi	c608 <free+0x2a4>
    c5a4:	e5801010 	str	r1, [r0, #16]
    c5a8:	e5810018 	str	r0, [r1, #24]
    c5ac:	e59c1014 	ldr	r1, [ip, #20]
    c5b0:	e3510000 	cmp	r1, #0
    c5b4:	0a00012d 	beq	ca70 <free+0x70c>
    c5b8:	e15e0001 	cmp	lr, r1
    c5bc:	8a000011 	bhi	c608 <free+0x2a4>
    c5c0:	e59fc584 	ldr	ip, [pc, #1412]	; cb4c <free+0x7e8>
    c5c4:	e5801014 	str	r1, [r0, #20]
    c5c8:	e08fc00c 	add	ip, pc, ip
    c5cc:	e5810018 	str	r0, [r1, #24]
    c5d0:	e59c5014 	ldr	r5, [ip, #20]
    c5d4:	e3821001 	orr	r1, r2, #1
    c5d8:	e1530005 	cmp	r3, r5
    c5dc:	e5831004 	str	r1, [r3, #4]
    c5e0:	e7832002 	str	r2, [r3, r2]
    c5e4:	1affff7b 	bne	c3d8 <free+0x74>
    c5e8:	e59f3560 	ldr	r3, [pc, #1376]	; cb50 <free+0x7ec>
    c5ec:	e08f3003 	add	r3, pc, r3
    c5f0:	e5832008 	str	r2, [r3, #8]
    c5f4:	e8bd81f0 	pop	{r4, r5, r6, r7, r8, pc}
    c5f8:	e59c1010 	ldr	r1, [ip, #16]
    c5fc:	e5920008 	ldr	r0, [r2, #8]
    c600:	e1500001 	cmp	r0, r1
    c604:	2affff84 	bcs	c41c <free+0xb8>
    c608:	e3e00000 	mvn	r0, #0
    c60c:	ebffee7b 	bl	8000 <exit>
    c610:	e1a00422 	lsr	r0, r2, #8
    c614:	e3500801 	cmp	r0, #65536	; 0x10000
    c618:	3a00005c 	bcc	c790 <free+0x42c>
    c61c:	e3a0c102 	mov	ip, #-2147483648	; 0x80000000
    c620:	e3a05f6b 	mov	r5, #428	; 0x1ac
    c624:	e3a0101f 	mov	r1, #31
    c628:	e3a0406b 	mov	r4, #107	; 0x6b
    c62c:	e59f0520 	ldr	r0, [pc, #1312]	; cb54 <free+0x7f0>
    c630:	e3a0e000 	mov	lr, #0
    c634:	e583e014 	str	lr, [r3, #20]
    c638:	e08f0000 	add	r0, pc, r0
    c63c:	e583e010 	str	lr, [r3, #16]
    c640:	e583101c 	str	r1, [r3, #28]
    c644:	e590e004 	ldr	lr, [r0, #4]
    c648:	e11c000e 	tst	ip, lr
    c64c:	1a000080 	bne	c854 <free+0x4f0>
    c650:	e7803104 	str	r3, [r0, r4, lsl #2]
    c654:	e18cc00e 	orr	ip, ip, lr
    c658:	e583300c 	str	r3, [r3, #12]
    c65c:	e580c004 	str	ip, [r0, #4]
    c660:	e0800005 	add	r0, r0, r5
    c664:	e5833008 	str	r3, [r3, #8]
    c668:	e5830018 	str	r0, [r3, #24]
    c66c:	e59f24e4 	ldr	r2, [pc, #1252]	; cb58 <free+0x7f4>
    c670:	e08f2002 	add	r2, pc, r2
    c674:	e5923020 	ldr	r3, [r2, #32]
    c678:	e2533001 	subs	r3, r3, #1
    c67c:	03e03000 	mvneq	r3, #0
    c680:	e5823020 	str	r3, [r2, #32]
    c684:	e8bd81f0 	pop	{r4, r5, r6, r7, r8, pc}
    c688:	e1510003 	cmp	r1, r3
    c68c:	e5936018 	ldr	r6, [r3, #24]
    c690:	0a000057 	beq	c7f4 <free+0x490>
    c694:	e5930008 	ldr	r0, [r3, #8]
    c698:	e15e0000 	cmp	lr, r0
    c69c:	8affffd9 	bhi	c608 <free+0x2a4>
    c6a0:	e590400c 	ldr	r4, [r0, #12]
    c6a4:	e1540003 	cmp	r4, r3
    c6a8:	1affffd6 	bne	c608 <free+0x2a4>
    c6ac:	e5914008 	ldr	r4, [r1, #8]
    c6b0:	e1540003 	cmp	r4, r3
    c6b4:	1affffd3 	bne	c608 <free+0x2a4>
    c6b8:	e580100c 	str	r1, [r0, #12]
    c6bc:	e5810008 	str	r0, [r1, #8]
    c6c0:	e3560000 	cmp	r6, #0
    c6c4:	0affff37 	beq	c3a8 <free+0x44>
    c6c8:	e593001c 	ldr	r0, [r3, #28]
    c6cc:	e59f4488 	ldr	r4, [pc, #1160]	; cb5c <free+0x7f8>
    c6d0:	e280004c 	add	r0, r0, #76	; 0x4c
    c6d4:	e08f4004 	add	r4, pc, r4
    c6d8:	e7945100 	ldr	r5, [r4, r0, lsl #2]
    c6dc:	e1550003 	cmp	r5, r3
    c6e0:	07841100 	streq	r1, [r4, r0, lsl #2]
    c6e4:	0a000007 	beq	c708 <free+0x3a4>
    c6e8:	e15e0006 	cmp	lr, r6
    c6ec:	8affffc5 	bhi	c608 <free+0x2a4>
    c6f0:	e5960010 	ldr	r0, [r6, #16]
    c6f4:	e1500003 	cmp	r0, r3
    c6f8:	05861010 	streq	r1, [r6, #16]
    c6fc:	15861014 	strne	r1, [r6, #20]
    c700:	e3510000 	cmp	r1, #0
    c704:	0affff27 	beq	c3a8 <free+0x44>
    c708:	e15e0001 	cmp	lr, r1
    c70c:	8affffbd 	bhi	c608 <free+0x2a4>
    c710:	e5930010 	ldr	r0, [r3, #16]
    c714:	e5816018 	str	r6, [r1, #24]
    c718:	e3500000 	cmp	r0, #0
    c71c:	0a000003 	beq	c730 <free+0x3cc>
    c720:	e15e0000 	cmp	lr, r0
    c724:	8affffb7 	bhi	c608 <free+0x2a4>
    c728:	e5810010 	str	r0, [r1, #16]
    c72c:	e5801018 	str	r1, [r0, #24]
    c730:	e5930014 	ldr	r0, [r3, #20]
    c734:	e3500000 	cmp	r0, #0
    c738:	0affff1a 	beq	c3a8 <free+0x44>
    c73c:	e15e0000 	cmp	lr, r0
    c740:	8affffb0 	bhi	c608 <free+0x2a4>
    c744:	e5810014 	str	r0, [r1, #20]
    c748:	e5801018 	str	r1, [r0, #24]
    c74c:	eaffff15 	b	c3a8 <free+0x44>
    c750:	e150000c 	cmp	r0, ip
    c754:	e59c6008 	ldr	r6, [ip, #8]
    c758:	0affffaa 	beq	c608 <free+0x2a4>
    c75c:	e15c0006 	cmp	ip, r6
    c760:	0affffa8 	beq	c608 <free+0x2a4>
    c764:	e0844181 	add	r4, r4, r1, lsl #3
    c768:	e2844028 	add	r4, r4, #40	; 0x28
    c76c:	e1540006 	cmp	r4, r6
    c770:	1a0000b3 	bne	ca44 <free+0x6e0>
    c774:	e1500006 	cmp	r0, r6
    c778:	0a00009d 	beq	c9f4 <free+0x690>
    c77c:	e1500004 	cmp	r0, r4
    c780:	1a0000c4 	bne	ca98 <free+0x734>
    c784:	e586000c 	str	r0, [r6, #12]
    c788:	e5806008 	str	r6, [r0, #8]
    c78c:	eaffff90 	b	c5d4 <free+0x270>
    c790:	e2401c01 	sub	r1, r0, #256	; 0x100
    c794:	e3a0c001 	mov	ip, #1
    c798:	e1a01821 	lsr	r1, r1, #16
    c79c:	e2011008 	and	r1, r1, #8
    c7a0:	e1a0e110 	lsl	lr, r0, r1
    c7a4:	e24e4a01 	sub	r4, lr, #4096	; 0x1000
    c7a8:	e1a04824 	lsr	r4, r4, #16
    c7ac:	e2044004 	and	r4, r4, #4
    c7b0:	e1810004 	orr	r0, r1, r4
    c7b4:	e1a0141e 	lsl	r1, lr, r4
    c7b8:	e241e901 	sub	lr, r1, #16384	; 0x4000
    c7bc:	e1a0e82e 	lsr	lr, lr, #16
    c7c0:	e20ee002 	and	lr, lr, #2
    c7c4:	e080000e 	add	r0, r0, lr
    c7c8:	e1a01e11 	lsl	r1, r1, lr
    c7cc:	e06007a1 	rsb	r0, r0, r1, lsr #15
    c7d0:	e2801015 	add	r1, r0, #21
    c7d4:	e280000e 	add	r0, r0, #14
    c7d8:	e1a01132 	lsr	r1, r2, r1
    c7dc:	e001100c 	and	r1, r1, ip
    c7e0:	e0811c10 	add	r1, r1, r0, lsl ip
    c7e4:	e281404c 	add	r4, r1, #76	; 0x4c
    c7e8:	e1a0c11c 	lsl	ip, ip, r1
    c7ec:	e1a05104 	lsl	r5, r4, #2
    c7f0:	eaffff8d 	b	c62c <free+0x2c8>
    c7f4:	e5934014 	ldr	r4, [r3, #20]
    c7f8:	e3540000 	cmp	r4, #0
    c7fc:	12830014 	addne	r0, r3, #20
    c800:	0a000086 	beq	ca20 <free+0x6bc>
    c804:	e1a05000 	mov	r5, r0
    c808:	e1a00004 	mov	r0, r4
    c80c:	e1a01004 	mov	r1, r4
    c810:	e5b04014 	ldr	r4, [r0, #20]!
    c814:	e3540000 	cmp	r4, #0
    c818:	1afffff9 	bne	c804 <free+0x4a0>
    c81c:	e1a00001 	mov	r0, r1
    c820:	e5b04010 	ldr	r4, [r0, #16]!
    c824:	e3540000 	cmp	r4, #0
    c828:	1afffff5 	bne	c804 <free+0x4a0>
    c82c:	e15e0005 	cmp	lr, r5
    c830:	8affff74 	bhi	c608 <free+0x2a4>
    c834:	e5854000 	str	r4, [r5]
    c838:	eaffffa0 	b	c6c0 <free+0x35c>
    c83c:	e15e0004 	cmp	lr, r4
    c840:	8affff70 	bhi	c608 <free+0x2a4>
    c844:	e594600c 	ldr	r6, [r4, #12]
    c848:	e1560003 	cmp	r6, r3
    c84c:	0affff15 	beq	c4a8 <free+0x144>
    c850:	eaffff6c 	b	c608 <free+0x2a4>
    c854:	e351001f 	cmp	r1, #31
    c858:	e790c104 	ldr	ip, [r0, r4, lsl #2]
    c85c:	11a000a1 	lsrne	r0, r1, #1
    c860:	01a00002 	moveq	r0, r2
    c864:	12600019 	rsbne	r0, r0, #25
    c868:	11a00012 	lslne	r0, r2, r0
    c86c:	ea000006 	b	c88c <free+0x528>
    c870:	e1a01fa0 	lsr	r1, r0, #31
    c874:	e1a00080 	lsl	r0, r0, #1
    c878:	e2811004 	add	r1, r1, #4
    c87c:	e79ce101 	ldr	lr, [ip, r1, lsl #2]
    c880:	e35e0000 	cmp	lr, #0
    c884:	0a000036 	beq	c964 <free+0x600>
    c888:	e1a0c00e 	mov	ip, lr
    c88c:	e59c1004 	ldr	r1, [ip, #4]
    c890:	e3c11007 	bic	r1, r1, #7
    c894:	e1510002 	cmp	r1, r2
    c898:	1afffff4 	bne	c870 <free+0x50c>
    c89c:	e59f22bc 	ldr	r2, [pc, #700]	; cb60 <free+0x7fc>
    c8a0:	e59c1008 	ldr	r1, [ip, #8]
    c8a4:	e08f2002 	add	r2, pc, r2
    c8a8:	e5922010 	ldr	r2, [r2, #16]
    c8ac:	e1520001 	cmp	r2, r1
    c8b0:	9152000c 	cmpls	r2, ip
    c8b4:	8affff53 	bhi	c608 <free+0x2a4>
    c8b8:	e581300c 	str	r3, [r1, #12]
    c8bc:	e3a02000 	mov	r2, #0
    c8c0:	e58c3008 	str	r3, [ip, #8]
    c8c4:	e5831008 	str	r1, [r3, #8]
    c8c8:	e583c00c 	str	ip, [r3, #12]
    c8cc:	e5832018 	str	r2, [r3, #24]
    c8d0:	eaffff65 	b	c66c <free+0x308>
    c8d4:	e594100c 	ldr	r1, [r4, #12]
    c8d8:	e1530005 	cmp	r3, r5
    c8dc:	e5843018 	str	r3, [r4, #24]
    c8e0:	e0822001 	add	r2, r2, r1
    c8e4:	e584200c 	str	r2, [r4, #12]
    c8e8:	e3821001 	orr	r1, r2, #1
    c8ec:	e5831004 	str	r1, [r3, #4]
    c8f0:	e59f326c 	ldr	r3, [pc, #620]	; cb64 <free+0x800>
    c8f4:	05840014 	streq	r0, [r4, #20]
    c8f8:	e08f3003 	add	r3, pc, r3
    c8fc:	05840008 	streq	r0, [r4, #8]
    c900:	e593301c 	ldr	r3, [r3, #28]
    c904:	e1520003 	cmp	r2, r3
    c908:	98bd81f0 	popls	{r4, r5, r6, r7, r8, pc}
    c90c:	e3a00000 	mov	r0, #0
    c910:	e8bd41f0 	pop	{r4, r5, r6, r7, r8, lr}
    c914:	eafff76b 	b	a6c8 <sys_trim.constprop.7>
    c918:	e59c0004 	ldr	r0, [ip, #4]
    c91c:	e2005003 	and	r5, r0, #3
    c920:	e3550003 	cmp	r5, #3
    c924:	1afffe9f 	bne	c3a8 <free+0x44>
    c928:	e5842008 	str	r2, [r4, #8]
    c92c:	e3c00001 	bic	r0, r0, #1
    c930:	e3823001 	orr	r3, r2, #1
    c934:	e58c0004 	str	r0, [ip, #4]
    c938:	e5813004 	str	r3, [r1, #4]
    c93c:	e58c2000 	str	r2, [ip]
    c940:	e8bd81f0 	pop	{r4, r5, r6, r7, r8, pc}
    c944:	e5941008 	ldr	r1, [r4, #8]
    c948:	e5843014 	str	r3, [r4, #20]
    c94c:	e0822001 	add	r2, r2, r1
    c950:	e5842008 	str	r2, [r4, #8]
    c954:	e3821001 	orr	r1, r2, #1
    c958:	e5831004 	str	r1, [r3, #4]
    c95c:	e7832002 	str	r2, [r3, r2]
    c960:	e8bd81f0 	pop	{r4, r5, r6, r7, r8, pc}
    c964:	e59f01fc 	ldr	r0, [pc, #508]	; cb68 <free+0x804>
    c968:	e08c2101 	add	r2, ip, r1, lsl #2
    c96c:	e08f0000 	add	r0, pc, r0
    c970:	e5900010 	ldr	r0, [r0, #16]
    c974:	e1500002 	cmp	r0, r2
    c978:	8affff22 	bhi	c608 <free+0x2a4>
    c97c:	e78c3101 	str	r3, [ip, r1, lsl #2]
    c980:	e583c018 	str	ip, [r3, #24]
    c984:	e583300c 	str	r3, [r3, #12]
    c988:	e5833008 	str	r3, [r3, #8]
    c98c:	eaffff36 	b	c66c <free+0x308>
    c990:	e59f01d4 	ldr	r0, [pc, #468]	; cb6c <free+0x808>
    c994:	e3a04001 	mov	r4, #1
    c998:	e08f0000 	add	r0, pc, r0
    c99c:	e5901000 	ldr	r1, [r0]
    c9a0:	e1c15514 	bic	r5, r1, r4, lsl r5
    c9a4:	e5805000 	str	r5, [r0]
    c9a8:	eafffe7e 	b	c3a8 <free+0x44>
    c9ac:	e59c4014 	ldr	r4, [ip, #20]
    c9b0:	e3540000 	cmp	r4, #0
    c9b4:	128c1014 	addne	r1, ip, #20
    c9b8:	0a000027 	beq	ca5c <free+0x6f8>
    c9bc:	e1a05001 	mov	r5, r1
    c9c0:	e1a01004 	mov	r1, r4
    c9c4:	e1a00004 	mov	r0, r4
    c9c8:	e5b14014 	ldr	r4, [r1, #20]!
    c9cc:	e3540000 	cmp	r4, #0
    c9d0:	1afffff9 	bne	c9bc <free+0x658>
    c9d4:	e1a01000 	mov	r1, r0
    c9d8:	e5b14010 	ldr	r4, [r1, #16]!
    c9dc:	e3540000 	cmp	r4, #0
    c9e0:	1afffff5 	bne	c9bc <free+0x658>
    c9e4:	e15e0005 	cmp	lr, r5
    c9e8:	8affff06 	bhi	c608 <free+0x2a4>
    c9ec:	e5854000 	str	r4, [r5]
    c9f0:	eafffed1 	b	c53c <free+0x1d8>
    c9f4:	e59fc174 	ldr	ip, [pc, #372]	; cb70 <free+0x80c>
    c9f8:	e3a0e001 	mov	lr, #1
    c9fc:	e08fc00c 	add	ip, pc, ip
    ca00:	e59c0000 	ldr	r0, [ip]
    ca04:	e1c0111e 	bic	r1, r0, lr, lsl r1
    ca08:	e58c1000 	str	r1, [ip]
    ca0c:	eafffef0 	b	c5d4 <free+0x270>
    ca10:	e59f115c 	ldr	r1, [pc, #348]	; cb74 <free+0x810>
    ca14:	e08f1001 	add	r1, pc, r1
    ca18:	e5915014 	ldr	r5, [r1, #20]
    ca1c:	eafffeec 	b	c5d4 <free+0x270>
    ca20:	e5934010 	ldr	r4, [r3, #16]
    ca24:	e3540000 	cmp	r4, #0
    ca28:	0a000020 	beq	cab0 <free+0x74c>
    ca2c:	e2830010 	add	r0, r3, #16
    ca30:	eaffff73 	b	c804 <free+0x4a0>
    ca34:	e59f113c 	ldr	r1, [pc, #316]	; cb78 <free+0x814>
    ca38:	e08f1001 	add	r1, pc, r1
    ca3c:	e5915014 	ldr	r5, [r1, #20]
    ca40:	eafffee3 	b	c5d4 <free+0x270>
    ca44:	e15e0006 	cmp	lr, r6
    ca48:	8afffeee 	bhi	c608 <free+0x2a4>
    ca4c:	e596700c 	ldr	r7, [r6, #12]
    ca50:	e157000c 	cmp	r7, ip
    ca54:	0affff46 	beq	c774 <free+0x410>
    ca58:	eafffeea 	b	c608 <free+0x2a4>
    ca5c:	e59c4010 	ldr	r4, [ip, #16]
    ca60:	e3540000 	cmp	r4, #0
    ca64:	0a000021 	beq	caf0 <free+0x78c>
    ca68:	e28c1010 	add	r1, ip, #16
    ca6c:	eaffffd2 	b	c9bc <free+0x658>
    ca70:	e59f1104 	ldr	r1, [pc, #260]	; cb7c <free+0x818>
    ca74:	e08f1001 	add	r1, pc, r1
    ca78:	e5915014 	ldr	r5, [r1, #20]
    ca7c:	eafffed4 	b	c5d4 <free+0x270>
    ca80:	e15e0001 	cmp	lr, r1
    ca84:	8afffedf 	bhi	c608 <free+0x2a4>
    ca88:	e5910008 	ldr	r0, [r1, #8]
    ca8c:	e1500003 	cmp	r0, r3
    ca90:	0afffe88 	beq	c4b8 <free+0x154>
    ca94:	eafffedb 	b	c608 <free+0x2a4>
    ca98:	e15e0000 	cmp	lr, r0
    ca9c:	8afffed9 	bhi	c608 <free+0x2a4>
    caa0:	e5901008 	ldr	r1, [r0, #8]
    caa4:	e151000c 	cmp	r1, ip
    caa8:	0affff35 	beq	c784 <free+0x420>
    caac:	eafffed5 	b	c608 <free+0x2a4>
    cab0:	e3560000 	cmp	r6, #0
    cab4:	0afffe3b 	beq	c3a8 <free+0x44>
    cab8:	e593501c 	ldr	r5, [r3, #28]
    cabc:	e59f10bc 	ldr	r1, [pc, #188]	; cb80 <free+0x81c>
    cac0:	e285704c 	add	r7, r5, #76	; 0x4c
    cac4:	e08f1001 	add	r1, pc, r1
    cac8:	e7910107 	ldr	r0, [r1, r7, lsl #2]
    cacc:	e1500003 	cmp	r0, r3
    cad0:	11a01004 	movne	r1, r4
    cad4:	1affff03 	bne	c6e8 <free+0x384>
    cad8:	e5910004 	ldr	r0, [r1, #4]
    cadc:	e3a06001 	mov	r6, #1
    cae0:	e7814107 	str	r4, [r1, r7, lsl #2]
    cae4:	e1c00516 	bic	r0, r0, r6, lsl r5
    cae8:	e5810004 	str	r0, [r1, #4]
    caec:	eafffe2d 	b	c3a8 <free+0x44>
    caf0:	e3560000 	cmp	r6, #0
    caf4:	0afffeb6 	beq	c5d4 <free+0x270>
    caf8:	e59c401c 	ldr	r4, [ip, #28]
    cafc:	e59f1080 	ldr	r1, [pc, #128]	; cb84 <free+0x820>
    cb00:	e284504c 	add	r5, r4, #76	; 0x4c
    cb04:	e08f1001 	add	r1, pc, r1
    cb08:	e7910105 	ldr	r0, [r1, r5, lsl #2]
    cb0c:	e150000c 	cmp	r0, ip
    cb10:	13a00000 	movne	r0, #0
    cb14:	1afffe92 	bne	c564 <free+0x200>
    cb18:	e5910004 	ldr	r0, [r1, #4]
    cb1c:	e3a0c001 	mov	ip, #1
    cb20:	e3a0e000 	mov	lr, #0
    cb24:	e781e105 	str	lr, [r1, r5, lsl #2]
    cb28:	e5915014 	ldr	r5, [r1, #20]
    cb2c:	e1c0041c 	bic	r0, r0, ip, lsl r4
    cb30:	e5810004 	str	r0, [r1, #4]
    cb34:	eafffea6 	b	c5d4 <free+0x270>
    cb38:	00008e94 	.word	0x00008e94
    cb3c:	00008e20 	.word	0x00008e20
    cb40:	00008d78 	.word	0x00008d78
    cb44:	00008d3c 	.word	0x00008d3c
    cb48:	00008cbc 	.word	0x00008cbc
    cb4c:	00008c44 	.word	0x00008c44
    cb50:	00008c20 	.word	0x00008c20
    cb54:	00008bd4 	.word	0x00008bd4
    cb58:	00008b9c 	.word	0x00008b9c
    cb5c:	00008b38 	.word	0x00008b38
    cb60:	00008968 	.word	0x00008968
    cb64:	00008914 	.word	0x00008914
    cb68:	000088a0 	.word	0x000088a0
    cb6c:	00008874 	.word	0x00008874
    cb70:	00008810 	.word	0x00008810
    cb74:	000087f8 	.word	0x000087f8
    cb78:	000087d4 	.word	0x000087d4
    cb7c:	00008798 	.word	0x00008798
    cb80:	00008748 	.word	0x00008748
    cb84:	00008708 	.word	0x00008708

0000cb88 <_stdio_fgetc>:
    cb88:	e3a000ff 	mov	r0, #255	; 0xff
    cb8c:	e12fff1e 	bx	lr

0000cb90 <_stdio_vfprintf>:
    cb90:	e1a03002 	mov	r3, r2
    cb94:	e1a02001 	mov	r2, r1
    cb98:	e1a01000 	mov	r1, r0
    cb9c:	e59f0004 	ldr	r0, [pc, #4]	; cba8 <_stdio_vfprintf+0x18>
    cba0:	e08f0000 	add	r0, pc, r0
    cba4:	ea0010f9 	b	10f90 <_printf_engine>
    cba8:	000000c0 	.word	0x000000c0

0000cbac <_stdio_fputc>:
    cbac:	e92d4010 	push	{r4, lr}
    cbb0:	e6ef1071 	uxtb	r1, r1
    cbb4:	e8900011 	ldm	r0, {r0, r4}
    cbb8:	e5943080 	ldr	r3, [r4, #128]	; 0x80
    cbbc:	e2832001 	add	r2, r3, #1
    cbc0:	e5842080 	str	r2, [r4, #128]	; 0x80
    cbc4:	e351000a 	cmp	r1, #10
    cbc8:	13520080 	cmpne	r2, #128	; 0x80
    cbcc:	e7c41003 	strb	r1, [r4, r3]
    cbd0:	1a000003 	bne	cbe4 <_stdio_fputc+0x38>
    cbd4:	e1a01004 	mov	r1, r4
    cbd8:	eb000092 	bl	ce28 <write>
    cbdc:	e3a03000 	mov	r3, #0
    cbe0:	e5843080 	str	r3, [r4, #128]	; 0x80
    cbe4:	e3e00102 	mvn	r0, #-2147483648	; 0x80000000
    cbe8:	e8bd8010 	pop	{r4, pc}

0000cbec <buffered_write.part.0>:
    cbec:	e92d47f0 	push	{r4, r5, r6, r7, r8, r9, sl, lr}
    cbf0:	e2528000 	subs	r8, r2, #0
    cbf4:	0a000019 	beq	cc60 <buffered_write.part.0+0x74>
    cbf8:	e2489001 	sub	r9, r8, #1
    cbfc:	e1a06000 	mov	r6, r0
    cc00:	e2415001 	sub	r5, r1, #1
    cc04:	e0819009 	add	r9, r1, r9
    cc08:	e3a07000 	mov	r7, #0
    cc0c:	ea000001 	b	cc18 <buffered_write.part.0+0x2c>
    cc10:	e1550009 	cmp	r5, r9
    cc14:	0a000011 	beq	cc60 <buffered_write.part.0+0x74>
    cc18:	e5964004 	ldr	r4, [r6, #4]
    cc1c:	e5f5e001 	ldrb	lr, [r5, #1]!
    cc20:	e5960000 	ldr	r0, [r6]
    cc24:	e1a01004 	mov	r1, r4
    cc28:	e594c080 	ldr	ip, [r4, #128]	; 0x80
    cc2c:	e28c3001 	add	r3, ip, #1
    cc30:	e5843080 	str	r3, [r4, #128]	; 0x80
    cc34:	e1a02003 	mov	r2, r3
    cc38:	e35e000a 	cmp	lr, #10
    cc3c:	13530080 	cmpne	r3, #128	; 0x80
    cc40:	e7c4e00c 	strb	lr, [r4, ip]
    cc44:	1afffff1 	bne	cc10 <buffered_write.part.0+0x24>
    cc48:	eb000076 	bl	ce28 <write>
    cc4c:	e3500000 	cmp	r0, #0
    cc50:	e5847080 	str	r7, [r4, #128]	; 0x80
    cc54:	b8bd87f0 	poplt	{r4, r5, r6, r7, r8, r9, sl, pc}
    cc58:	e1550009 	cmp	r5, r9
    cc5c:	1affffed 	bne	cc18 <buffered_write.part.0+0x2c>
    cc60:	e1a00008 	mov	r0, r8
    cc64:	e8bd87f0 	pop	{r4, r5, r6, r7, r8, r9, sl, pc}

0000cc68 <_output_func>:
    cc68:	e92d4070 	push	{r4, r5, r6, lr}
    cc6c:	e1a04002 	mov	r4, r2
    cc70:	e1a05000 	mov	r5, r0
    cc74:	eb0013bf 	bl	11b78 <strnlen>
    cc78:	e5943004 	ldr	r3, [r4, #4]
    cc7c:	e3530000 	cmp	r3, #0
    cc80:	0a000004 	beq	cc98 <_output_func+0x30>
    cc84:	e1a02000 	mov	r2, r0
    cc88:	e1a01005 	mov	r1, r5
    cc8c:	e1a00004 	mov	r0, r4
    cc90:	e8bd4070 	pop	{r4, r5, r6, lr}
    cc94:	eaffffd4 	b	cbec <buffered_write.part.0>
    cc98:	e3e00007 	mvn	r0, #7
    cc9c:	e8bd8070 	pop	{r4, r5, r6, pc}

0000cca0 <_stdio_fputs>:
    cca0:	e92d4070 	push	{r4, r5, r6, lr}
    cca4:	e1a04000 	mov	r4, r0
    cca8:	e1a00001 	mov	r0, r1
    ccac:	e1a05001 	mov	r5, r1
    ccb0:	eb0013a4 	bl	11b48 <strlen>
    ccb4:	e5943004 	ldr	r3, [r4, #4]
    ccb8:	e3530000 	cmp	r3, #0
    ccbc:	0a000004 	beq	ccd4 <_stdio_fputs+0x34>
    ccc0:	e1a02000 	mov	r2, r0
    ccc4:	e1a01005 	mov	r1, r5
    ccc8:	e1a00004 	mov	r0, r4
    cccc:	e8bd4070 	pop	{r4, r5, r6, lr}
    ccd0:	eaffffc5 	b	cbec <buffered_write.part.0>
    ccd4:	e3e00007 	mvn	r0, #7
    ccd8:	e8bd8070 	pop	{r4, r5, r6, pc}

0000ccdc <__libc_fini>:
    ccdc:	e92d4070 	push	{r4, r5, r6, lr}
    cce0:	e2505000 	subs	r5, r0, #0
    cce4:	08bd8070 	popeq	{r4, r5, r6, pc}
    cce8:	e5953000 	ldr	r3, [r5]
    ccec:	e3730001 	cmn	r3, #1
    ccf0:	18bd8070 	popne	{r4, r5, r6, pc}
    ccf4:	e5952004 	ldr	r2, [r5, #4]
    ccf8:	e2853004 	add	r3, r5, #4
    ccfc:	e3520000 	cmp	r2, #0
    cd00:	08bd8070 	popeq	{r4, r5, r6, pc}
    cd04:	e3a04000 	mov	r4, #0
    cd08:	e5b32004 	ldr	r2, [r3, #4]!
    cd0c:	e2844001 	add	r4, r4, #1
    cd10:	e3520000 	cmp	r2, #0
    cd14:	1afffffb 	bne	cd08 <__libc_fini+0x2c>
    cd18:	e0854104 	add	r4, r5, r4, lsl #2
    cd1c:	e4143004 	ldr	r3, [r4], #-4
    cd20:	e3730001 	cmn	r3, #1
    cd24:	0a000000 	beq	cd2c <__libc_fini+0x50>
    cd28:	e12fff33 	blx	r3
    cd2c:	e1550004 	cmp	r5, r4
    cd30:	1afffff9 	bne	cd1c <__libc_fini+0x40>
    cd34:	e8bd8070 	pop	{r4, r5, r6, pc}

0000cd38 <__libc_init>:
    cd38:	e5923000 	ldr	r3, [r2]
    cd3c:	e1a05002 	mov	r5, r2
    cd40:	e92d4010 	push	{r4, lr}
    cd44:	e1a06001 	mov	r6, r1
    cd48:	e2834004 	add	r4, r3, #4
    cd4c:	e5933004 	ldr	r3, [r3, #4]
    cd50:	e3530000 	cmp	r3, #0
    cd54:	0a000003 	beq	cd68 <__libc_init+0x30>
    cd58:	e12fff33 	blx	r3
    cd5c:	e5b43004 	ldr	r3, [r4, #4]!
    cd60:	e3530000 	cmp	r3, #0
    cd64:	1afffffb 	bne	cd58 <__libc_init+0x20>
    cd68:	e5953004 	ldr	r3, [r5, #4]
    cd6c:	e2834004 	add	r4, r3, #4
    cd70:	e5933004 	ldr	r3, [r3, #4]
    cd74:	e3530000 	cmp	r3, #0
    cd78:	0a000003 	beq	cd8c <__libc_init+0x54>
    cd7c:	e12fff33 	blx	r3
    cd80:	e5b43004 	ldr	r3, [r4, #4]!
    cd84:	e3530000 	cmp	r3, #0
    cd88:	1afffffb 	bne	cd7c <__libc_init+0x44>
    cd8c:	e5951008 	ldr	r1, [r5, #8]
    cd90:	e3510000 	cmp	r1, #0
    cd94:	1a000004 	bne	cdac <__libc_init+0x74>
    cd98:	e3a02000 	mov	r2, #0
    cd9c:	e1a01002 	mov	r1, r2
    cda0:	e1a00002 	mov	r0, r2
    cda4:	e12fff36 	blx	r6
    cda8:	ebffec94 	bl	8000 <exit>
    cdac:	e59f0018 	ldr	r0, [pc, #24]	; cdcc <__libc_init+0x94>
    cdb0:	e08f0000 	add	r0, pc, r0
    cdb4:	ebfff592 	bl	a404 <__cxa_atexit>
    cdb8:	e3500000 	cmp	r0, #0
    cdbc:	0afffff5 	beq	cd98 <__libc_init+0x60>
    cdc0:	e59f0008 	ldr	r0, [pc, #8]	; cdd0 <__libc_init+0x98>
    cdc4:	e08f0000 	add	r0, pc, r0
    cdc8:	eb000001 	bl	cdd4 <__libc_fatal>
    cdcc:	ffffff24 	.word	0xffffff24
    cdd0:	00005dec 	.word	0x00005dec

0000cdd4 <__libc_fatal>:
    cdd4:	e92d000f 	push	{r0, r1, r2, r3}
    cdd8:	e59f303c 	ldr	r3, [pc, #60]	; ce1c <__libc_fatal+0x48>
    cddc:	e59fc03c 	ldr	ip, [pc, #60]	; ce20 <__libc_fatal+0x4c>
    cde0:	e08f3003 	add	r3, pc, r3
    cde4:	e52de004 	push	{lr}		; (str lr, [sp, #-4]!)
    cde8:	e59f0034 	ldr	r0, [pc, #52]	; ce24 <__libc_fatal+0x50>
    cdec:	e24dd00c 	sub	sp, sp, #12
    cdf0:	e793c00c 	ldr	ip, [r3, ip]
    cdf4:	e28de014 	add	lr, sp, #20
    cdf8:	e1a0200e 	mov	r2, lr
    cdfc:	e58de000 	str	lr, [sp]
    ce00:	e59cc000 	ldr	ip, [ip]
    ce04:	e58dc004 	str	ip, [sp, #4]
    ce08:	e59d1010 	ldr	r1, [sp, #16]
    ce0c:	e7930000 	ldr	r0, [r3, r0]
    ce10:	e2800028 	add	r0, r0, #40	; 0x28
    ce14:	eb00129f 	bl	11898 <vfprintf>
    ce18:	ebfff56c 	bl	a3d0 <abort>
    ce1c:	00008298 	.word	0x00008298
    ce20:	00000010 	.word	0x00000010
    ce24:	00000018 	.word	0x00000018

0000ce28 <write>:
    ce28:	e3a0c001 	mov	ip, #1
    ce2c:	ef000000 	svc	0x00000000
    ce30:	e12fff1e 	bx	lr

0000ce34 <brk>:
    ce34:	e3a0c002 	mov	ip, #2
    ce38:	ef000000 	svc	0x00000000
    ce3c:	e12fff1e 	bx	lr

0000ce40 <exit_group>:
    ce40:	e3a0c003 	mov	ip, #3
    ce44:	ef000000 	svc	0x00000000
    ce48:	e12fff1e 	bx	lr

0000ce4c <ioctl>:
    ce4c:	e3a0c005 	mov	ip, #5
    ce50:	ef000000 	svc	0x00000000
    ce54:	e12fff1e 	bx	lr

0000ce58 <mmap>:
    ce58:	e3a0c008 	mov	ip, #8
    ce5c:	ef000000 	svc	0x00000000
    ce60:	e12fff1e 	bx	lr

0000ce64 <munmap>:
    ce64:	e3a0c009 	mov	ip, #9
    ce68:	ef000000 	svc	0x00000000
    ce6c:	e12fff1e 	bx	lr

0000ce70 <prepare_dma>:
    ce70:	e3a0c00a 	mov	ip, #10
    ce74:	ef000000 	svc	0x00000000
    ce78:	e12fff1e 	bx	lr

0000ce7c <finish_dma>:
    ce7c:	e3a0c00b 	mov	ip, #11
    ce80:	ef000000 	svc	0x00000000
    ce84:	e12fff1e 	bx	lr

0000ce88 <port_create>:
    ce88:	e3a0c010 	mov	ip, #16
    ce8c:	ef000000 	svc	0x00000000
    ce90:	e12fff1e 	bx	lr

0000ce94 <accept>:
    ce94:	e3a0c012 	mov	ip, #18
    ce98:	ef000000 	svc	0x00000000
    ce9c:	e12fff1e 	bx	lr

0000cea0 <close>:
    cea0:	e3a0c013 	mov	ip, #19
    cea4:	ef000000 	svc	0x00000000
    cea8:	e12fff1e 	bx	lr

0000ceac <set_cookie>:
    ceac:	e3a0c014 	mov	ip, #20
    ceb0:	ef000000 	svc	0x00000000
    ceb4:	e12fff1e 	bx	lr

0000ceb8 <wait>:
    ceb8:	e3a0c018 	mov	ip, #24
    cebc:	ef000000 	svc	0x00000000
    cec0:	e12fff1e 	bx	lr

0000cec4 <wait_any>:
    cec4:	e3a0c019 	mov	ip, #25
    cec8:	ef000000 	svc	0x00000000
    cecc:	e12fff1e 	bx	lr

0000ced0 <get_msg>:
    ced0:	e3a0c020 	mov	ip, #32
    ced4:	ef000000 	svc	0x00000000
    ced8:	e12fff1e 	bx	lr

0000cedc <read_msg>:
    cedc:	e3a0c021 	mov	ip, #33	; 0x21
    cee0:	ef000000 	svc	0x00000000
    cee4:	e12fff1e 	bx	lr

0000cee8 <put_msg>:
    cee8:	e3a0c022 	mov	ip, #34	; 0x22
    ceec:	ef000000 	svc	0x00000000
    cef0:	e12fff1e 	bx	lr

0000cef4 <send_msg>:
    cef4:	e3a0c023 	mov	ip, #35	; 0x23
    cef8:	ef000000 	svc	0x00000000
    cefc:	e12fff1e 	bx	lr

0000cf00 <AES_cbc_encrypt>:
    cf00:	e52de004 	push	{lr}		; (str lr, [sp, #-4]!)
    cf04:	e59de008 	ldr	lr, [sp, #8]
    cf08:	e59fc030 	ldr	ip, [pc, #48]	; cf40 <AES_cbc_encrypt+0x40>
    cf0c:	e35e0000 	cmp	lr, #0
    cf10:	e08fc00c 	add	ip, pc, ip
    cf14:	1a000004 	bne	cf2c <AES_cbc_encrypt+0x2c>
    cf18:	e59fe024 	ldr	lr, [pc, #36]	; cf44 <AES_cbc_encrypt+0x44>
    cf1c:	e79cc00e 	ldr	ip, [ip, lr]
    cf20:	e58dc008 	str	ip, [sp, #8]
    cf24:	e49de004 	pop	{lr}		; (ldr lr, [sp], #4)
    cf28:	ea000c4a 	b	10058 <CRYPTO_cbc128_decrypt>
    cf2c:	e59fe014 	ldr	lr, [pc, #20]	; cf48 <AES_cbc_encrypt+0x48>
    cf30:	e79cc00e 	ldr	ip, [ip, lr]
    cf34:	e58dc008 	str	ip, [sp, #8]
    cf38:	e49de004 	pop	{lr}		; (ldr lr, [sp], #4)
    cf3c:	ea000c0b 	b	ff70 <CRYPTO_cbc128_encrypt>
    cf40:	00008168 	.word	0x00008168
    cf44:	00000028 	.word	0x00000028
    cf48:	00000024 	.word	0x00000024

0000cf4c <AES_set_encrypt_key>:
    cf4c:	e3520000 	cmp	r2, #0
    cf50:	13500000 	cmpne	r0, #0
    cf54:	0a00011b 	beq	d3c8 <AES_set_encrypt_key+0x47c>
    cf58:	e3c13040 	bic	r3, r1, #64	; 0x40
    cf5c:	e3530080 	cmp	r3, #128	; 0x80
    cf60:	1a00005a 	bne	d0d0 <AES_set_encrypt_key+0x184>
    cf64:	e3510080 	cmp	r1, #128	; 0x80
    cf68:	03a0300a 	moveq	r3, #10
    cf6c:	058230f0 	streq	r3, [r2, #240]	; 0xf0
    cf70:	0a000003 	beq	cf84 <AES_set_encrypt_key+0x38>
    cf74:	e35100c0 	cmp	r1, #192	; 0xc0
    cf78:	1a000056 	bne	d0d8 <AES_set_encrypt_key+0x18c>
    cf7c:	e3a0300c 	mov	r3, #12
    cf80:	e58230f0 	str	r3, [r2, #240]	; 0xf0
    cf84:	e92d4ff0 	push	{r4, r5, r6, r7, r8, r9, sl, fp, lr}
    cf88:	e3510080 	cmp	r1, #128	; 0x80
    cf8c:	e5d03001 	ldrb	r3, [r0, #1]
    cf90:	e24dd01c 	sub	sp, sp, #28
    cf94:	e5d04000 	ldrb	r4, [r0]
    cf98:	e5d0e003 	ldrb	lr, [r0, #3]
    cf9c:	e5d0c002 	ldrb	ip, [r0, #2]
    cfa0:	e1a03803 	lsl	r3, r3, #16
    cfa4:	e1833c04 	orr	r3, r3, r4, lsl #24
    cfa8:	e023300e 	eor	r3, r3, lr
    cfac:	e183340c 	orr	r3, r3, ip, lsl #8
    cfb0:	e5823000 	str	r3, [r2]
    cfb4:	e5d05005 	ldrb	r5, [r0, #5]
    cfb8:	e5d04004 	ldrb	r4, [r0, #4]
    cfbc:	e5d0e007 	ldrb	lr, [r0, #7]
    cfc0:	e5d0c006 	ldrb	ip, [r0, #6]
    cfc4:	e1a05805 	lsl	r5, r5, #16
    cfc8:	e1855c04 	orr	r5, r5, r4, lsl #24
    cfcc:	e025500e 	eor	r5, r5, lr
    cfd0:	e185540c 	orr	r5, r5, ip, lsl #8
    cfd4:	e5825004 	str	r5, [r2, #4]
    cfd8:	e5d06009 	ldrb	r6, [r0, #9]
    cfdc:	e5d04008 	ldrb	r4, [r0, #8]
    cfe0:	e5d0e00b 	ldrb	lr, [r0, #11]
    cfe4:	e5d0c00a 	ldrb	ip, [r0, #10]
    cfe8:	e1a06806 	lsl	r6, r6, #16
    cfec:	e1866c04 	orr	r6, r6, r4, lsl #24
    cff0:	e026600e 	eor	r6, r6, lr
    cff4:	e186640c 	orr	r6, r6, ip, lsl #8
    cff8:	e5826008 	str	r6, [r2, #8]
    cffc:	e5d0400d 	ldrb	r4, [r0, #13]
    d000:	e5d0700c 	ldrb	r7, [r0, #12]
    d004:	e5d0e00f 	ldrb	lr, [r0, #15]
    d008:	e5d0c00e 	ldrb	ip, [r0, #14]
    d00c:	e1a04804 	lsl	r4, r4, #16
    d010:	e1844c07 	orr	r4, r4, r7, lsl #24
    d014:	e024400e 	eor	r4, r4, lr
    d018:	e184440c 	orr	r4, r4, ip, lsl #8
    d01c:	e582400c 	str	r4, [r2, #12]
    d020:	0a00002f 	beq	d0e4 <AES_set_encrypt_key+0x198>
    d024:	e5d0c011 	ldrb	ip, [r0, #17]
    d028:	e35100c0 	cmp	r1, #192	; 0xc0
    d02c:	e5d08010 	ldrb	r8, [r0, #16]
    d030:	e5d07013 	ldrb	r7, [r0, #19]
    d034:	e5d0e012 	ldrb	lr, [r0, #18]
    d038:	e1a0c80c 	lsl	ip, ip, #16
    d03c:	e18ccc08 	orr	ip, ip, r8, lsl #24
    d040:	e02cc007 	eor	ip, ip, r7
    d044:	e18cc40e 	orr	ip, ip, lr, lsl #8
    d048:	e582c010 	str	ip, [r2, #16]
    d04c:	e5d07015 	ldrb	r7, [r0, #21]
    d050:	e5d08014 	ldrb	r8, [r0, #20]
    d054:	e5d0e017 	ldrb	lr, [r0, #23]
    d058:	e5d0c016 	ldrb	ip, [r0, #22]
    d05c:	e1a07807 	lsl	r7, r7, #16
    d060:	e1877c08 	orr	r7, r7, r8, lsl #24
    d064:	e027700e 	eor	r7, r7, lr
    d068:	e187740c 	orr	r7, r7, ip, lsl #8
    d06c:	e5827014 	str	r7, [r2, #20]
    d070:	0a00004c 	beq	d1a8 <AES_set_encrypt_key+0x25c>
    d074:	e5d0c019 	ldrb	ip, [r0, #25]
    d078:	e3510c01 	cmp	r1, #256	; 0x100
    d07c:	e5d07018 	ldrb	r7, [r0, #24]
    d080:	e5d0e01b 	ldrb	lr, [r0, #27]
    d084:	e1a0180c 	lsl	r1, ip, #16
    d088:	e5d0c01a 	ldrb	ip, [r0, #26]
    d08c:	e1811c07 	orr	r1, r1, r7, lsl #24
    d090:	e021100e 	eor	r1, r1, lr
    d094:	e181140c 	orr	r1, r1, ip, lsl #8
    d098:	e5821018 	str	r1, [r2, #24]
    d09c:	e5d0701d 	ldrb	r7, [r0, #29]
    d0a0:	e5d0e01c 	ldrb	lr, [r0, #28]
    d0a4:	e5d0c01f 	ldrb	ip, [r0, #31]
    d0a8:	e5d0101e 	ldrb	r1, [r0, #30]
    d0ac:	e1a07807 	lsl	r7, r7, #16
    d0b0:	e1877c0e 	orr	r7, r7, lr, lsl #24
    d0b4:	e027700c 	eor	r7, r7, ip
    d0b8:	e1877401 	orr	r7, r7, r1, lsl #8
    d0bc:	e582701c 	str	r7, [r2, #28]
    d0c0:	0a000070 	beq	d288 <AES_set_encrypt_key+0x33c>
    d0c4:	e3a00000 	mov	r0, #0
    d0c8:	e28dd01c 	add	sp, sp, #28
    d0cc:	e8bd8ff0 	pop	{r4, r5, r6, r7, r8, r9, sl, fp, pc}
    d0d0:	e3510c01 	cmp	r1, #256	; 0x100
    d0d4:	1a0000bd 	bne	d3d0 <AES_set_encrypt_key+0x484>
    d0d8:	e3a0300e 	mov	r3, #14
    d0dc:	e58230f0 	str	r3, [r2, #240]	; 0xf0
    d0e0:	eaffffa7 	b	cf84 <AES_set_encrypt_key+0x38>
    d0e4:	e59f12ec 	ldr	r1, [pc, #748]	; d3d8 <AES_set_encrypt_key+0x48c>
    d0e8:	e3a08401 	mov	r8, #16777216	; 0x1000000
    d0ec:	e59f72e8 	ldr	r7, [pc, #744]	; d3dc <AES_set_encrypt_key+0x490>
    d0f0:	e08f1001 	add	r1, pc, r1
    d0f4:	e59fb2e4 	ldr	fp, [pc, #740]	; d3e0 <AES_set_encrypt_key+0x494>
    d0f8:	e59fa2e4 	ldr	sl, [pc, #740]	; d3e4 <AES_set_encrypt_key+0x498>
    d0fc:	e08f7007 	add	r7, pc, r7
    d100:	e58d1004 	str	r1, [sp, #4]
    d104:	e2879024 	add	r9, r7, #36	; 0x24
    d108:	e59f12d8 	ldr	r1, [pc, #728]	; d3e8 <AES_set_encrypt_key+0x49c>
    d10c:	e08fb00b 	add	fp, pc, fp
    d110:	e08fa00a 	add	sl, pc, sl
    d114:	e58d900c 	str	r9, [sp, #12]
    d118:	e08f1001 	add	r1, pc, r1
    d11c:	e58d1008 	str	r1, [sp, #8]
    d120:	ea000001 	b	d12c <AES_set_encrypt_key+0x1e0>
    d124:	e5b78004 	ldr	r8, [r7, #4]!
    d128:	e2822010 	add	r2, r2, #16
    d12c:	e59d900c 	ldr	r9, [sp, #12]
    d130:	e7e71854 	ubfx	r1, r4, #16, #8
    d134:	e6ef0074 	uxtb	r0, r4
    d138:	e1a0ec24 	lsr	lr, r4, #24
    d13c:	e1590007 	cmp	r9, r7
    d140:	e59d9004 	ldr	r9, [sp, #4]
    d144:	e7e7c454 	ubfx	ip, r4, #8, #8
    d148:	e79b0100 	ldr	r0, [fp, r0, lsl #2]
    d14c:	e7991101 	ldr	r1, [r9, r1, lsl #2]
    d150:	e59d9008 	ldr	r9, [sp, #8]
    d154:	e2000cff 	and	r0, r0, #65280	; 0xff00
    d158:	e7dae10e 	ldrb	lr, [sl, lr, lsl #2]
    d15c:	e20114ff 	and	r1, r1, #-16777216	; 0xff000000
    d160:	e799c10c 	ldr	ip, [r9, ip, lsl #2]
    d164:	e180000e 	orr	r0, r0, lr
    d168:	e0200001 	eor	r0, r0, r1
    d16c:	e20cc8ff 	and	ip, ip, #16711680	; 0xff0000
    d170:	e020000c 	eor	r0, r0, ip
    d174:	e0233000 	eor	r3, r3, r0
    d178:	e0233008 	eor	r3, r3, r8
    d17c:	e5823010 	str	r3, [r2, #16]
    d180:	e0255003 	eor	r5, r5, r3
    d184:	e5825014 	str	r5, [r2, #20]
    d188:	e0266005 	eor	r6, r6, r5
    d18c:	e5826018 	str	r6, [r2, #24]
    d190:	e0244006 	eor	r4, r4, r6
    d194:	e582401c 	str	r4, [r2, #28]
    d198:	1affffe1 	bne	d124 <AES_set_encrypt_key+0x1d8>
    d19c:	e3a00000 	mov	r0, #0
    d1a0:	e28dd01c 	add	sp, sp, #28
    d1a4:	e8bd8ff0 	pop	{r4, r5, r6, r7, r8, r9, sl, fp, pc}
    d1a8:	e59f823c 	ldr	r8, [pc, #572]	; d3ec <AES_set_encrypt_key+0x4a0>
    d1ac:	e3a09401 	mov	r9, #16777216	; 0x1000000
    d1b0:	e59fb238 	ldr	fp, [pc, #568]	; d3f0 <AES_set_encrypt_key+0x4a4>
    d1b4:	e08f8008 	add	r8, pc, r8
    d1b8:	e59fa234 	ldr	sl, [pc, #564]	; d3f4 <AES_set_encrypt_key+0x4a8>
    d1bc:	e288101c 	add	r1, r8, #28
    d1c0:	e58d1004 	str	r1, [sp, #4]
    d1c4:	e59f122c 	ldr	r1, [pc, #556]	; d3f8 <AES_set_encrypt_key+0x4ac>
    d1c8:	e08fa00a 	add	sl, pc, sl
    d1cc:	e08fb00b 	add	fp, pc, fp
    d1d0:	e58da010 	str	sl, [sp, #16]
    d1d4:	e08f1001 	add	r1, pc, r1
    d1d8:	e58d1008 	str	r1, [sp, #8]
    d1dc:	e59f1218 	ldr	r1, [pc, #536]	; d3fc <AES_set_encrypt_key+0x4b0>
    d1e0:	e08f1001 	add	r1, pc, r1
    d1e4:	e58d100c 	str	r1, [sp, #12]
    d1e8:	ea000006 	b	d208 <AES_set_encrypt_key+0x2bc>
    d1ec:	e5921010 	ldr	r1, [r2, #16]
    d1f0:	e2822018 	add	r2, r2, #24
    d1f4:	e0211004 	eor	r1, r1, r4
    d1f8:	e5821010 	str	r1, [r2, #16]
    d1fc:	e0277001 	eor	r7, r7, r1
    d200:	e5827014 	str	r7, [r2, #20]
    d204:	e5b89004 	ldr	r9, [r8, #4]!
    d208:	e59da004 	ldr	sl, [sp, #4]
    d20c:	e1a0ec27 	lsr	lr, r7, #24
    d210:	e7e71857 	ubfx	r1, r7, #16, #8
    d214:	e6ef0077 	uxtb	r0, r7
    d218:	e15a0008 	cmp	sl, r8
    d21c:	e59da010 	ldr	sl, [sp, #16]
    d220:	e7e7c457 	ubfx	ip, r7, #8, #8
    d224:	e79b0100 	ldr	r0, [fp, r0, lsl #2]
    d228:	e7dae10e 	ldrb	lr, [sl, lr, lsl #2]
    d22c:	e59da008 	ldr	sl, [sp, #8]
    d230:	e2000cff 	and	r0, r0, #65280	; 0xff00
    d234:	e180000e 	orr	r0, r0, lr
    d238:	e79a1101 	ldr	r1, [sl, r1, lsl #2]
    d23c:	e59da00c 	ldr	sl, [sp, #12]
    d240:	e20114ff 	and	r1, r1, #-16777216	; 0xff000000
    d244:	e0200001 	eor	r0, r0, r1
    d248:	e79ac10c 	ldr	ip, [sl, ip, lsl #2]
    d24c:	e20cc8ff 	and	ip, ip, #16711680	; 0xff0000
    d250:	e020000c 	eor	r0, r0, ip
    d254:	e0233000 	eor	r3, r3, r0
    d258:	e0233009 	eor	r3, r3, r9
    d25c:	e5823018 	str	r3, [r2, #24]
    d260:	e0255003 	eor	r5, r5, r3
    d264:	e582501c 	str	r5, [r2, #28]
    d268:	e0266005 	eor	r6, r6, r5
    d26c:	e5826020 	str	r6, [r2, #32]
    d270:	e0244006 	eor	r4, r4, r6
    d274:	e5824024 	str	r4, [r2, #36]	; 0x24
    d278:	1affffdb 	bne	d1ec <AES_set_encrypt_key+0x2a0>
    d27c:	e3a00000 	mov	r0, #0
    d280:	e28dd01c 	add	sp, sp, #28
    d284:	e8bd8ff0 	pop	{r4, r5, r6, r7, r8, r9, sl, fp, pc}
    d288:	e59f8170 	ldr	r8, [pc, #368]	; d400 <AES_set_encrypt_key+0x4b4>
    d28c:	e3a0a401 	mov	sl, #16777216	; 0x1000000
    d290:	e59fb16c 	ldr	fp, [pc, #364]	; d404 <AES_set_encrypt_key+0x4b8>
    d294:	e08f8008 	add	r8, pc, r8
    d298:	e59f9168 	ldr	r9, [pc, #360]	; d408 <AES_set_encrypt_key+0x4bc>
    d29c:	e2881018 	add	r1, r8, #24
    d2a0:	e58d100c 	str	r1, [sp, #12]
    d2a4:	e59f1160 	ldr	r1, [pc, #352]	; d40c <AES_set_encrypt_key+0x4c0>
    d2a8:	e08f9009 	add	r9, pc, r9
    d2ac:	e08fb00b 	add	fp, pc, fp
    d2b0:	e1cd80f4 	strd	r8, [sp, #4]
    d2b4:	e08f1001 	add	r1, pc, r1
    d2b8:	e58d1010 	str	r1, [sp, #16]
    d2bc:	e59f114c 	ldr	r1, [pc, #332]	; d410 <AES_set_encrypt_key+0x4c4>
    d2c0:	e08f1001 	add	r1, pc, r1
    d2c4:	e58d1014 	str	r1, [sp, #20]
    d2c8:	ea00001d 	b	d344 <AES_set_encrypt_key+0x3f8>
    d2cc:	e7e7c854 	ubfx	ip, r4, #16, #8
    d2d0:	e7e70454 	ubfx	r0, r4, #8, #8
    d2d4:	e1a01c24 	lsr	r1, r4, #24
    d2d8:	e6efe074 	uxtb	lr, r4
    d2dc:	e592a014 	ldr	sl, [r2, #20]
    d2e0:	e2822020 	add	r2, r2, #32
    d2e4:	e798c10c 	ldr	ip, [r8, ip, lsl #2]
    d2e8:	e79b0100 	ldr	r0, [fp, r0, lsl #2]
    d2ec:	e59d8008 	ldr	r8, [sp, #8]
    d2f0:	e20cc8ff 	and	ip, ip, #16711680	; 0xff0000
    d2f4:	e7991101 	ldr	r1, [r9, r1, lsl #2]
    d2f8:	e2000cff 	and	r0, r0, #65280	; 0xff00
    d2fc:	e18c0000 	orr	r0, ip, r0
    d300:	e512c010 	ldr	ip, [r2, #-16]
    d304:	e7d8e10e 	ldrb	lr, [r8, lr, lsl #2]
    d308:	e20114ff 	and	r1, r1, #-16777216	; 0xff000000
    d30c:	e020000c 	eor	r0, r0, ip
    d310:	e181100e 	orr	r1, r1, lr
    d314:	e0200001 	eor	r0, r0, r1
    d318:	e5121008 	ldr	r1, [r2, #-8]
    d31c:	e02aa000 	eor	sl, sl, r0
    d320:	e5820010 	str	r0, [r2, #16]
    d324:	e021100a 	eor	r1, r1, sl
    d328:	e5821018 	str	r1, [r2, #24]
    d32c:	e0277001 	eor	r7, r7, r1
    d330:	e59d1004 	ldr	r1, [sp, #4]
    d334:	e582a014 	str	sl, [r2, #20]
    d338:	e582701c 	str	r7, [r2, #28]
    d33c:	e5b1a004 	ldr	sl, [r1, #4]!
    d340:	e58d1004 	str	r1, [sp, #4]
    d344:	e59d800c 	ldr	r8, [sp, #12]
    d348:	e1a0ec27 	lsr	lr, r7, #24
    d34c:	e59d9004 	ldr	r9, [sp, #4]
    d350:	e6ef0077 	uxtb	r0, r7
    d354:	e7e71857 	ubfx	r1, r7, #16, #8
    d358:	e7e7c457 	ubfx	ip, r7, #8, #8
    d35c:	e1580009 	cmp	r8, r9
    d360:	e59d8008 	ldr	r8, [sp, #8]
    d364:	e59d9010 	ldr	r9, [sp, #16]
    d368:	e79b0100 	ldr	r0, [fp, r0, lsl #2]
    d36c:	e7d8e10e 	ldrb	lr, [r8, lr, lsl #2]
    d370:	e59d8014 	ldr	r8, [sp, #20]
    d374:	e2000cff 	and	r0, r0, #65280	; 0xff00
    d378:	e7991101 	ldr	r1, [r9, r1, lsl #2]
    d37c:	e180000e 	orr	r0, r0, lr
    d380:	e798c10c 	ldr	ip, [r8, ip, lsl #2]
    d384:	e20114ff 	and	r1, r1, #-16777216	; 0xff000000
    d388:	e0200001 	eor	r0, r0, r1
    d38c:	e20cc8ff 	and	ip, ip, #16711680	; 0xff0000
    d390:	e020000c 	eor	r0, r0, ip
    d394:	e0233000 	eor	r3, r3, r0
    d398:	e023300a 	eor	r3, r3, sl
    d39c:	e5823020 	str	r3, [r2, #32]
    d3a0:	e0255003 	eor	r5, r5, r3
    d3a4:	e5825024 	str	r5, [r2, #36]	; 0x24
    d3a8:	e0266005 	eor	r6, r6, r5
    d3ac:	e5826028 	str	r6, [r2, #40]	; 0x28
    d3b0:	e0244006 	eor	r4, r4, r6
    d3b4:	e582402c 	str	r4, [r2, #44]	; 0x2c
    d3b8:	1affffc3 	bne	d2cc <AES_set_encrypt_key+0x380>
    d3bc:	e3a00000 	mov	r0, #0
    d3c0:	e28dd01c 	add	sp, sp, #28
    d3c4:	e8bd8ff0 	pop	{r4, r5, r6, r7, r8, r9, sl, fp, pc}
    d3c8:	e3e00000 	mvn	r0, #0
    d3cc:	e12fff1e 	bx	lr
    d3d0:	e3e00001 	mvn	r0, #1
    d3d4:	e12fff1e 	bx	lr
    d3d8:	000073d8 	.word	0x000073d8
    d3dc:	00007bcc 	.word	0x00007bcc
    d3e0:	00006bbc 	.word	0x00006bbc
    d3e4:	00006fb8 	.word	0x00006fb8
    d3e8:	000077b0 	.word	0x000077b0
    d3ec:	00007b14 	.word	0x00007b14
    d3f0:	00006afc 	.word	0x00006afc
    d3f4:	00006f00 	.word	0x00006f00
    d3f8:	000072f4 	.word	0x000072f4
    d3fc:	000076e8 	.word	0x000076e8
    d400:	00007a34 	.word	0x00007a34
    d404:	00006a1c 	.word	0x00006a1c
    d408:	00006e20 	.word	0x00006e20
    d40c:	00007214 	.word	0x00007214
    d410:	00007608 	.word	0x00007608

0000d414 <AES_set_decrypt_key>:
    d414:	e92d4ff0 	push	{r4, r5, r6, r7, r8, r9, sl, fp, lr}
    d418:	e1a04002 	mov	r4, r2
    d41c:	e24dd01c 	sub	sp, sp, #28
    d420:	e58d2010 	str	r2, [sp, #16]
    d424:	ebfffec8 	bl	cf4c <AES_set_encrypt_key>
    d428:	e3500000 	cmp	r0, #0
    d42c:	ba000084 	blt	d644 <AES_set_decrypt_key+0x230>
    d430:	e59430f0 	ldr	r3, [r4, #240]	; 0xf0
    d434:	e1a02004 	mov	r2, r4
    d438:	e1a0e103 	lsl	lr, r3, #2
    d43c:	e35e0000 	cmp	lr, #0
    d440:	da000019 	ble	d4ac <AES_set_decrypt_key+0x98>
    d444:	e0843203 	add	r3, r4, r3, lsl #4
    d448:	e3a01000 	mov	r1, #0
    d44c:	e5920000 	ldr	r0, [r2]
    d450:	e2811004 	add	r1, r1, #4
    d454:	e5934000 	ldr	r4, [r3]
    d458:	e04ec001 	sub	ip, lr, r1
    d45c:	e5824000 	str	r4, [r2]
    d460:	e151000c 	cmp	r1, ip
    d464:	e5830000 	str	r0, [r3]
    d468:	e2822010 	add	r2, r2, #16
    d46c:	e593c004 	ldr	ip, [r3, #4]
    d470:	e2433010 	sub	r3, r3, #16
    d474:	e512000c 	ldr	r0, [r2, #-12]
    d478:	e502c00c 	str	ip, [r2, #-12]
    d47c:	e5830014 	str	r0, [r3, #20]
    d480:	e593c018 	ldr	ip, [r3, #24]
    d484:	e5120008 	ldr	r0, [r2, #-8]
    d488:	e502c008 	str	ip, [r2, #-8]
    d48c:	e5830018 	str	r0, [r3, #24]
    d490:	e593c01c 	ldr	ip, [r3, #28]
    d494:	e5120004 	ldr	r0, [r2, #-4]
    d498:	e502c004 	str	ip, [r2, #-4]
    d49c:	e583001c 	str	r0, [r3, #28]
    d4a0:	baffffe9 	blt	d44c <AES_set_decrypt_key+0x38>
    d4a4:	e59d3010 	ldr	r3, [sp, #16]
    d4a8:	e59330f0 	ldr	r3, [r3, #240]	; 0xf0
    d4ac:	e3530001 	cmp	r3, #1
    d4b0:	da000062 	ble	d640 <AES_set_decrypt_key+0x22c>
    d4b4:	e3a02001 	mov	r2, #1
    d4b8:	e58d2004 	str	r2, [sp, #4]
    d4bc:	e59f2188 	ldr	r2, [pc, #392]	; d64c <AES_set_decrypt_key+0x238>
    d4c0:	e59f7188 	ldr	r7, [pc, #392]	; d650 <AES_set_decrypt_key+0x23c>
    d4c4:	e59f3188 	ldr	r3, [pc, #392]	; d654 <AES_set_decrypt_key+0x240>
    d4c8:	e08f2002 	add	r2, pc, r2
    d4cc:	e59f6184 	ldr	r6, [pc, #388]	; d658 <AES_set_decrypt_key+0x244>
    d4d0:	e08f7007 	add	r7, pc, r7
    d4d4:	e58d2008 	str	r2, [sp, #8]
    d4d8:	e08f3003 	add	r3, pc, r3
    d4dc:	e59f2178 	ldr	r2, [pc, #376]	; d65c <AES_set_decrypt_key+0x248>
    d4e0:	e08f6006 	add	r6, pc, r6
    d4e4:	e59d1010 	ldr	r1, [sp, #16]
    d4e8:	e08f2002 	add	r2, pc, r2
    d4ec:	e58d2014 	str	r2, [sp, #20]
    d4f0:	e591e010 	ldr	lr, [r1, #16]
    d4f4:	e2811010 	add	r1, r1, #16
    d4f8:	e5910008 	ldr	r0, [r1, #8]
    d4fc:	e591c004 	ldr	ip, [r1, #4]
    d500:	e59d2004 	ldr	r2, [sp, #4]
    d504:	e1a09c2e 	lsr	r9, lr, #24
    d508:	e6ef407e 	uxtb	r4, lr
    d50c:	e1a05c20 	lsr	r5, r0, #24
    d510:	e2822001 	add	r2, r2, #1
    d514:	e1a08c2c 	lsr	r8, ip, #24
    d518:	e58d2004 	str	r2, [sp, #4]
    d51c:	e6ef207c 	uxtb	r2, ip
    d520:	e7d39109 	ldrb	r9, [r3, r9, lsl #2]
    d524:	e7d34104 	ldrb	r4, [r3, r4, lsl #2]
    d528:	e7d3a105 	ldrb	sl, [r3, r5, lsl #2]
    d52c:	e6ef5070 	uxtb	r5, r0
    d530:	e7d38108 	ldrb	r8, [r3, r8, lsl #2]
    d534:	e7d32102 	ldrb	r2, [r3, r2, lsl #2]
    d538:	e797b109 	ldr	fp, [r7, r9, lsl #2]
    d53c:	e7964104 	ldr	r4, [r6, r4, lsl #2]
    d540:	e7d39105 	ldrb	r9, [r3, r5, lsl #2]
    d544:	e7e7585e 	ubfx	r5, lr, #16, #8
    d548:	e7978108 	ldr	r8, [r7, r8, lsl #2]
    d54c:	e024400b 	eor	r4, r4, fp
    d550:	e7962102 	ldr	r2, [r6, r2, lsl #2]
    d554:	e7e7b85c 	ubfx	fp, ip, #16, #8
    d558:	e7d35105 	ldrb	r5, [r3, r5, lsl #2]
    d55c:	e7e7e45e 	ubfx	lr, lr, #8, #8
    d560:	e0222008 	eor	r2, r2, r8
    d564:	e58d200c 	str	r2, [sp, #12]
    d568:	e59d2008 	ldr	r2, [sp, #8]
    d56c:	e7e7c45c 	ubfx	ip, ip, #8, #8
    d570:	e7d3810b 	ldrb	r8, [r3, fp, lsl #2]
    d574:	e7e7b850 	ubfx	fp, r0, #16, #8
    d578:	e7969109 	ldr	r9, [r6, r9, lsl #2]
    d57c:	e7e70450 	ubfx	r0, r0, #8, #8
    d580:	e7d3e10e 	ldrb	lr, [r3, lr, lsl #2]
    d584:	e797a10a 	ldr	sl, [r7, sl, lsl #2]
    d588:	e7925105 	ldr	r5, [r2, r5, lsl #2]
    d58c:	e59d2014 	ldr	r2, [sp, #20]
    d590:	e02aa009 	eor	sl, sl, r9
    d594:	e7d3c10c 	ldrb	ip, [r3, ip, lsl #2]
    d598:	e0244005 	eor	r4, r4, r5
    d59c:	e7d3910b 	ldrb	r9, [r3, fp, lsl #2]
    d5a0:	e1a05002 	mov	r5, r2
    d5a4:	e59db008 	ldr	fp, [sp, #8]
    d5a8:	e792e10e 	ldr	lr, [r2, lr, lsl #2]
    d5ac:	e7d30100 	ldrb	r0, [r3, r0, lsl #2]
    d5b0:	e024400e 	eor	r4, r4, lr
    d5b4:	e79b8108 	ldr	r8, [fp, r8, lsl #2]
    d5b8:	e792c10c 	ldr	ip, [r2, ip, lsl #2]
    d5bc:	e79b9109 	ldr	r9, [fp, r9, lsl #2]
    d5c0:	e59d200c 	ldr	r2, [sp, #12]
    d5c4:	e591e00c 	ldr	lr, [r1, #12]
    d5c8:	e029900a 	eor	r9, r9, sl
    d5cc:	e7950100 	ldr	r0, [r5, r0, lsl #2]
    d5d0:	e0222008 	eor	r2, r2, r8
    d5d4:	e022200c 	eor	r2, r2, ip
    d5d8:	e5812004 	str	r2, [r1, #4]
    d5dc:	e1a0cc2e 	lsr	ip, lr, #24
    d5e0:	e6ef207e 	uxtb	r2, lr
    d5e4:	e0299000 	eor	r9, r9, r0
    d5e8:	e7e7085e 	ubfx	r0, lr, #16, #8
    d5ec:	e7e7e45e 	ubfx	lr, lr, #8, #8
    d5f0:	e5814000 	str	r4, [r1]
    d5f4:	e7d3410c 	ldrb	r4, [r3, ip, lsl #2]
    d5f8:	e1a08005 	mov	r8, r5
    d5fc:	e7d3c102 	ldrb	ip, [r3, r2, lsl #2]
    d600:	e7d35100 	ldrb	r5, [r3, r0, lsl #2]
    d604:	e7d3010e 	ldrb	r0, [r3, lr, lsl #2]
    d608:	e7972104 	ldr	r2, [r7, r4, lsl #2]
    d60c:	e796e10c 	ldr	lr, [r6, ip, lsl #2]
    d610:	e79bc105 	ldr	ip, [fp, r5, lsl #2]
    d614:	e7980100 	ldr	r0, [r8, r0, lsl #2]
    d618:	e022200e 	eor	r2, r2, lr
    d61c:	e022200c 	eor	r2, r2, ip
    d620:	e59dc010 	ldr	ip, [sp, #16]
    d624:	e0222000 	eor	r2, r2, r0
    d628:	e5819008 	str	r9, [r1, #8]
    d62c:	e581200c 	str	r2, [r1, #12]
    d630:	e59d0004 	ldr	r0, [sp, #4]
    d634:	e59c20f0 	ldr	r2, [ip, #240]	; 0xf0
    d638:	e1520000 	cmp	r2, r0
    d63c:	caffffab 	bgt	d4f0 <AES_set_decrypt_key+0xdc>
    d640:	e3a00000 	mov	r0, #0
    d644:	e28dd01c 	add	sp, sp, #28
    d648:	e8bd8ff0 	pop	{r4, r5, r6, r7, r8, r9, sl, fp, pc}
    d64c:	00005b00 	.word	0x00005b00
    d650:	000056f8 	.word	0x000056f8
    d654:	00006bf0 	.word	0x00006bf0
    d658:	000062e8 	.word	0x000062e8
    d65c:	00005ee0 	.word	0x00005ee0

0000d660 <AES_encrypt>:
    d660:	e92d4ff0 	push	{r4, r5, r6, r7, r8, r9, sl, fp, lr}
    d664:	e1a09002 	mov	r9, r2
    d668:	e59f34bc 	ldr	r3, [pc, #1212]	; db2c <AES_encrypt+0x4cc>
    d66c:	e24dd03c 	sub	sp, sp, #60	; 0x3c
    d670:	e5d04001 	ldrb	r4, [r0, #1]
    d674:	e5d0c005 	ldrb	ip, [r0, #5]
    d678:	e1a08002 	mov	r8, r2
    d67c:	e5d05004 	ldrb	r5, [r0, #4]
    d680:	e08f3003 	add	r3, pc, r3
    d684:	e58d1034 	str	r1, [sp, #52]	; 0x34
    d688:	e1a04804 	lsl	r4, r4, #16
    d68c:	e5d01000 	ldrb	r1, [r0]
    d690:	e1a0c80c 	lsl	ip, ip, #16
    d694:	e58d202c 	str	r2, [sp, #44]	; 0x2c
    d698:	e18ccc05 	orr	ip, ip, r5, lsl #24
    d69c:	e5d02009 	ldrb	r2, [r0, #9]
    d6a0:	e5d0e008 	ldrb	lr, [r0, #8]
    d6a4:	e1844c01 	orr	r4, r4, r1, lsl #24
    d6a8:	e5d05002 	ldrb	r5, [r0, #2]
    d6ac:	e5d01003 	ldrb	r1, [r0, #3]
    d6b0:	e1a02802 	lsl	r2, r2, #16
    d6b4:	e58d3028 	str	r3, [sp, #40]	; 0x28
    d6b8:	e1822c0e 	orr	r2, r2, lr, lsl #24
    d6bc:	e5d0300d 	ldrb	r3, [r0, #13]
    d6c0:	e0244001 	eor	r4, r4, r1
    d6c4:	e5d0600c 	ldrb	r6, [r0, #12]
    d6c8:	e1844405 	orr	r4, r4, r5, lsl #8
    d6cc:	e5d0100b 	ldrb	r1, [r0, #11]
    d6d0:	e5d0e007 	ldrb	lr, [r0, #7]
    d6d4:	e1a03803 	lsl	r3, r3, #16
    d6d8:	e5d0500f 	ldrb	r5, [r0, #15]
    d6dc:	e1833c06 	orr	r3, r3, r6, lsl #24
    d6e0:	e0222001 	eor	r2, r2, r1
    d6e4:	e5d0100e 	ldrb	r1, [r0, #14]
    d6e8:	e5d06006 	ldrb	r6, [r0, #6]
    d6ec:	e02cc00e 	eor	ip, ip, lr
    d6f0:	e0233005 	eor	r3, r3, r5
    d6f4:	e5d0e00a 	ldrb	lr, [r0, #10]
    d6f8:	e5995000 	ldr	r5, [r9]
    d6fc:	e1833401 	orr	r3, r3, r1, lsl #8
    d700:	e59970f0 	ldr	r7, [r9, #240]	; 0xf0
    d704:	e18cc406 	orr	ip, ip, r6, lsl #8
    d708:	e59fa420 	ldr	sl, [pc, #1056]	; db30 <AES_encrypt+0x4d0>
    d70c:	e0241005 	eor	r1, r4, r5
    d710:	e59f541c 	ldr	r5, [pc, #1052]	; db34 <AES_encrypt+0x4d4>
    d714:	e182240e 	orr	r2, r2, lr, lsl #8
    d718:	e598600c 	ldr	r6, [r8, #12]
    d71c:	e1a000c7 	asr	r0, r7, #1
    d720:	e599e004 	ldr	lr, [r9, #4]
    d724:	e08fa00a 	add	sl, pc, sl
    d728:	e5999008 	ldr	r9, [r9, #8]
    d72c:	e08f5005 	add	r5, pc, r5
    d730:	e59fb400 	ldr	fp, [pc, #1024]	; db38 <AES_encrypt+0x4d8>
    d734:	e1a07000 	mov	r7, r0
    d738:	e58d0030 	str	r0, [sp, #48]	; 0x30
    d73c:	e0233006 	eor	r3, r3, r6
    d740:	e58d7000 	str	r7, [sp]
    d744:	e1a0600a 	mov	r6, sl
    d748:	e02c000e 	eor	r0, ip, lr
    d74c:	e08fb00b 	add	fp, pc, fp
    d750:	e0222009 	eor	r2, r2, r9
    d754:	e59d7028 	ldr	r7, [sp, #40]	; 0x28
    d758:	e1a0a005 	mov	sl, r5
    d75c:	ea00002a 	b	d80c <AES_encrypt+0x1ac>
    d760:	e7964104 	ldr	r4, [r6, r4, lsl #2]
    d764:	e797c10c 	ldr	ip, [r7, ip, lsl #2]
    d768:	e7960102 	ldr	r0, [r6, r2, lsl #2]
    d76c:	e02cc004 	eor	ip, ip, r4
    d770:	e59d4014 	ldr	r4, [sp, #20]
    d774:	e7972105 	ldr	r2, [r7, r5, lsl #2]
    d778:	e02cc001 	eor	ip, ip, r1
    d77c:	e7973103 	ldr	r3, [r7, r3, lsl #2]
    d780:	e7961104 	ldr	r1, [r6, r4, lsl #2]
    d784:	e59d4020 	ldr	r4, [sp, #32]
    d788:	e0233000 	eor	r3, r3, r0
    d78c:	e0222001 	eor	r2, r2, r1
    d790:	e7970109 	ldr	r0, [r7, r9, lsl #2]
    d794:	e9980022 	ldmib	r8, {r1, r5}
    d798:	e7964104 	ldr	r4, [r6, r4, lsl #2]
    d79c:	e0233001 	eor	r3, r3, r1
    d7a0:	e59d1008 	ldr	r1, [sp, #8]
    d7a4:	e0244000 	eor	r4, r4, r0
    d7a8:	e598000c 	ldr	r0, [r8, #12]
    d7ac:	e0222005 	eor	r2, r2, r5
    d7b0:	e79ae10e 	ldr	lr, [sl, lr, lsl #2]
    d7b4:	e0244000 	eor	r4, r4, r0
    d7b8:	e59d000c 	ldr	r0, [sp, #12]
    d7bc:	e79a5101 	ldr	r5, [sl, r1, lsl #2]
    d7c0:	e02cc00e 	eor	ip, ip, lr
    d7c4:	e59d1018 	ldr	r1, [sp, #24]
    d7c8:	e79a9100 	ldr	r9, [sl, r0, lsl #2]
    d7cc:	e0230005 	eor	r0, r3, r5
    d7d0:	e59d3004 	ldr	r3, [sp, #4]
    d7d4:	e79ae101 	ldr	lr, [sl, r1, lsl #2]
    d7d8:	e0222009 	eor	r2, r2, r9
    d7dc:	e59d5024 	ldr	r5, [sp, #36]	; 0x24
    d7e0:	e79b1103 	ldr	r1, [fp, r3, lsl #2]
    d7e4:	e024400e 	eor	r4, r4, lr
    d7e8:	e59d3010 	ldr	r3, [sp, #16]
    d7ec:	e79b5105 	ldr	r5, [fp, r5, lsl #2]
    d7f0:	e021100c 	eor	r1, r1, ip
    d7f4:	e79be103 	ldr	lr, [fp, r3, lsl #2]
    d7f8:	e0200005 	eor	r0, r0, r5
    d7fc:	e59d301c 	ldr	r3, [sp, #28]
    d800:	e022200e 	eor	r2, r2, lr
    d804:	e79b3103 	ldr	r3, [fp, r3, lsl #2]
    d808:	e0233004 	eor	r3, r3, r4
    d80c:	e1a09c20 	lsr	r9, r0, #24
    d810:	e1a04c22 	lsr	r4, r2, #24
    d814:	e7e75850 	ubfx	r5, r0, #16, #8
    d818:	e58d4014 	str	r4, [sp, #20]
    d81c:	e58d5004 	str	r5, [sp, #4]
    d820:	e6ef4072 	uxtb	r4, r2
    d824:	e7e75852 	ubfx	r5, r2, #16, #8
    d828:	e7e72452 	ubfx	r2, r2, #8, #8
    d82c:	e58d500c 	str	r5, [sp, #12]
    d830:	e7e75853 	ubfx	r5, r3, #16, #8
    d834:	e58d2008 	str	r2, [sp, #8]
    d838:	e6ef2073 	uxtb	r2, r3
    d83c:	e58d5018 	str	r5, [sp, #24]
    d840:	e7e75851 	ubfx	r5, r1, #16, #8
    d844:	e58d5020 	str	r5, [sp, #32]
    d848:	e1a05c21 	lsr	r5, r1, #24
    d84c:	e6efe070 	uxtb	lr, r0
    d850:	e1a0cc23 	lsr	ip, r3, #24
    d854:	e7e73453 	ubfx	r3, r3, #8, #8
    d858:	e58d3010 	str	r3, [sp, #16]
    d85c:	e7973109 	ldr	r3, [r7, r9, lsl #2]
    d860:	e7e79450 	ubfx	r9, r0, #8, #8
    d864:	e6ef0071 	uxtb	r0, r1
    d868:	e7962102 	ldr	r2, [r6, r2, lsl #2]
    d86c:	e7975105 	ldr	r5, [r7, r5, lsl #2]
    d870:	e7e71451 	ubfx	r1, r1, #8, #8
    d874:	e58d101c 	str	r1, [sp, #28]
    d878:	e59d1014 	ldr	r1, [sp, #20]
    d87c:	e0255002 	eor	r5, r5, r2
    d880:	e7960100 	ldr	r0, [r6, r0, lsl #2]
    d884:	e7962104 	ldr	r2, [r6, r4, lsl #2]
    d888:	e58d9024 	str	r9, [sp, #36]	; 0x24
    d88c:	e0200003 	eor	r0, r0, r3
    d890:	e797910c 	ldr	r9, [r7, ip, lsl #2]
    d894:	e796310e 	ldr	r3, [r6, lr, lsl #2]
    d898:	e7971101 	ldr	r1, [r7, r1, lsl #2]
    d89c:	e0299002 	eor	r9, r9, r2
    d8a0:	e59d2004 	ldr	r2, [sp, #4]
    d8a4:	e598c010 	ldr	ip, [r8, #16]
    d8a8:	e0211003 	eor	r1, r1, r3
    d8ac:	e5983014 	ldr	r3, [r8, #20]
    d8b0:	e79a2102 	ldr	r2, [sl, r2, lsl #2]
    d8b4:	e025500c 	eor	r5, r5, ip
    d8b8:	e0233000 	eor	r3, r3, r0
    d8bc:	e598c01c 	ldr	ip, [r8, #28]
    d8c0:	e59d000c 	ldr	r0, [sp, #12]
    d8c4:	e0255002 	eor	r5, r5, r2
    d8c8:	e029900c 	eor	r9, r9, ip
    d8cc:	e59d2020 	ldr	r2, [sp, #32]
    d8d0:	e59dc018 	ldr	ip, [sp, #24]
    d8d4:	e59de000 	ldr	lr, [sp]
    d8d8:	e79a0100 	ldr	r0, [sl, r0, lsl #2]
    d8dc:	e79ac10c 	ldr	ip, [sl, ip, lsl #2]
    d8e0:	e25ee001 	subs	lr, lr, #1
    d8e4:	e79a2102 	ldr	r2, [sl, r2, lsl #2]
    d8e8:	e0200003 	eor	r0, r0, r3
    d8ec:	e58de000 	str	lr, [sp]
    d8f0:	e598e018 	ldr	lr, [r8, #24]
    d8f4:	e0299002 	eor	r9, r9, r2
    d8f8:	e59d3008 	ldr	r3, [sp, #8]
    d8fc:	e021100e 	eor	r1, r1, lr
    d900:	e59d2024 	ldr	r2, [sp, #36]	; 0x24
    d904:	e021100c 	eor	r1, r1, ip
    d908:	e59dc010 	ldr	ip, [sp, #16]
    d90c:	e79b3103 	ldr	r3, [fp, r3, lsl #2]
    d910:	e79be102 	ldr	lr, [fp, r2, lsl #2]
    d914:	e0255003 	eor	r5, r5, r3
    d918:	e59d301c 	ldr	r3, [sp, #28]
    d91c:	e79bc10c 	ldr	ip, [fp, ip, lsl #2]
    d920:	e029900e 	eor	r9, r9, lr
    d924:	e79b2103 	ldr	r2, [fp, r3, lsl #2]
    d928:	e020000c 	eor	r0, r0, ip
    d92c:	e7e73455 	ubfx	r3, r5, #8, #8
    d930:	e1a0cc25 	lsr	ip, r5, #24
    d934:	e0211002 	eor	r1, r1, r2
    d938:	e6ef4070 	uxtb	r4, r0
    d93c:	e6ef2075 	uxtb	r2, r5
    d940:	e58d3010 	str	r3, [sp, #16]
    d944:	e7e7e850 	ubfx	lr, r0, #16, #8
    d948:	e7e73855 	ubfx	r3, r5, #16, #8
    d94c:	e58d4014 	str	r4, [sp, #20]
    d950:	e7e75459 	ubfx	r5, r9, #8, #8
    d954:	e58d3018 	str	r3, [sp, #24]
    d958:	e6ef4079 	uxtb	r4, r9
    d95c:	e1a03c20 	lsr	r3, r0, #24
    d960:	e58d5024 	str	r5, [sp, #36]	; 0x24
    d964:	e7e70450 	ubfx	r0, r0, #8, #8
    d968:	e1a05c21 	lsr	r5, r1, #24
    d96c:	e58d001c 	str	r0, [sp, #28]
    d970:	e7e70451 	ubfx	r0, r1, #8, #8
    d974:	e58d0004 	str	r0, [sp, #4]
    d978:	e7e70851 	ubfx	r0, r1, #16, #8
    d97c:	e6ef1071 	uxtb	r1, r1
    d980:	e58d0008 	str	r0, [sp, #8]
    d984:	e58d1020 	str	r1, [sp, #32]
    d988:	e7e70859 	ubfx	r0, r9, #16, #8
    d98c:	e5b81020 	ldr	r1, [r8, #32]!
    d990:	e1a09c29 	lsr	r9, r9, #24
    d994:	e58d000c 	str	r0, [sp, #12]
    d998:	1affff70 	bne	d760 <AES_encrypt+0x100>
    d99c:	e59d7004 	ldr	r7, [sp, #4]
    d9a0:	e59d8028 	ldr	r8, [sp, #40]	; 0x28
    d9a4:	e58d3000 	str	r3, [sp]
    d9a8:	e1a0300a 	mov	r3, sl
    d9ac:	e1a0a006 	mov	sl, r6
    d9b0:	e1a06005 	mov	r6, r5
    d9b4:	e1a05003 	mov	r5, r3
    d9b8:	e7988107 	ldr	r8, [r8, r7, lsl #2]
    d9bc:	e59d3030 	ldr	r3, [sp, #48]	; 0x30
    d9c0:	e59d702c 	ldr	r7, [sp, #44]	; 0x2c
    d9c4:	e2088cff 	and	r8, r8, #65280	; 0xff00
    d9c8:	e7d54104 	ldrb	r4, [r5, r4, lsl #2]
    d9cc:	e79bc10c 	ldr	ip, [fp, ip, lsl #2]
    d9d0:	e79ae10e 	ldr	lr, [sl, lr, lsl #2]
    d9d4:	e0877283 	add	r7, r7, r3, lsl #5
    d9d8:	e59d3000 	ldr	r3, [sp]
    d9dc:	e1884004 	orr	r4, r8, r4
    d9e0:	e20ee8ff 	and	lr, lr, #16711680	; 0xff0000
    d9e4:	e20cc4ff 	and	ip, ip, #-16777216	; 0xff000000
    d9e8:	e0211004 	eor	r1, r1, r4
    d9ec:	e18cc00e 	orr	ip, ip, lr
    d9f0:	e59d4034 	ldr	r4, [sp, #52]	; 0x34
    d9f4:	e02cc001 	eor	ip, ip, r1
    d9f8:	e59d8028 	ldr	r8, [sp, #40]	; 0x28
    d9fc:	e79b3103 	ldr	r3, [fp, r3, lsl #2]
    da00:	e1a01c2c 	lsr	r1, ip, #24
    da04:	e59d0024 	ldr	r0, [sp, #36]	; 0x24
    da08:	e7d5e102 	ldrb	lr, [r5, r2, lsl #2]
    da0c:	e1a0282c 	lsr	r2, ip, #16
    da10:	e5c42001 	strb	r2, [r4, #1]
    da14:	e20324ff 	and	r2, r3, #-16777216	; 0xff000000
    da18:	e59d3008 	ldr	r3, [sp, #8]
    da1c:	e7980100 	ldr	r0, [r8, r0, lsl #2]
    da20:	e5c4c003 	strb	ip, [r4, #3]
    da24:	e5c41000 	strb	r1, [r4]
    da28:	e1a0142c 	lsr	r1, ip, #8
    da2c:	e5c41002 	strb	r1, [r4, #2]
    da30:	e2000cff 	and	r0, r0, #65280	; 0xff00
    da34:	e79a1103 	ldr	r1, [sl, r3, lsl #2]
    da38:	e180000e 	orr	r0, r0, lr
    da3c:	e597e004 	ldr	lr, [r7, #4]
    da40:	e20118ff 	and	r1, r1, #16711680	; 0xff0000
    da44:	e59d3010 	ldr	r3, [sp, #16]
    da48:	e1822001 	orr	r2, r2, r1
    da4c:	e020000e 	eor	r0, r0, lr
    da50:	e0200002 	eor	r0, r0, r2
    da54:	e59d2014 	ldr	r2, [sp, #20]
    da58:	e1a01004 	mov	r1, r4
    da5c:	e7983103 	ldr	r3, [r8, r3, lsl #2]
    da60:	e5c40007 	strb	r0, [r4, #7]
    da64:	e1a04820 	lsr	r4, r0, #16
    da68:	e7d5c102 	ldrb	ip, [r5, r2, lsl #2]
    da6c:	e2033cff 	and	r3, r3, #65280	; 0xff00
    da70:	e1a02c20 	lsr	r2, r0, #24
    da74:	e5c14005 	strb	r4, [r1, #5]
    da78:	e5c12004 	strb	r2, [r1, #4]
    da7c:	e1a00420 	lsr	r0, r0, #8
    da80:	e183c00c 	orr	ip, r3, ip
    da84:	e5c10006 	strb	r0, [r1, #6]
    da88:	e79b3106 	ldr	r3, [fp, r6, lsl #2]
    da8c:	e1a04001 	mov	r4, r1
    da90:	e59d200c 	ldr	r2, [sp, #12]
    da94:	e20304ff 	and	r0, r3, #-16777216	; 0xff000000
    da98:	e5971008 	ldr	r1, [r7, #8]
    da9c:	e59d301c 	ldr	r3, [sp, #28]
    daa0:	e79a2102 	ldr	r2, [sl, r2, lsl #2]
    daa4:	e02cc001 	eor	ip, ip, r1
    daa8:	e20228ff 	and	r2, r2, #16711680	; 0xff0000
    daac:	e798e103 	ldr	lr, [r8, r3, lsl #2]
    dab0:	e1802002 	orr	r2, r0, r2
    dab4:	e59d3020 	ldr	r3, [sp, #32]
    dab8:	e02cc002 	eor	ip, ip, r2
    dabc:	e5c4c00b 	strb	ip, [r4, #11]
    dac0:	e1a0182c 	lsr	r1, ip, #16
    dac4:	e5c41009 	strb	r1, [r4, #9]
    dac8:	e59d1018 	ldr	r1, [sp, #24]
    dacc:	e1a00c2c 	lsr	r0, ip, #24
    dad0:	e7d52103 	ldrb	r2, [r5, r3, lsl #2]
    dad4:	e1a0c42c 	lsr	ip, ip, #8
    dad8:	e20e3cff 	and	r3, lr, #65280	; 0xff00
    dadc:	e5c40008 	strb	r0, [r4, #8]
    dae0:	e5c4c00a 	strb	ip, [r4, #10]
    dae4:	e1833002 	orr	r3, r3, r2
    dae8:	e79a1101 	ldr	r1, [sl, r1, lsl #2]
    daec:	e79b2109 	ldr	r2, [fp, r9, lsl #2]
    daf0:	e597000c 	ldr	r0, [r7, #12]
    daf4:	e20118ff 	and	r1, r1, #16711680	; 0xff0000
    daf8:	e20224ff 	and	r2, r2, #-16777216	; 0xff000000
    dafc:	e1822001 	orr	r2, r2, r1
    db00:	e0233000 	eor	r3, r3, r0
    db04:	e0233002 	eor	r3, r3, r2
    db08:	e5c4300f 	strb	r3, [r4, #15]
    db0c:	e1a02c23 	lsr	r2, r3, #24
    db10:	e1a01823 	lsr	r1, r3, #16
    db14:	e5c4200c 	strb	r2, [r4, #12]
    db18:	e1a02423 	lsr	r2, r3, #8
    db1c:	e5c4100d 	strb	r1, [r4, #13]
    db20:	e5c4200e 	strb	r2, [r4, #14]
    db24:	e28dd03c 	add	sp, sp, #60	; 0x3c
    db28:	e8bd8ff0 	pop	{r4, r5, r6, r7, r8, r9, sl, fp, pc}
    db2c:	00006648 	.word	0x00006648
    db30:	000071a4 	.word	0x000071a4
    db34:	0000699c 	.word	0x0000699c
    db38:	00006d7c 	.word	0x00006d7c

0000db3c <AES_decrypt>:
    db3c:	e92d4ff0 	push	{r4, r5, r6, r7, r8, r9, sl, fp, lr}
    db40:	e1a08002 	mov	r8, r2
    db44:	e59f3470 	ldr	r3, [pc, #1136]	; dfbc <AES_decrypt+0x480>
    db48:	e24dd03c 	sub	sp, sp, #60	; 0x3c
    db4c:	e5d04001 	ldrb	r4, [r0, #1]
    db50:	e5d0c005 	ldrb	ip, [r0, #5]
    db54:	e08f3003 	add	r3, pc, r3
    db58:	e5d06000 	ldrb	r6, [r0]
    db5c:	e1a0a002 	mov	sl, r2
    db60:	e5d05004 	ldrb	r5, [r0, #4]
    db64:	e1a04804 	lsl	r4, r4, #16
    db68:	e58d3008 	str	r3, [sp, #8]
    db6c:	e1a0c80c 	lsl	ip, ip, #16
    db70:	e5d0300d 	ldrb	r3, [r0, #13]
    db74:	e1844c06 	orr	r4, r4, r6, lsl #24
    db78:	e58d202c 	str	r2, [sp, #44]	; 0x2c
    db7c:	e18ccc05 	orr	ip, ip, r5, lsl #24
    db80:	e5d02009 	ldrb	r2, [r0, #9]
    db84:	e5d0e008 	ldrb	lr, [r0, #8]
    db88:	e1a03803 	lsl	r3, r3, #16
    db8c:	e58d1034 	str	r1, [sp, #52]	; 0x34
    db90:	e5d0100c 	ldrb	r1, [r0, #12]
    db94:	e1a02802 	lsl	r2, r2, #16
    db98:	e5d06003 	ldrb	r6, [r0, #3]
    db9c:	e1822c0e 	orr	r2, r2, lr, lsl #24
    dba0:	e5d05002 	ldrb	r5, [r0, #2]
    dba4:	e5d0e007 	ldrb	lr, [r0, #7]
    dba8:	e1833c01 	orr	r3, r3, r1, lsl #24
    dbac:	e5d01006 	ldrb	r1, [r0, #6]
    dbb0:	e0244006 	eor	r4, r4, r6
    dbb4:	e02cc00e 	eor	ip, ip, lr
    dbb8:	e5d0600b 	ldrb	r6, [r0, #11]
    dbbc:	e5d0e00a 	ldrb	lr, [r0, #10]
    dbc0:	e1844405 	orr	r4, r4, r5, lsl #8
    dbc4:	e5d0500f 	ldrb	r5, [r0, #15]
    dbc8:	e18cc401 	orr	ip, ip, r1, lsl #8
    dbcc:	e5d0000e 	ldrb	r0, [r0, #14]
    dbd0:	e0222006 	eor	r2, r2, r6
    dbd4:	e59810f0 	ldr	r1, [r8, #240]	; 0xf0
    dbd8:	e0233005 	eor	r3, r3, r5
    dbdc:	e182240e 	orr	r2, r2, lr, lsl #8
    dbe0:	e5985000 	ldr	r5, [r8]
    dbe4:	e598e004 	ldr	lr, [r8, #4]
    dbe8:	e1833400 	orr	r3, r3, r0, lsl #8
    dbec:	e598600c 	ldr	r6, [r8, #12]
    dbf0:	e1a010c1 	asr	r1, r1, #1
    dbf4:	e5980008 	ldr	r0, [r8, #8]
    dbf8:	e1a07001 	mov	r7, r1
    dbfc:	e59f93bc 	ldr	r9, [pc, #956]	; dfc0 <AES_decrypt+0x484>
    dc00:	e0255004 	eor	r5, r5, r4
    dc04:	e59fb3b8 	ldr	fp, [pc, #952]	; dfc4 <AES_decrypt+0x488>
    dc08:	e0222000 	eor	r2, r2, r0
    dc0c:	e59f83b4 	ldr	r8, [pc, #948]	; dfc8 <AES_decrypt+0x48c>
    dc10:	e08f9009 	add	r9, pc, r9
    dc14:	e58d1030 	str	r1, [sp, #48]	; 0x30
    dc18:	e08fb00b 	add	fp, pc, fp
    dc1c:	e58d7004 	str	r7, [sp, #4]
    dc20:	e02c100e 	eor	r1, ip, lr
    dc24:	e08f8008 	add	r8, pc, r8
    dc28:	e0233006 	eor	r3, r3, r6
    dc2c:	e59d7008 	ldr	r7, [sp, #8]
    dc30:	ea00002a 	b	dce0 <AES_decrypt+0x1a4>
    dc34:	e7975104 	ldr	r5, [r7, r4, lsl #2]
    dc38:	e7970100 	ldr	r0, [r7, r0, lsl #2]
    dc3c:	e7974101 	ldr	r4, [r7, r1, lsl #2]
    dc40:	e799e10e 	ldr	lr, [r9, lr, lsl #2]
    dc44:	e7992102 	ldr	r2, [r9, r2, lsl #2]
    dc48:	e799c10c 	ldr	ip, [r9, ip, lsl #2]
    dc4c:	e02ee000 	eor	lr, lr, r0
    dc50:	e59d101c 	ldr	r1, [sp, #28]
    dc54:	e0222004 	eor	r2, r2, r4
    dc58:	e99a0011 	ldmib	sl, {r0, r4}
    dc5c:	e02cc005 	eor	ip, ip, r5
    dc60:	e02cc003 	eor	ip, ip, r3
    dc64:	e7971101 	ldr	r1, [r7, r1, lsl #2]
    dc68:	e7993106 	ldr	r3, [r9, r6, lsl #2]
    dc6c:	e02ee000 	eor	lr, lr, r0
    dc70:	e59d0020 	ldr	r0, [sp, #32]
    dc74:	e0222004 	eor	r2, r2, r4
    dc78:	e0233001 	eor	r3, r3, r1
    dc7c:	e59a100c 	ldr	r1, [sl, #12]
    dc80:	e79b5100 	ldr	r5, [fp, r0, lsl #2]
    dc84:	e0233001 	eor	r3, r3, r1
    dc88:	e59d0028 	ldr	r0, [sp, #40]	; 0x28
    dc8c:	e59d100c 	ldr	r1, [sp, #12]
    dc90:	e02cc005 	eor	ip, ip, r5
    dc94:	e59d5014 	ldr	r5, [sp, #20]
    dc98:	e79b0100 	ldr	r0, [fp, r0, lsl #2]
    dc9c:	e79b4101 	ldr	r4, [fp, r1, lsl #2]
    dca0:	e59d1024 	ldr	r1, [sp, #36]	; 0x24
    dca4:	e02ee000 	eor	lr, lr, r0
    dca8:	e59d0008 	ldr	r0, [sp, #8]
    dcac:	e0222004 	eor	r2, r2, r4
    dcb0:	e79b6105 	ldr	r6, [fp, r5, lsl #2]
    dcb4:	e7985101 	ldr	r5, [r8, r1, lsl #2]
    dcb8:	e7981100 	ldr	r1, [r8, r0, lsl #2]
    dcbc:	e0233006 	eor	r3, r3, r6
    dcc0:	e59d0010 	ldr	r0, [sp, #16]
    dcc4:	e025500c 	eor	r5, r5, ip
    dcc8:	e59dc018 	ldr	ip, [sp, #24]
    dccc:	e021100e 	eor	r1, r1, lr
    dcd0:	e7980100 	ldr	r0, [r8, r0, lsl #2]
    dcd4:	e798c10c 	ldr	ip, [r8, ip, lsl #2]
    dcd8:	e0222000 	eor	r2, r2, r0
    dcdc:	e023300c 	eor	r3, r3, ip
    dce0:	e6efe072 	uxtb	lr, r2
    dce4:	e1a06c22 	lsr	r6, r2, #24
    dce8:	e7e74853 	ubfx	r4, r3, #16, #8
    dcec:	e58d4008 	str	r4, [sp, #8]
    dcf0:	e7e74855 	ubfx	r4, r5, #16, #8
    dcf4:	e58d4014 	str	r4, [sp, #20]
    dcf8:	e7e74852 	ubfx	r4, r2, #16, #8
    dcfc:	e7e72452 	ubfx	r2, r2, #8, #8
    dd00:	e58d4020 	str	r4, [sp, #32]
    dd04:	e7e74851 	ubfx	r4, r1, #16, #8
    dd08:	e58d200c 	str	r2, [sp, #12]
    dd0c:	e6ef2071 	uxtb	r2, r1
    dd10:	e58d401c 	str	r4, [sp, #28]
    dd14:	e1a04c25 	lsr	r4, r5, #24
    dd18:	e58de010 	str	lr, [sp, #16]
    dd1c:	e6efe073 	uxtb	lr, r3
    dd20:	e1a0cc23 	lsr	ip, r3, #24
    dd24:	e7972102 	ldr	r2, [r7, r2, lsl #2]
    dd28:	e7994104 	ldr	r4, [r9, r4, lsl #2]
    dd2c:	e7e73453 	ubfx	r3, r3, #8, #8
    dd30:	e58d3018 	str	r3, [sp, #24]
    dd34:	e1a03c21 	lsr	r3, r1, #24
    dd38:	e7e71451 	ubfx	r1, r1, #8, #8
    dd3c:	e58d1024 	str	r1, [sp, #36]	; 0x24
    dd40:	e59d1010 	ldr	r1, [sp, #16]
    dd44:	e6ef0075 	uxtb	r0, r5
    dd48:	e0244002 	eor	r4, r4, r2
    dd4c:	e7e75455 	ubfx	r5, r5, #8, #8
    dd50:	e797210e 	ldr	r2, [r7, lr, lsl #2]
    dd54:	e58d5010 	str	r5, [sp, #16]
    dd58:	e7995106 	ldr	r5, [r9, r6, lsl #2]
    dd5c:	e7971101 	ldr	r1, [r7, r1, lsl #2]
    dd60:	e7993103 	ldr	r3, [r9, r3, lsl #2]
    dd64:	e0255002 	eor	r5, r5, r2
    dd68:	e59a2010 	ldr	r2, [sl, #16]
    dd6c:	e0233001 	eor	r3, r3, r1
    dd70:	e7970100 	ldr	r0, [r7, r0, lsl #2]
    dd74:	e799110c 	ldr	r1, [r9, ip, lsl #2]
    dd78:	e0244002 	eor	r4, r4, r2
    dd7c:	e59a201c 	ldr	r2, [sl, #28]
    dd80:	e0200001 	eor	r0, r0, r1
    dd84:	e59ac014 	ldr	ip, [sl, #20]
    dd88:	e0200002 	eor	r0, r0, r2
    dd8c:	e59d2020 	ldr	r2, [sp, #32]
    dd90:	e59a1018 	ldr	r1, [sl, #24]
    dd94:	e023300c 	eor	r3, r3, ip
    dd98:	e59dc008 	ldr	ip, [sp, #8]
    dd9c:	e79b6102 	ldr	r6, [fp, r2, lsl #2]
    dda0:	e0255001 	eor	r5, r5, r1
    dda4:	e59d201c 	ldr	r2, [sp, #28]
    dda8:	e59d1014 	ldr	r1, [sp, #20]
    ddac:	e0200006 	eor	r0, r0, r6
    ddb0:	e59de004 	ldr	lr, [sp, #4]
    ddb4:	e79bc10c 	ldr	ip, [fp, ip, lsl #2]
    ddb8:	e79b2102 	ldr	r2, [fp, r2, lsl #2]
    ddbc:	e25ee001 	subs	lr, lr, #1
    ddc0:	e58de004 	str	lr, [sp, #4]
    ddc4:	e024400c 	eor	r4, r4, ip
    ddc8:	e79be101 	ldr	lr, [fp, r1, lsl #2]
    ddcc:	e0255002 	eor	r5, r5, r2
    ddd0:	e59d100c 	ldr	r1, [sp, #12]
    ddd4:	e023300e 	eor	r3, r3, lr
    ddd8:	e59d2010 	ldr	r2, [sp, #16]
    dddc:	e798c101 	ldr	ip, [r8, r1, lsl #2]
    dde0:	e59d1018 	ldr	r1, [sp, #24]
    dde4:	e7982102 	ldr	r2, [r8, r2, lsl #2]
    dde8:	e024400c 	eor	r4, r4, ip
    ddec:	e798e101 	ldr	lr, [r8, r1, lsl #2]
    ddf0:	e0255002 	eor	r5, r5, r2
    ddf4:	e59d1024 	ldr	r1, [sp, #36]	; 0x24
    ddf8:	e7e72854 	ubfx	r2, r4, #16, #8
    ddfc:	e023300e 	eor	r3, r3, lr
    de00:	e1a0cc24 	lsr	ip, r4, #24
    de04:	e58d2028 	str	r2, [sp, #40]	; 0x28
    de08:	e6ef2074 	uxtb	r2, r4
    de0c:	e7986101 	ldr	r6, [r8, r1, lsl #2]
    de10:	e1a0ec23 	lsr	lr, r3, #24
    de14:	e7e71454 	ubfx	r1, r4, #8, #8
    de18:	e58d201c 	str	r2, [sp, #28]
    de1c:	e0266000 	eor	r6, r6, r0
    de20:	e58d1010 	str	r1, [sp, #16]
    de24:	e6ef4073 	uxtb	r4, r3
    de28:	e7e71853 	ubfx	r1, r3, #16, #8
    de2c:	e7e70456 	ubfx	r0, r6, #8, #8
    de30:	e7e73453 	ubfx	r3, r3, #8, #8
    de34:	e58d100c 	str	r1, [sp, #12]
    de38:	e1a02c25 	lsr	r2, r5, #24
    de3c:	e58d3018 	str	r3, [sp, #24]
    de40:	e6ef1076 	uxtb	r1, r6
    de44:	e7e73856 	ubfx	r3, r6, #16, #8
    de48:	e58d0008 	str	r0, [sp, #8]
    de4c:	e58d3020 	str	r3, [sp, #32]
    de50:	e6ef0075 	uxtb	r0, r5
    de54:	e7e73455 	ubfx	r3, r5, #8, #8
    de58:	e1a06c26 	lsr	r6, r6, #24
    de5c:	e58d3024 	str	r3, [sp, #36]	; 0x24
    de60:	e7e75855 	ubfx	r5, r5, #16, #8
    de64:	e5ba3020 	ldr	r3, [sl, #32]!
    de68:	e58d5014 	str	r5, [sp, #20]
    de6c:	1affff70 	bne	dc34 <AES_decrypt+0xf8>
    de70:	e1a0500c 	mov	r5, ip
    de74:	e59fc150 	ldr	ip, [pc, #336]	; dfcc <AES_decrypt+0x490>
    de78:	e59d7020 	ldr	r7, [sp, #32]
    de7c:	e1a09006 	mov	r9, r6
    de80:	e08fc00c 	add	ip, pc, ip
    de84:	e59d6024 	ldr	r6, [sp, #36]	; 0x24
    de88:	e1cda2dc 	ldrd	sl, [sp, #44]	; 0x2c
    de8c:	e7dc4004 	ldrb	r4, [ip, r4]
    de90:	e7dc5005 	ldrb	r5, [ip, r5]
    de94:	e7dc7007 	ldrb	r7, [ip, r7]
    de98:	e0233004 	eor	r3, r3, r4
    de9c:	e7dc6006 	ldrb	r6, [ip, r6]
    dea0:	e08aa28b 	add	sl, sl, fp, lsl #5
    dea4:	e0233c05 	eor	r3, r3, r5, lsl #24
    dea8:	e59d8028 	ldr	r8, [sp, #40]	; 0x28
    deac:	e0233807 	eor	r3, r3, r7, lsl #16
    deb0:	e7dc5000 	ldrb	r5, [ip, r0]
    deb4:	e0233406 	eor	r3, r3, r6, lsl #8
    deb8:	e59d6034 	ldr	r6, [sp, #52]	; 0x34
    debc:	e7dc700e 	ldrb	r7, [ip, lr]
    dec0:	e1a00823 	lsr	r0, r3, #16
    dec4:	e1a0ec23 	lsr	lr, r3, #24
    dec8:	e5c63003 	strb	r3, [r6, #3]
    decc:	e1a03423 	lsr	r3, r3, #8
    ded0:	e5c6e000 	strb	lr, [r6]
    ded4:	e1a0e006 	mov	lr, r6
    ded8:	e5c63002 	strb	r3, [r6, #2]
    dedc:	e5c60001 	strb	r0, [r6, #1]
    dee0:	e59d3008 	ldr	r3, [sp, #8]
    dee4:	e59a0004 	ldr	r0, [sl, #4]
    dee8:	e7dc4008 	ldrb	r4, [ip, r8]
    deec:	e7dc3003 	ldrb	r3, [ip, r3]
    def0:	e0255000 	eor	r5, r5, r0
    def4:	e0255c07 	eor	r5, r5, r7, lsl #24
    def8:	e1a0700e 	mov	r7, lr
    defc:	e0255804 	eor	r5, r5, r4, lsl #16
    df00:	e59d4010 	ldr	r4, [sp, #16]
    df04:	e0253403 	eor	r3, r5, r3, lsl #8
    df08:	e59d000c 	ldr	r0, [sp, #12]
    df0c:	e5ce3007 	strb	r3, [lr, #7]
    df10:	e59de01c 	ldr	lr, [sp, #28]
    df14:	e1a05c23 	lsr	r5, r3, #24
    df18:	e7dc6004 	ldrb	r6, [ip, r4]
    df1c:	e1a04823 	lsr	r4, r3, #16
    df20:	e5c75004 	strb	r5, [r7, #4]
    df24:	e1a03423 	lsr	r3, r3, #8
    df28:	e5c74005 	strb	r4, [r7, #5]
    df2c:	e5c73006 	strb	r3, [r7, #6]
    df30:	e7dc0000 	ldrb	r0, [ip, r0]
    df34:	e7dc3009 	ldrb	r3, [ip, r9]
    df38:	e7dc1001 	ldrb	r1, [ip, r1]
    df3c:	e7dc2002 	ldrb	r2, [ip, r2]
    df40:	e7dce00e 	ldrb	lr, [ip, lr]
    df44:	e59a5008 	ldr	r5, [sl, #8]
    df48:	e59d4014 	ldr	r4, [sp, #20]
    df4c:	e0211005 	eor	r1, r1, r5
    df50:	e59d5018 	ldr	r5, [sp, #24]
    df54:	e0212c02 	eor	r2, r1, r2, lsl #24
    df58:	e0222800 	eor	r2, r2, r0, lsl #16
    df5c:	e7dc4004 	ldrb	r4, [ip, r4]
    df60:	e0222406 	eor	r2, r2, r6, lsl #8
    df64:	e5c7200b 	strb	r2, [r7, #11]
    df68:	e7dcc005 	ldrb	ip, [ip, r5]
    df6c:	e1a00c22 	lsr	r0, r2, #24
    df70:	e1a01822 	lsr	r1, r2, #16
    df74:	e5c70008 	strb	r0, [r7, #8]
    df78:	e1a02422 	lsr	r2, r2, #8
    df7c:	e5c71009 	strb	r1, [r7, #9]
    df80:	e5c7200a 	strb	r2, [r7, #10]
    df84:	e59a200c 	ldr	r2, [sl, #12]
    df88:	e02ee002 	eor	lr, lr, r2
    df8c:	e02e3c03 	eor	r3, lr, r3, lsl #24
    df90:	e0234804 	eor	r4, r3, r4, lsl #16
    df94:	e024440c 	eor	r4, r4, ip, lsl #8
    df98:	e5c7400f 	strb	r4, [r7, #15]
    df9c:	e1a03c24 	lsr	r3, r4, #24
    dfa0:	e1a02824 	lsr	r2, r4, #16
    dfa4:	e5c7300c 	strb	r3, [r7, #12]
    dfa8:	e1a03424 	lsr	r3, r4, #8
    dfac:	e5c7200d 	strb	r2, [r7, #13]
    dfb0:	e5c7300e 	strb	r3, [r7, #14]
    dfb4:	e28dd03c 	add	sp, sp, #60	; 0x3c
    dfb8:	e8bd8ff0 	pop	{r4, r5, r6, r7, r8, r9, sl, fp, pc}
    dfbc:	00005c74 	.word	0x00005c74
    dfc0:	00004fb8 	.word	0x00004fb8
    dfc4:	000053b0 	.word	0x000053b0
    dfc8:	000057a4 	.word	0x000057a4
    dfcc:	00005d48 	.word	0x00005d48

0000dfd0 <async_local_cleanup>:
    dfd0:	e12fff1e 	bx	lr

0000dfd4 <async_job_free.part.0>:
    dfd4:	e92d4070 	push	{r4, r5, r6, lr}
    dfd8:	e3a02000 	mov	r2, #0
    dfdc:	e59f4024 	ldr	r4, [pc, #36]	; e008 <async_job_free.part.0+0x34>
    dfe0:	e1a05000 	mov	r5, r0
    dfe4:	e5900008 	ldr	r0, [r0, #8]
    dfe8:	e08f4004 	add	r4, pc, r4
    dfec:	e1a01004 	mov	r1, r4
    dff0:	eb000786 	bl	fe10 <CRYPTO_free>
    dff4:	e1a01004 	mov	r1, r4
    dff8:	e1a00005 	mov	r0, r5
    dffc:	e3a02000 	mov	r2, #0
    e000:	e8bd4070 	pop	{r4, r5, r6, lr}
    e004:	ea000781 	b	fe10 <CRYPTO_free>
    e008:	000046c8 	.word	0x000046c8

0000e00c <async_empty_pool.part.1>:
    e00c:	e92d4010 	push	{r4, lr}
    e010:	e1a04000 	mov	r4, r0
    e014:	e5940000 	ldr	r0, [r4]
    e018:	eb0008bf 	bl	1031c <OPENSSL_sk_pop>
    e01c:	e3500000 	cmp	r0, #0
    e020:	08bd8010 	popeq	{r4, pc}
    e024:	ebffffea 	bl	dfd4 <async_job_free.part.0>
    e028:	eafffff9 	b	e014 <async_empty_pool.part.1+0x8>

0000e02c <async_init>:
    e02c:	e92d4070 	push	{r4, r5, r6, lr}
    e030:	e3a01000 	mov	r1, #0
    e034:	e59f5044 	ldr	r5, [pc, #68]	; e080 <async_init+0x54>
    e038:	e08f5005 	add	r5, pc, r5
    e03c:	e1a00005 	mov	r0, r5
    e040:	eb000900 	bl	10448 <CRYPTO_THREAD_init_local>
    e044:	e2504000 	subs	r4, r0, #0
    e048:	1a000001 	bne	e054 <async_init+0x28>
    e04c:	e1a00004 	mov	r0, r4
    e050:	e8bd8070 	pop	{r4, r5, r6, pc}
    e054:	e59f0028 	ldr	r0, [pc, #40]	; e084 <async_init+0x58>
    e058:	e3a01000 	mov	r1, #0
    e05c:	e08f0000 	add	r0, pc, r0
    e060:	eb0008f8 	bl	10448 <CRYPTO_THREAD_init_local>
    e064:	e2504000 	subs	r4, r0, #0
    e068:	13a04001 	movne	r4, #1
    e06c:	1afffff6 	bne	e04c <async_init+0x20>
    e070:	e1a00005 	mov	r0, r5
    e074:	eb00091a 	bl	104e4 <CRYPTO_THREAD_cleanup_local>
    e078:	e1a00004 	mov	r0, r4
    e07c:	e8bd8070 	pop	{r4, r5, r6, pc}
    e080:	000074cc 	.word	0x000074cc
    e084:	000074ac 	.word	0x000074ac

0000e088 <async_delete_thread_state>:
    e088:	e59f0094 	ldr	r0, [pc, #148]	; e124 <async_delete_thread_state+0x9c>
    e08c:	e92d4070 	push	{r4, r5, r6, lr}
    e090:	e08f0000 	add	r0, pc, r0
    e094:	eb0008fd 	bl	10490 <CRYPTO_THREAD_get_local>
    e098:	e2504000 	subs	r4, r0, #0
    e09c:	0a00000f 	beq	e0e0 <async_delete_thread_state+0x58>
    e0a0:	e5943000 	ldr	r3, [r4]
    e0a4:	e3530000 	cmp	r3, #0
    e0a8:	0a000001 	beq	e0b4 <async_delete_thread_state+0x2c>
    e0ac:	ebffffd6 	bl	e00c <async_empty_pool.part.1>
    e0b0:	e5943000 	ldr	r3, [r4]
    e0b4:	e1a00003 	mov	r0, r3
    e0b8:	eb0008a5 	bl	10354 <OPENSSL_sk_free>
    e0bc:	e59f1064 	ldr	r1, [pc, #100]	; e128 <async_delete_thread_state+0xa0>
    e0c0:	e1a00004 	mov	r0, r4
    e0c4:	e3a02000 	mov	r2, #0
    e0c8:	e08f1001 	add	r1, pc, r1
    e0cc:	eb00074f 	bl	fe10 <CRYPTO_free>
    e0d0:	e59f0054 	ldr	r0, [pc, #84]	; e12c <async_delete_thread_state+0xa4>
    e0d4:	e3a01000 	mov	r1, #0
    e0d8:	e08f0000 	add	r0, pc, r0
    e0dc:	eb0008f5 	bl	104b8 <CRYPTO_THREAD_set_local>
    e0e0:	e59f4048 	ldr	r4, [pc, #72]	; e130 <async_delete_thread_state+0xa8>
    e0e4:	ebffffb9 	bl	dfd0 <async_local_cleanup>
    e0e8:	e08f4004 	add	r4, pc, r4
    e0ec:	e1a00004 	mov	r0, r4
    e0f0:	eb0008e6 	bl	10490 <CRYPTO_THREAD_get_local>
    e0f4:	e3a01000 	mov	r1, #0
    e0f8:	e1a05000 	mov	r5, r0
    e0fc:	e1a00004 	mov	r0, r4
    e100:	eb0008ec 	bl	104b8 <CRYPTO_THREAD_set_local>
    e104:	e3500000 	cmp	r0, #0
    e108:	08bd8070 	popeq	{r4, r5, r6, pc}
    e10c:	e59f1020 	ldr	r1, [pc, #32]	; e134 <async_delete_thread_state+0xac>
    e110:	e1a00005 	mov	r0, r5
    e114:	e3a02000 	mov	r2, #0
    e118:	e08f1001 	add	r1, pc, r1
    e11c:	e8bd4070 	pop	{r4, r5, r6, lr}
    e120:	ea00073a 	b	fe10 <CRYPTO_free>
    e124:	00007478 	.word	0x00007478
    e128:	000045e8 	.word	0x000045e8
    e12c:	00007430 	.word	0x00007430
    e130:	0000741c 	.word	0x0000741c
    e134:	00004598 	.word	0x00004598

0000e138 <make_kn>:
    e138:	e5d1c000 	ldrb	ip, [r1]
    e13c:	e3520001 	cmp	r2, #1
    e140:	e92d4070 	push	{r4, r5, r6, lr}
    e144:	e1a043ac 	lsr	r4, ip, #7
    e148:	da00000a 	ble	e178 <make_kn+0x40>
    e14c:	e2426001 	sub	r6, r2, #1
    e150:	e240e001 	sub	lr, r0, #1
    e154:	e0815006 	add	r5, r1, r6
    e158:	e1a0308c 	lsl	r3, ip, #1
    e15c:	e5f1c001 	ldrb	ip, [r1, #1]!
    e160:	e6af3073 	sxtb	r3, r3
    e164:	e1550001 	cmp	r5, r1
    e168:	e18333ac 	orr	r3, r3, ip, lsr #7
    e16c:	e5ee3001 	strb	r3, [lr, #1]!
    e170:	1afffff8 	bne	e158 <make_kn+0x20>
    e174:	e0800006 	add	r0, r0, r6
    e178:	e3520010 	cmp	r2, #16
    e17c:	e2643000 	rsb	r3, r4, #0
    e180:	e7a6c05c 	sbfx	ip, ip, #0, #7
    e184:	13a0201b 	movne	r2, #27
    e188:	03e02078 	mvneq	r2, #120	; 0x78
    e18c:	e0033002 	and	r3, r3, r2
    e190:	e023c08c 	eor	ip, r3, ip, lsl #1
    e194:	e5c0c000 	strb	ip, [r0]
    e198:	e8bd8070 	pop	{r4, r5, r6, pc}

0000e19c <CMAC_CTX_new>:
    e19c:	e92d4030 	push	{r4, r5, lr}
    e1a0:	e3a02000 	mov	r2, #0
    e1a4:	e59f5070 	ldr	r5, [pc, #112]	; e21c <CMAC_CTX_new+0x80>
    e1a8:	e24dd00c 	sub	sp, sp, #12
    e1ac:	e3a00088 	mov	r0, #136	; 0x88
    e1b0:	e08f5005 	add	r5, pc, r5
    e1b4:	e1a01005 	mov	r1, r5
    e1b8:	eb000724 	bl	fe50 <CRYPTO_malloc>
    e1bc:	e2504000 	subs	r4, r0, #0
    e1c0:	0a000009 	beq	e1ec <CMAC_CTX_new+0x50>
    e1c4:	eb0002d1 	bl	ed10 <EVP_CIPHER_CTX_new>
    e1c8:	e3500000 	cmp	r0, #0
    e1cc:	e1a02000 	mov	r2, r0
    e1d0:	e5840000 	str	r0, [r4]
    e1d4:	13e03000 	mvnne	r3, #0
    e1d8:	15843084 	strne	r3, [r4, #132]	; 0x84
    e1dc:	0a000009 	beq	e208 <CMAC_CTX_new+0x6c>
    e1e0:	e1a00004 	mov	r0, r4
    e1e4:	e28dd00c 	add	sp, sp, #12
    e1e8:	e8bd8030 	pop	{r4, r5, pc}
    e1ec:	e58d4000 	str	r4, [sp]
    e1f0:	e1a03004 	mov	r3, r4
    e1f4:	e3a02041 	mov	r2, #65	; 0x41
    e1f8:	e3a01078 	mov	r1, #120	; 0x78
    e1fc:	e3a0000f 	mov	r0, #15
    e200:	eb0001cc 	bl	e938 <ERR_put_error>
    e204:	eafffff5 	b	e1e0 <CMAC_CTX_new+0x44>
    e208:	e1a00004 	mov	r0, r4
    e20c:	e1a01005 	mov	r1, r5
    e210:	e1a04002 	mov	r4, r2
    e214:	eb0006fd 	bl	fe10 <CRYPTO_free>
    e218:	eafffff0 	b	e1e0 <CMAC_CTX_new+0x44>
    e21c:	00004500 	.word	0x00004500

0000e220 <CMAC_CTX_cleanup>:
    e220:	e92d4070 	push	{r4, r5, r6, lr}
    e224:	e1a05000 	mov	r5, r0
    e228:	e1a04000 	mov	r4, r0
    e22c:	e4950044 	ldr	r0, [r5], #68	; 0x44
    e230:	eb000293 	bl	ec84 <EVP_CIPHER_CTX_reset>
    e234:	e3a01020 	mov	r1, #32
    e238:	e1a00005 	mov	r0, r5
    e23c:	eb000738 	bl	ff24 <OPENSSL_cleanse>
    e240:	e2840004 	add	r0, r4, #4
    e244:	e3a01020 	mov	r1, #32
    e248:	eb000735 	bl	ff24 <OPENSSL_cleanse>
    e24c:	e2840024 	add	r0, r4, #36	; 0x24
    e250:	e3a01020 	mov	r1, #32
    e254:	eb000732 	bl	ff24 <OPENSSL_cleanse>
    e258:	e2840064 	add	r0, r4, #100	; 0x64
    e25c:	e3a01020 	mov	r1, #32
    e260:	eb00072f 	bl	ff24 <OPENSSL_cleanse>
    e264:	e3e03000 	mvn	r3, #0
    e268:	e5843084 	str	r3, [r4, #132]	; 0x84
    e26c:	e8bd8070 	pop	{r4, r5, r6, pc}

0000e270 <CMAC_CTX_free>:
    e270:	e92d4010 	push	{r4, lr}
    e274:	e2504000 	subs	r4, r0, #0
    e278:	08bd8010 	popeq	{r4, pc}
    e27c:	ebffffe7 	bl	e220 <CMAC_CTX_cleanup>
    e280:	e5940000 	ldr	r0, [r4]
    e284:	eb0002a7 	bl	ed28 <EVP_CIPHER_CTX_free>
    e288:	e59f1010 	ldr	r1, [pc, #16]	; e2a0 <CMAC_CTX_free+0x30>
    e28c:	e1a00004 	mov	r0, r4
    e290:	e3a02000 	mov	r2, #0
    e294:	e08f1001 	add	r1, pc, r1
    e298:	e8bd4010 	pop	{r4, lr}
    e29c:	ea0006db 	b	fe10 <CRYPTO_free>
    e2a0:	0000441c 	.word	0x0000441c

0000e2a4 <CMAC_Init>:
    e2a4:	e16fcf13 	clz	ip, r3
    e2a8:	e92d41f0 	push	{r4, r5, r6, r7, r8, lr}
    e2ac:	e3510000 	cmp	r1, #0
    e2b0:	e1a0c2ac 	lsr	ip, ip, #5
    e2b4:	13a0c000 	movne	ip, #0
    e2b8:	e24dd008 	sub	sp, sp, #8
    e2bc:	e1a04000 	mov	r4, r0
    e2c0:	e1a05002 	mov	r5, r2
    e2c4:	e35c0000 	cmp	ip, #0
    e2c8:	0a000006 	beq	e2e8 <CMAC_Init+0x44>
    e2cc:	e59d3020 	ldr	r3, [sp, #32]
    e2d0:	e3530000 	cmp	r3, #0
    e2d4:	03520000 	cmpeq	r2, #0
    e2d8:	0a000026 	beq	e378 <CMAC_Init+0xd4>
    e2dc:	e3a00001 	mov	r0, #1
    e2e0:	e28dd008 	add	sp, sp, #8
    e2e4:	e8bd81f0 	pop	{r4, r5, r6, r7, r8, pc}
    e2e8:	e1a02003 	mov	r2, r3
    e2ec:	e1a06001 	mov	r6, r1
    e2f0:	e3530000 	cmp	r3, #0
    e2f4:	0a000007 	beq	e318 <CMAC_Init+0x74>
    e2f8:	e5900000 	ldr	r0, [r0]
    e2fc:	e1a01002 	mov	r1, r2
    e300:	e1a0300c 	mov	r3, ip
    e304:	e58dc000 	str	ip, [sp]
    e308:	e59d2020 	ldr	r2, [sp, #32]
    e30c:	eb000384 	bl	f124 <EVP_EncryptInit_ex>
    e310:	e3500000 	cmp	r0, #0
    e314:	0a000014 	beq	e36c <CMAC_Init+0xc8>
    e318:	e3560000 	cmp	r6, #0
    e31c:	0affffee 	beq	e2dc <CMAC_Init+0x38>
    e320:	e5940000 	ldr	r0, [r4]
    e324:	eb0003c9 	bl	f250 <EVP_CIPHER_CTX_cipher>
    e328:	e3500000 	cmp	r0, #0
    e32c:	0a00000e 	beq	e36c <CMAC_Init+0xc8>
    e330:	e1a01005 	mov	r1, r5
    e334:	e5940000 	ldr	r0, [r4]
    e338:	eb000382 	bl	f148 <EVP_CIPHER_CTX_set_key_length>
    e33c:	e3500000 	cmp	r0, #0
    e340:	0a000009 	beq	e36c <CMAC_Init+0xc8>
    e344:	e59f5128 	ldr	r5, [pc, #296]	; e474 <CMAC_Init+0x1d0>
    e348:	e3a02000 	mov	r2, #0
    e34c:	e5940000 	ldr	r0, [r4]
    e350:	e1a03006 	mov	r3, r6
    e354:	e08f5005 	add	r5, pc, r5
    e358:	e1a01002 	mov	r1, r2
    e35c:	e58d5000 	str	r5, [sp]
    e360:	eb00036f 	bl	f124 <EVP_EncryptInit_ex>
    e364:	e3500000 	cmp	r0, #0
    e368:	1a00001a 	bne	e3d8 <CMAC_Init+0x134>
    e36c:	e3a00000 	mov	r0, #0
    e370:	e28dd008 	add	sp, sp, #8
    e374:	e8bd81f0 	pop	{r4, r5, r6, r7, r8, pc}
    e378:	e5903084 	ldr	r3, [r0, #132]	; 0x84
    e37c:	e3730001 	cmn	r3, #1
    e380:	0afffff9 	beq	e36c <CMAC_Init+0xc8>
    e384:	e59f10ec 	ldr	r1, [pc, #236]	; e478 <CMAC_Init+0x1d4>
    e388:	e3a03000 	mov	r3, #0
    e38c:	e5900000 	ldr	r0, [r0]
    e390:	e1a02003 	mov	r2, r3
    e394:	e08f1001 	add	r1, pc, r1
    e398:	e58d1000 	str	r1, [sp]
    e39c:	e1a01003 	mov	r1, r3
    e3a0:	eb00035f 	bl	f124 <EVP_EncryptInit_ex>
    e3a4:	e3500000 	cmp	r0, #0
    e3a8:	0affffef 	beq	e36c <CMAC_Init+0xc8>
    e3ac:	e1a05004 	mov	r5, r4
    e3b0:	e4950044 	ldr	r0, [r5], #68	; 0x44
    e3b4:	eb00039c 	bl	f22c <EVP_CIPHER_CTX_block_size>
    e3b8:	e3a01000 	mov	r1, #0
    e3bc:	e1a02000 	mov	r2, r0
    e3c0:	e1a00005 	mov	r0, r5
    e3c4:	eb000db6 	bl	11aa4 <memset>
    e3c8:	e3a03000 	mov	r3, #0
    e3cc:	e3a00001 	mov	r0, #1
    e3d0:	e5843084 	str	r3, [r4, #132]	; 0x84
    e3d4:	eaffffc1 	b	e2e0 <CMAC_Init+0x3c>
    e3d8:	e1a06004 	mov	r6, r4
    e3dc:	e4960044 	ldr	r0, [r6], #68	; 0x44
    e3e0:	eb000391 	bl	f22c <EVP_CIPHER_CTX_block_size>
    e3e4:	e1a02005 	mov	r2, r5
    e3e8:	e1a03000 	mov	r3, r0
    e3ec:	e1a07000 	mov	r7, r0
    e3f0:	e1a01006 	mov	r1, r6
    e3f4:	e5940000 	ldr	r0, [r4]
    e3f8:	eb00038e 	bl	f238 <EVP_Cipher>
    e3fc:	e3500000 	cmp	r0, #0
    e400:	0affffd9 	beq	e36c <CMAC_Init+0xc8>
    e404:	e2848004 	add	r8, r4, #4
    e408:	e1a02007 	mov	r2, r7
    e40c:	e1a00008 	mov	r0, r8
    e410:	e1a01006 	mov	r1, r6
    e414:	ebffff47 	bl	e138 <make_kn>
    e418:	e1a02007 	mov	r2, r7
    e41c:	e1a01008 	mov	r1, r8
    e420:	e2840024 	add	r0, r4, #36	; 0x24
    e424:	ebffff43 	bl	e138 <make_kn>
    e428:	e1a01007 	mov	r1, r7
    e42c:	e1a00006 	mov	r0, r6
    e430:	eb0006bb 	bl	ff24 <OPENSSL_cleanse>
    e434:	e3a03000 	mov	r3, #0
    e438:	e5940000 	ldr	r0, [r4]
    e43c:	e1a02003 	mov	r2, r3
    e440:	e58d5000 	str	r5, [sp]
    e444:	e1a01003 	mov	r1, r3
    e448:	eb000335 	bl	f124 <EVP_EncryptInit_ex>
    e44c:	e3500000 	cmp	r0, #0
    e450:	0affffc5 	beq	e36c <CMAC_Init+0xc8>
    e454:	e1a02007 	mov	r2, r7
    e458:	e1a00006 	mov	r0, r6
    e45c:	e3a01000 	mov	r1, #0
    e460:	eb000d8f 	bl	11aa4 <memset>
    e464:	e3a03000 	mov	r3, #0
    e468:	e3a00001 	mov	r0, #1
    e46c:	e5843084 	str	r3, [r4, #132]	; 0x84
    e470:	eaffff9a 	b	e2e0 <CMAC_Init+0x3c>
    e474:	0000699c 	.word	0x0000699c
    e478:	0000695c 	.word	0x0000695c

0000e47c <CMAC_Update>:
    e47c:	e5903084 	ldr	r3, [r0, #132]	; 0x84
    e480:	e3730001 	cmn	r3, #1
    e484:	0a000033 	beq	e558 <CMAC_Update+0xdc>
    e488:	e92d47f0 	push	{r4, r5, r6, r7, r8, r9, sl, lr}
    e48c:	e3520000 	cmp	r2, #0
    e490:	e1a04002 	mov	r4, r2
    e494:	1a000001 	bne	e4a0 <CMAC_Update+0x24>
    e498:	e3a00001 	mov	r0, #1
    e49c:	e8bd87f0 	pop	{r4, r5, r6, r7, r8, r9, sl, pc}
    e4a0:	e1a05000 	mov	r5, r0
    e4a4:	e5900000 	ldr	r0, [r0]
    e4a8:	e1a07001 	mov	r7, r1
    e4ac:	eb00035e 	bl	f22c <EVP_CIPHER_CTX_block_size>
    e4b0:	e1a06000 	mov	r6, r0
    e4b4:	e5950084 	ldr	r0, [r5, #132]	; 0x84
    e4b8:	e3500000 	cmp	r0, #0
    e4bc:	da000014 	ble	e514 <CMAC_Update+0x98>
    e4c0:	e0468000 	sub	r8, r6, r0
    e4c4:	e2859064 	add	r9, r5, #100	; 0x64
    e4c8:	e1540008 	cmp	r4, r8
    e4cc:	e0890000 	add	r0, r9, r0
    e4d0:	3a000022 	bcc	e560 <CMAC_Update+0xe4>
    e4d4:	e1a02008 	mov	r2, r8
    e4d8:	e1a01007 	mov	r1, r7
    e4dc:	eb000d35 	bl	119b8 <memcpy>
    e4e0:	e5953084 	ldr	r3, [r5, #132]	; 0x84
    e4e4:	e0544008 	subs	r4, r4, r8
    e4e8:	e0833008 	add	r3, r3, r8
    e4ec:	e5853084 	str	r3, [r5, #132]	; 0x84
    e4f0:	0affffe8 	beq	e498 <CMAC_Update+0x1c>
    e4f4:	e1a02009 	mov	r2, r9
    e4f8:	e1a03006 	mov	r3, r6
    e4fc:	e2851044 	add	r1, r5, #68	; 0x44
    e500:	e5950000 	ldr	r0, [r5]
    e504:	eb00034b 	bl	f238 <EVP_Cipher>
    e508:	e3500000 	cmp	r0, #0
    e50c:	10877008 	addne	r7, r7, r8
    e510:	0a00000e 	beq	e550 <CMAC_Update+0xd4>
    e514:	e1560004 	cmp	r6, r4
    e518:	32858044 	addcc	r8, r5, #68	; 0x44
    e51c:	3a000003 	bcc	e530 <CMAC_Update+0xb4>
    e520:	ea000016 	b	e580 <CMAC_Update+0x104>
    e524:	e0877006 	add	r7, r7, r6
    e528:	e1560004 	cmp	r6, r4
    e52c:	2a000013 	bcs	e580 <CMAC_Update+0x104>
    e530:	e1a03006 	mov	r3, r6
    e534:	e1a02007 	mov	r2, r7
    e538:	e1a01008 	mov	r1, r8
    e53c:	e5950000 	ldr	r0, [r5]
    e540:	eb00033c 	bl	f238 <EVP_Cipher>
    e544:	e0444006 	sub	r4, r4, r6
    e548:	e3500000 	cmp	r0, #0
    e54c:	1afffff4 	bne	e524 <CMAC_Update+0xa8>
    e550:	e3a00000 	mov	r0, #0
    e554:	e8bd87f0 	pop	{r4, r5, r6, r7, r8, r9, sl, pc}
    e558:	e3a00000 	mov	r0, #0
    e55c:	e12fff1e 	bx	lr
    e560:	e1a02004 	mov	r2, r4
    e564:	e1a01007 	mov	r1, r7
    e568:	eb000d12 	bl	119b8 <memcpy>
    e56c:	e5953084 	ldr	r3, [r5, #132]	; 0x84
    e570:	e3a00001 	mov	r0, #1
    e574:	e0834004 	add	r4, r3, r4
    e578:	e5854084 	str	r4, [r5, #132]	; 0x84
    e57c:	e8bd87f0 	pop	{r4, r5, r6, r7, r8, r9, sl, pc}
    e580:	e1a01007 	mov	r1, r7
    e584:	e1a02004 	mov	r2, r4
    e588:	e2850064 	add	r0, r5, #100	; 0x64
    e58c:	eb000d09 	bl	119b8 <memcpy>
    e590:	e5854084 	str	r4, [r5, #132]	; 0x84
    e594:	eaffffbf 	b	e498 <CMAC_Update+0x1c>

0000e598 <CMAC_Final>:
    e598:	e5903084 	ldr	r3, [r0, #132]	; 0x84
    e59c:	e92d41f0 	push	{r4, r5, r6, r7, r8, lr}
    e5a0:	e3730001 	cmn	r3, #1
    e5a4:	03a04000 	moveq	r4, #0
    e5a8:	0a000025 	beq	e644 <CMAC_Final+0xac>
    e5ac:	e1a07002 	mov	r7, r2
    e5b0:	e1a05001 	mov	r5, r1
    e5b4:	e1a04000 	mov	r4, r0
    e5b8:	e5900000 	ldr	r0, [r0]
    e5bc:	eb00031a 	bl	f22c <EVP_CIPHER_CTX_block_size>
    e5c0:	e3550000 	cmp	r5, #0
    e5c4:	e1a06000 	mov	r6, r0
    e5c8:	e5870000 	str	r0, [r7]
    e5cc:	0a00001b 	beq	e640 <CMAC_Final+0xa8>
    e5d0:	e5940084 	ldr	r0, [r4, #132]	; 0x84
    e5d4:	e1560000 	cmp	r6, r0
    e5d8:	0a000025 	beq	e674 <CMAC_Final+0xdc>
    e5dc:	e0843000 	add	r3, r4, r0
    e5e0:	e0462000 	sub	r2, r6, r0
    e5e4:	e3e0107f 	mvn	r1, #127	; 0x7f
    e5e8:	e3520001 	cmp	r2, #1
    e5ec:	e5c31064 	strb	r1, [r3, #100]	; 0x64
    e5f0:	ca00001a 	bgt	e660 <CMAC_Final+0xc8>
    e5f4:	e3560000 	cmp	r6, #0
    e5f8:	da000009 	ble	e624 <CMAC_Final+0x8c>
    e5fc:	e2842023 	add	r2, r4, #35	; 0x23
    e600:	e2450001 	sub	r0, r5, #1
    e604:	e082e006 	add	lr, r2, r6
    e608:	e2841063 	add	r1, r4, #99	; 0x63
    e60c:	e5f2c001 	ldrb	ip, [r2, #1]!
    e610:	e5f13001 	ldrb	r3, [r1, #1]!
    e614:	e152000e 	cmp	r2, lr
    e618:	e023300c 	eor	r3, r3, ip
    e61c:	e5e03001 	strb	r3, [r0, #1]!
    e620:	1afffff9 	bne	e60c <CMAC_Final+0x74>
    e624:	e5940000 	ldr	r0, [r4]
    e628:	e1a03006 	mov	r3, r6
    e62c:	e1a02005 	mov	r2, r5
    e630:	e1a01005 	mov	r1, r5
    e634:	eb0002ff 	bl	f238 <EVP_Cipher>
    e638:	e2504000 	subs	r4, r0, #0
    e63c:	0a000002 	beq	e64c <CMAC_Final+0xb4>
    e640:	e3a04001 	mov	r4, #1
    e644:	e1a00004 	mov	r0, r4
    e648:	e8bd81f0 	pop	{r4, r5, r6, r7, r8, pc}
    e64c:	e1a00005 	mov	r0, r5
    e650:	e1a01006 	mov	r1, r6
    e654:	eb000632 	bl	ff24 <OPENSSL_cleanse>
    e658:	e1a00004 	mov	r0, r4
    e65c:	e8bd81f0 	pop	{r4, r5, r6, r7, r8, pc}
    e660:	e2422001 	sub	r2, r2, #1
    e664:	e2830065 	add	r0, r3, #101	; 0x65
    e668:	e3a01000 	mov	r1, #0
    e66c:	eb000d0c 	bl	11aa4 <memset>
    e670:	eaffffdf 	b	e5f4 <CMAC_Final+0x5c>
    e674:	e3560000 	cmp	r6, #0
    e678:	daffffe9 	ble	e624 <CMAC_Final+0x8c>
    e67c:	e2842003 	add	r2, r4, #3
    e680:	e2450001 	sub	r0, r5, #1
    e684:	e082e006 	add	lr, r2, r6
    e688:	e2841063 	add	r1, r4, #99	; 0x63
    e68c:	e5f2c001 	ldrb	ip, [r2, #1]!
    e690:	e5f13001 	ldrb	r3, [r1, #1]!
    e694:	e152000e 	cmp	r2, lr
    e698:	e023300c 	eor	r3, r3, ip
    e69c:	e5e03001 	strb	r3, [r0, #1]!
    e6a0:	1afffff9 	bne	e68c <CMAC_Final+0xf4>
    e6a4:	eaffffde 	b	e624 <CMAC_Final+0x8c>

0000e6a8 <openssl_config_int>:
    e6a8:	e92d4070 	push	{r4, r5, r6, lr}
    e6ac:	e59f5024 	ldr	r5, [pc, #36]	; e6d8 <openssl_config_int+0x30>
    e6b0:	e08f5005 	add	r5, pc, r5
    e6b4:	e5954000 	ldr	r4, [r5]
    e6b8:	e3540000 	cmp	r4, #0
    e6bc:	13a04001 	movne	r4, #1
    e6c0:	1a000002 	bne	e6d0 <openssl_config_int+0x28>
    e6c4:	eb0000d2 	bl	ea14 <ERR_clear_error>
    e6c8:	e3a03001 	mov	r3, #1
    e6cc:	e5853000 	str	r3, [r5]
    e6d0:	e1a00004 	mov	r0, r4
    e6d4:	e8bd8070 	pop	{r4, r5, r6, pc}
    e6d8:	00006e5c 	.word	0x00006e5c

0000e6dc <openssl_no_config_int>:
    e6dc:	e59f300c 	ldr	r3, [pc, #12]	; e6f0 <openssl_no_config_int+0x14>
    e6e0:	e3a02001 	mov	r2, #1
    e6e4:	e08f3003 	add	r3, pc, r3
    e6e8:	e5832000 	str	r2, [r3]
    e6ec:	e12fff1e 	bx	lr
    e6f0:	00006e28 	.word	0x00006e28

0000e6f4 <OPENSSL_cpuid_setup>:
    e6f4:	e12fff1e 	bx	lr

0000e6f8 <OPENSSL_die>:
    e6f8:	e92d4010 	push	{r4, lr}
    e6fc:	ebffef33 	bl	a3d0 <abort>

0000e700 <err_do_init_ossl_>:
    e700:	e59f302c 	ldr	r3, [pc, #44]	; e734 <err_do_init_ossl_+0x34>
    e704:	e3a01000 	mov	r1, #0
    e708:	e59f0028 	ldr	r0, [pc, #40]	; e738 <err_do_init_ossl_+0x38>
    e70c:	e3a02001 	mov	r2, #1
    e710:	e08f3003 	add	r3, pc, r3
    e714:	e92d4010 	push	{r4, lr}
    e718:	e08f0000 	add	r0, pc, r0
    e71c:	e5832000 	str	r2, [r3]
    e720:	eb000748 	bl	10448 <CRYPTO_THREAD_init_local>
    e724:	e59f3010 	ldr	r3, [pc, #16]	; e73c <err_do_init_ossl_+0x3c>
    e728:	e08f3003 	add	r3, pc, r3
    e72c:	e5830000 	str	r0, [r3]
    e730:	e8bd8010 	pop	{r4, pc}
    e734:	00006e0c 	.word	0x00006e0c
    e738:	00006e00 	.word	0x00006e00
    e73c:	00006de8 	.word	0x00006de8

0000e740 <ERR_STATE_free.part.0>:
    e740:	e92d41f0 	push	{r4, r5, r6, r7, r8, lr}
    e744:	e1a08000 	mov	r8, r0
    e748:	e59f7060 	ldr	r7, [pc, #96]	; e7b0 <ERR_STATE_free.part.0+0x70>
    e74c:	e28040bc 	add	r4, r0, #188	; 0xbc
    e750:	e28060fc 	add	r6, r0, #252	; 0xfc
    e754:	e08f7007 	add	r7, pc, r7
    e758:	e3a05000 	mov	r5, #0
    e75c:	ea000002 	b	e76c <ERR_STATE_free.part.0+0x2c>
    e760:	e5845000 	str	r5, [r4]
    e764:	e1540006 	cmp	r4, r6
    e768:	0a00000a 	beq	e798 <ERR_STATE_free.part.0+0x58>
    e76c:	e5b43004 	ldr	r3, [r4, #4]!
    e770:	e3130001 	tst	r3, #1
    e774:	0afffff9 	beq	e760 <ERR_STATE_free.part.0+0x20>
    e778:	e3a02000 	mov	r2, #0
    e77c:	e1a01007 	mov	r1, r7
    e780:	e5140040 	ldr	r0, [r4, #-64]	; 0xffffffc0
    e784:	eb0005a1 	bl	fe10 <CRYPTO_free>
    e788:	e5045040 	str	r5, [r4, #-64]	; 0xffffffc0
    e78c:	e5845000 	str	r5, [r4]
    e790:	e1540006 	cmp	r4, r6
    e794:	1afffff4 	bne	e76c <ERR_STATE_free.part.0+0x2c>
    e798:	e59f1014 	ldr	r1, [pc, #20]	; e7b4 <ERR_STATE_free.part.0+0x74>
    e79c:	e1a00008 	mov	r0, r8
    e7a0:	e3a02000 	mov	r2, #0
    e7a4:	e08f1001 	add	r1, pc, r1
    e7a8:	e8bd41f0 	pop	{r4, r5, r6, r7, r8, lr}
    e7ac:	ea000597 	b	fe10 <CRYPTO_free>
    e7b0:	00003f5c 	.word	0x00003f5c
    e7b4:	00003f0c 	.word	0x00003f0c

0000e7b8 <err_delete_thread_state>:
    e7b8:	e92d4070 	push	{r4, r5, r6, lr}
    e7bc:	e59f4028 	ldr	r4, [pc, #40]	; e7ec <err_delete_thread_state+0x34>
    e7c0:	e08f4004 	add	r4, pc, r4
    e7c4:	e1a00004 	mov	r0, r4
    e7c8:	eb000730 	bl	10490 <CRYPTO_THREAD_get_local>
    e7cc:	e2505000 	subs	r5, r0, #0
    e7d0:	08bd8070 	popeq	{r4, r5, r6, pc}
    e7d4:	e1a00004 	mov	r0, r4
    e7d8:	e3a01000 	mov	r1, #0
    e7dc:	eb000735 	bl	104b8 <CRYPTO_THREAD_set_local>
    e7e0:	e1a00005 	mov	r0, r5
    e7e4:	e8bd4070 	pop	{r4, r5, r6, lr}
    e7e8:	eaffffd4 	b	e740 <ERR_STATE_free.part.0>
    e7ec:	00006d58 	.word	0x00006d58

0000e7f0 <ERR_get_state>:
    e7f0:	e92d41f0 	push	{r4, r5, r6, r7, r8, lr}
    e7f4:	eb000740 	bl	104fc <__geterrno>
    e7f8:	e3a02000 	mov	r2, #0
    e7fc:	e5906000 	ldr	r6, [r0]
    e800:	e3a01000 	mov	r1, #0
    e804:	e3a00701 	mov	r0, #262144	; 0x40000
    e808:	eb00041a 	bl	f878 <OPENSSL_init_crypto>
    e80c:	e3500000 	cmp	r0, #0
    e810:	0a000018 	beq	e878 <ERR_get_state+0x88>
    e814:	e59f1104 	ldr	r1, [pc, #260]	; e920 <ERR_get_state+0x130>
    e818:	e59f0104 	ldr	r0, [pc, #260]	; e924 <ERR_get_state+0x134>
    e81c:	e08f1001 	add	r1, pc, r1
    e820:	e08f0000 	add	r0, pc, r0
    e824:	eb0006fb 	bl	10418 <CRYPTO_THREAD_run_once>
    e828:	e3500000 	cmp	r0, #0
    e82c:	0a000011 	beq	e878 <ERR_get_state+0x88>
    e830:	e59f30f0 	ldr	r3, [pc, #240]	; e928 <ERR_get_state+0x138>
    e834:	e08f3003 	add	r3, pc, r3
    e838:	e5933000 	ldr	r3, [r3]
    e83c:	e3530000 	cmp	r3, #0
    e840:	0a00000c 	beq	e878 <ERR_get_state+0x88>
    e844:	e59f50e0 	ldr	r5, [pc, #224]	; e92c <ERR_get_state+0x13c>
    e848:	e08f5005 	add	r5, pc, r5
    e84c:	e1a00005 	mov	r0, r5
    e850:	eb00070e 	bl	10490 <CRYPTO_THREAD_get_local>
    e854:	e1a04000 	mov	r4, r0
    e858:	e3700001 	cmn	r0, #1
    e85c:	0a000005 	beq	e878 <ERR_get_state+0x88>
    e860:	e3500000 	cmp	r0, #0
    e864:	0a000006 	beq	e884 <ERR_get_state+0x94>
    e868:	eb000723 	bl	104fc <__geterrno>
    e86c:	e5806000 	str	r6, [r0]
    e870:	e1a00004 	mov	r0, r4
    e874:	e8bd81f0 	pop	{r4, r5, r6, r7, r8, pc}
    e878:	e3a04000 	mov	r4, #0
    e87c:	e1a00004 	mov	r0, r4
    e880:	e8bd81f0 	pop	{r4, r5, r6, r7, r8, pc}
    e884:	e3e01000 	mvn	r1, #0
    e888:	e1a00005 	mov	r0, r5
    e88c:	eb000709 	bl	104b8 <CRYPTO_THREAD_set_local>
    e890:	e3500000 	cmp	r0, #0
    e894:	0afffff7 	beq	e878 <ERR_get_state+0x88>
    e898:	e59f1090 	ldr	r1, [pc, #144]	; e930 <ERR_get_state+0x140>
    e89c:	e1a02004 	mov	r2, r4
    e8a0:	e3a00f62 	mov	r0, #392	; 0x188
    e8a4:	e08f1001 	add	r1, pc, r1
    e8a8:	eb000584 	bl	fec0 <CRYPTO_zalloc>
    e8ac:	e2507000 	subs	r7, r0, #0
    e8b0:	0a000016 	beq	e910 <ERR_get_state+0x120>
    e8b4:	e3a00002 	mov	r0, #2
    e8b8:	e3a01000 	mov	r1, #0
    e8bc:	eb00051d 	bl	fd38 <ossl_init_thread_start>
    e8c0:	e3500000 	cmp	r0, #0
    e8c4:	0a00000a 	beq	e8f4 <ERR_get_state+0x104>
    e8c8:	e1a00005 	mov	r0, r5
    e8cc:	e1a01007 	mov	r1, r7
    e8d0:	eb0006f8 	bl	104b8 <CRYPTO_THREAD_set_local>
    e8d4:	e3500000 	cmp	r0, #0
    e8d8:	0a000005 	beq	e8f4 <ERR_get_state+0x104>
    e8dc:	e1a02004 	mov	r2, r4
    e8e0:	e3a01000 	mov	r1, #0
    e8e4:	e3a00002 	mov	r0, #2
    e8e8:	e1a04007 	mov	r4, r7
    e8ec:	eb0003e1 	bl	f878 <OPENSSL_init_crypto>
    e8f0:	eaffffdc 	b	e868 <ERR_get_state+0x78>
    e8f4:	e1a00007 	mov	r0, r7
    e8f8:	ebffff90 	bl	e740 <ERR_STATE_free.part.0>
    e8fc:	e59f0030 	ldr	r0, [pc, #48]	; e934 <ERR_get_state+0x144>
    e900:	e3a01000 	mov	r1, #0
    e904:	e08f0000 	add	r0, pc, r0
    e908:	eb0006ea 	bl	104b8 <CRYPTO_THREAD_set_local>
    e90c:	eaffffd7 	b	e870 <ERR_get_state+0x80>
    e910:	e1a00005 	mov	r0, r5
    e914:	e1a01004 	mov	r1, r4
    e918:	eb0006e6 	bl	104b8 <CRYPTO_THREAD_set_local>
    e91c:	eaffffd3 	b	e870 <ERR_get_state+0x80>
    e920:	fffffedc 	.word	0xfffffedc
    e924:	00006cf4 	.word	0x00006cf4
    e928:	00006cdc 	.word	0x00006cdc
    e92c:	00006cd0 	.word	0x00006cd0
    e930:	00003e0c 	.word	0x00003e0c
    e934:	00006c14 	.word	0x00006c14

0000e938 <ERR_put_error>:
    e938:	e92d41f0 	push	{r4, r5, r6, r7, r8, lr}
    e93c:	e1a06000 	mov	r6, r0
    e940:	e1a08001 	mov	r8, r1
    e944:	e1a07002 	mov	r7, r2
    e948:	e1a05003 	mov	r5, r3
    e94c:	ebffffa7 	bl	e7f0 <ERR_get_state>
    e950:	e2504000 	subs	r4, r0, #0
    e954:	08bd81f0 	popeq	{r4, r5, r6, r7, r8, pc}
    e958:	e594c180 	ldr	ip, [r4, #384]	; 0x180
    e95c:	e5942184 	ldr	r2, [r4, #388]	; 0x184
    e960:	e28cc001 	add	ip, ip, #1
    e964:	e27c3000 	rsbs	r3, ip, #0
    e968:	e20cc00f 	and	ip, ip, #15
    e96c:	e203300f 	and	r3, r3, #15
    e970:	5263c000 	rsbpl	ip, r3, #0
    e974:	e584c180 	str	ip, [r4, #384]	; 0x180
    e978:	e15c0002 	cmp	ip, r2
    e97c:	0a000013 	beq	e9d0 <ERR_put_error+0x98>
    e980:	e084310c 	add	r3, r4, ip, lsl #2
    e984:	e3a00a0f 	mov	r0, #61440	; 0xf000
    e988:	e34000ff 	movt	r0, #255	; 0xff
    e98c:	e0000608 	and	r0, r0, r8, lsl #12
    e990:	e3a08000 	mov	r8, #0
    e994:	e784810c 	str	r8, [r4, ip, lsl #2]
    e998:	e1800c06 	orr	r0, r0, r6, lsl #24
    e99c:	e7eb2057 	ubfx	r2, r7, #0, #12
    e9a0:	e5835100 	str	r5, [r3, #256]	; 0x100
    e9a4:	e59310c0 	ldr	r1, [r3, #192]	; 0xc0
    e9a8:	e1802002 	orr	r2, r0, r2
    e9ac:	e59d0018 	ldr	r0, [sp, #24]
    e9b0:	e5830140 	str	r0, [r3, #320]	; 0x140
    e9b4:	e3110001 	tst	r1, #1
    e9b8:	e5832040 	str	r2, [r3, #64]	; 0x40
    e9bc:	1a00000a 	bne	e9ec <ERR_put_error+0xb4>
    e9c0:	e28cc030 	add	ip, ip, #48	; 0x30
    e9c4:	e3a03000 	mov	r3, #0
    e9c8:	e784310c 	str	r3, [r4, ip, lsl #2]
    e9cc:	e8bd81f0 	pop	{r4, r5, r6, r7, r8, pc}
    e9d0:	e28c3001 	add	r3, ip, #1
    e9d4:	e2732000 	rsbs	r2, r3, #0
    e9d8:	e203300f 	and	r3, r3, #15
    e9dc:	e202200f 	and	r2, r2, #15
    e9e0:	52623000 	rsbpl	r3, r2, #0
    e9e4:	e5843184 	str	r3, [r4, #388]	; 0x184
    e9e8:	eaffffe4 	b	e980 <ERR_put_error+0x48>
    e9ec:	e59f101c 	ldr	r1, [pc, #28]	; ea10 <ERR_put_error+0xd8>
    e9f0:	e1a02008 	mov	r2, r8
    e9f4:	e5930080 	ldr	r0, [r3, #128]	; 0x80
    e9f8:	e08f1001 	add	r1, pc, r1
    e9fc:	eb000503 	bl	fe10 <CRYPTO_free>
    ea00:	e594c180 	ldr	ip, [r4, #384]	; 0x180
    ea04:	e28c3020 	add	r3, ip, #32
    ea08:	e7848103 	str	r8, [r4, r3, lsl #2]
    ea0c:	eaffffeb 	b	e9c0 <ERR_put_error+0x88>
    ea10:	00003cb8 	.word	0x00003cb8

0000ea14 <ERR_clear_error>:
    ea14:	e92d47f0 	push	{r4, r5, r6, r7, r8, r9, sl, lr}
    ea18:	ebffff74 	bl	e7f0 <ERR_get_state>
    ea1c:	e2509000 	subs	r9, r0, #0
    ea20:	08bd87f0 	popeq	{r4, r5, r6, r7, r8, r9, sl, pc}
    ea24:	e59f8060 	ldr	r8, [pc, #96]	; ea8c <ERR_clear_error+0x78>
    ea28:	e2494004 	sub	r4, r9, #4
    ea2c:	e289703c 	add	r7, r9, #60	; 0x3c
    ea30:	e3a05000 	mov	r5, #0
    ea34:	e08f8008 	add	r8, pc, r8
    ea38:	e3e06000 	mvn	r6, #0
    ea3c:	ea000006 	b	ea5c <ERR_clear_error+0x48>
    ea40:	e58450c4 	str	r5, [r4, #196]	; 0xc4
    ea44:	e5a45004 	str	r5, [r4, #4]!
    ea48:	e5845040 	str	r5, [r4, #64]	; 0x40
    ea4c:	e1540007 	cmp	r4, r7
    ea50:	e5845100 	str	r5, [r4, #256]	; 0x100
    ea54:	e5846140 	str	r6, [r4, #320]	; 0x140
    ea58:	0a000008 	beq	ea80 <ERR_clear_error+0x6c>
    ea5c:	e59430c4 	ldr	r3, [r4, #196]	; 0xc4
    ea60:	e3130001 	tst	r3, #1
    ea64:	0afffff5 	beq	ea40 <ERR_clear_error+0x2c>
    ea68:	e3a02000 	mov	r2, #0
    ea6c:	e1a01008 	mov	r1, r8
    ea70:	e5940084 	ldr	r0, [r4, #132]	; 0x84
    ea74:	eb0004e5 	bl	fe10 <CRYPTO_free>
    ea78:	e5845084 	str	r5, [r4, #132]	; 0x84
    ea7c:	eaffffef 	b	ea40 <ERR_clear_error+0x2c>
    ea80:	e5895184 	str	r5, [r9, #388]	; 0x184
    ea84:	e5895180 	str	r5, [r9, #384]	; 0x180
    ea88:	e8bd87f0 	pop	{r4, r5, r6, r7, r8, r9, sl, pc}
    ea8c:	00003c7c 	.word	0x00003c7c

0000ea90 <aes_cbc_cipher>:
    ea90:	e92d47f0 	push	{r4, r5, r6, r7, r8, r9, sl, lr}
    ea94:	e1a05000 	mov	r5, r0
    ea98:	e1a08001 	mov	r8, r1
    ea9c:	e24dd008 	sub	sp, sp, #8
    eaa0:	e1a07002 	mov	r7, r2
    eaa4:	e1a09003 	mov	r9, r3
    eaa8:	eb0001ee 	bl	f268 <EVP_CIPHER_CTX_get_cipher_data>
    eaac:	e59060fc 	ldr	r6, [r0, #252]	; 0xfc
    eab0:	e1a04000 	mov	r4, r0
    eab4:	e1a00005 	mov	r0, r5
    eab8:	e3560000 	cmp	r6, #0
    eabc:	0a00000d 	beq	eaf8 <aes_cbc_cipher+0x68>
    eac0:	eb0001f1 	bl	f28c <EVP_CIPHER_CTX_iv_noconst>
    eac4:	e1a0a000 	mov	sl, r0
    eac8:	e1a00005 	mov	r0, r5
    eacc:	eb0001e1 	bl	f258 <EVP_CIPHER_CTX_encrypting>
    ead0:	e58da000 	str	sl, [sp]
    ead4:	e58d0004 	str	r0, [sp, #4]
    ead8:	e1a03004 	mov	r3, r4
    eadc:	e1a00007 	mov	r0, r7
    eae0:	e1a02009 	mov	r2, r9
    eae4:	e1a01008 	mov	r1, r8
    eae8:	e12fff36 	blx	r6
    eaec:	e3a00001 	mov	r0, #1
    eaf0:	e28dd008 	add	sp, sp, #8
    eaf4:	e8bd87f0 	pop	{r4, r5, r6, r7, r8, r9, sl, pc}
    eaf8:	eb0001d6 	bl	f258 <EVP_CIPHER_CTX_encrypting>
    eafc:	e3500000 	cmp	r0, #0
    eb00:	e1a00005 	mov	r0, r5
    eb04:	1a00000b 	bne	eb38 <aes_cbc_cipher+0xa8>
    eb08:	eb0001df 	bl	f28c <EVP_CIPHER_CTX_iv_noconst>
    eb0c:	e594c0f8 	ldr	ip, [r4, #248]	; 0xf8
    eb10:	e1a02009 	mov	r2, r9
    eb14:	e58d0000 	str	r0, [sp]
    eb18:	e1a01008 	mov	r1, r8
    eb1c:	e1a00007 	mov	r0, r7
    eb20:	e1a03004 	mov	r3, r4
    eb24:	e58dc004 	str	ip, [sp, #4]
    eb28:	eb00054a 	bl	10058 <CRYPTO_cbc128_decrypt>
    eb2c:	e3a00001 	mov	r0, #1
    eb30:	e28dd008 	add	sp, sp, #8
    eb34:	e8bd87f0 	pop	{r4, r5, r6, r7, r8, r9, sl, pc}
    eb38:	eb0001d3 	bl	f28c <EVP_CIPHER_CTX_iv_noconst>
    eb3c:	e594c0f8 	ldr	ip, [r4, #248]	; 0xf8
    eb40:	e1a02009 	mov	r2, r9
    eb44:	e58d0000 	str	r0, [sp]
    eb48:	e1a01008 	mov	r1, r8
    eb4c:	e1a00007 	mov	r0, r7
    eb50:	e1a03004 	mov	r3, r4
    eb54:	e58dc004 	str	ip, [sp, #4]
    eb58:	eb000504 	bl	ff70 <CRYPTO_cbc128_encrypt>
    eb5c:	e3a00001 	mov	r0, #1
    eb60:	e28dd008 	add	sp, sp, #8
    eb64:	e8bd87f0 	pop	{r4, r5, r6, r7, r8, r9, sl, pc}

0000eb68 <aes_init_key>:
    eb68:	e92d43f0 	push	{r4, r5, r6, r7, r8, r9, lr}
    eb6c:	e1a08000 	mov	r8, r0
    eb70:	e1a04003 	mov	r4, r3
    eb74:	e24dd00c 	sub	sp, sp, #12
    eb78:	e1a09001 	mov	r9, r1
    eb7c:	eb0001b9 	bl	f268 <EVP_CIPHER_CTX_get_cipher_data>
    eb80:	e1a06000 	mov	r6, r0
    eb84:	e1a00008 	mov	r0, r8
    eb88:	e3a05007 	mov	r5, #7
    eb8c:	e340500f 	movt	r5, #15
    eb90:	eb0001ae 	bl	f250 <EVP_CIPHER_CTX_cipher>
    eb94:	e59f70c8 	ldr	r7, [pc, #200]	; ec64 <aes_init_key+0xfc>
    eb98:	eb0001b0 	bl	f260 <EVP_CIPHER_flags>
    eb9c:	e0055000 	and	r5, r5, r0
    eba0:	e2453001 	sub	r3, r5, #1
    eba4:	e08f7007 	add	r7, pc, r7
    eba8:	e1a00008 	mov	r0, r8
    ebac:	e3530001 	cmp	r3, #1
    ebb0:	93540000 	cmpls	r4, #0
    ebb4:	0a000010 	beq	ebfc <aes_init_key+0x94>
    ebb8:	eb0001b5 	bl	f294 <EVP_CIPHER_CTX_key_length>
    ebbc:	e1a02006 	mov	r2, r6
    ebc0:	e1a01180 	lsl	r1, r0, #3
    ebc4:	e1a00009 	mov	r0, r9
    ebc8:	ebfff8df 	bl	cf4c <AES_set_encrypt_key>
    ebcc:	e59f2094 	ldr	r2, [pc, #148]	; ec68 <aes_init_key+0x100>
    ebd0:	e3550002 	cmp	r5, #2
    ebd4:	e7973002 	ldr	r3, [r7, r2]
    ebd8:	e58630f8 	str	r3, [r6, #248]	; 0xf8
    ebdc:	0a000010 	beq	ec24 <aes_init_key+0xbc>
    ebe0:	e3500000 	cmp	r0, #0
    ebe4:	e3a03000 	mov	r3, #0
    ebe8:	a3a00001 	movge	r0, #1
    ebec:	e58630fc 	str	r3, [r6, #252]	; 0xfc
    ebf0:	ba000011 	blt	ec3c <aes_init_key+0xd4>
    ebf4:	e28dd00c 	add	sp, sp, #12
    ebf8:	e8bd83f0 	pop	{r4, r5, r6, r7, r8, r9, pc}
    ebfc:	eb0001a4 	bl	f294 <EVP_CIPHER_CTX_key_length>
    ec00:	e1a02006 	mov	r2, r6
    ec04:	e1a01180 	lsl	r1, r0, #3
    ec08:	e1a00009 	mov	r0, r9
    ec0c:	ebfffa00 	bl	d414 <AES_set_decrypt_key>
    ec10:	e59f3054 	ldr	r3, [pc, #84]	; ec6c <aes_init_key+0x104>
    ec14:	e3550002 	cmp	r5, #2
    ec18:	e7973003 	ldr	r3, [r7, r3]
    ec1c:	e58630f8 	str	r3, [r6, #248]	; 0xf8
    ec20:	1affffee 	bne	ebe0 <aes_init_key+0x78>
    ec24:	e59f3044 	ldr	r3, [pc, #68]	; ec70 <aes_init_key+0x108>
    ec28:	e3500000 	cmp	r0, #0
    ec2c:	a3a00001 	movge	r0, #1
    ec30:	e7973003 	ldr	r3, [r7, r3]
    ec34:	e58630fc 	str	r3, [r6, #252]	; 0xfc
    ec38:	aaffffed 	bge	ebf4 <aes_init_key+0x8c>
    ec3c:	e3a04000 	mov	r4, #0
    ec40:	e3a0208f 	mov	r2, #143	; 0x8f
    ec44:	e58d4000 	str	r4, [sp]
    ec48:	e1a03004 	mov	r3, r4
    ec4c:	e3a01085 	mov	r1, #133	; 0x85
    ec50:	e3a00006 	mov	r0, #6
    ec54:	ebffff37 	bl	e938 <ERR_put_error>
    ec58:	e1a00004 	mov	r0, r4
    ec5c:	e28dd00c 	add	sp, sp, #12
    ec60:	e8bd83f0 	pop	{r4, r5, r6, r7, r8, r9, pc}
    ec64:	000064d4 	.word	0x000064d4
    ec68:	00000024 	.word	0x00000024
    ec6c:	00000028 	.word	0x00000028
    ec70:	00000014 	.word	0x00000014

0000ec74 <EVP_aes_128_cbc>:
    ec74:	e59f0004 	ldr	r0, [pc, #4]	; ec80 <EVP_aes_128_cbc+0xc>
    ec78:	e08f0000 	add	r0, pc, r0
    ec7c:	e12fff1e 	bx	lr
    ec80:	000063cc 	.word	0x000063cc

0000ec84 <EVP_CIPHER_CTX_reset>:
    ec84:	e92d4010 	push	{r4, lr}
    ec88:	e2504000 	subs	r4, r0, #0
    ec8c:	0a000019 	beq	ecf8 <EVP_CIPHER_CTX_reset+0x74>
    ec90:	e5943000 	ldr	r3, [r4]
    ec94:	e3530000 	cmp	r3, #0
    ec98:	0a000019 	beq	ed04 <EVP_CIPHER_CTX_reset+0x80>
    ec9c:	e593301c 	ldr	r3, [r3, #28]
    eca0:	e3530000 	cmp	r3, #0
    eca4:	0a000002 	beq	ecb4 <EVP_CIPHER_CTX_reset+0x30>
    eca8:	e12fff33 	blx	r3
    ecac:	e3500000 	cmp	r0, #0
    ecb0:	08bd8010 	popeq	{r4, pc}
    ecb4:	e5940060 	ldr	r0, [r4, #96]	; 0x60
    ecb8:	e3500000 	cmp	r0, #0
    ecbc:	0a000003 	beq	ecd0 <EVP_CIPHER_CTX_reset+0x4c>
    ecc0:	e5943000 	ldr	r3, [r4]
    ecc4:	e5931020 	ldr	r1, [r3, #32]
    ecc8:	e3510000 	cmp	r1, #0
    eccc:	1a00000b 	bne	ed00 <EVP_CIPHER_CTX_reset+0x7c>
    ecd0:	e59f1034 	ldr	r1, [pc, #52]	; ed0c <EVP_CIPHER_CTX_reset+0x88>
    ecd4:	e3a02000 	mov	r2, #0
    ecd8:	e08f1001 	add	r1, pc, r1
    ecdc:	eb00044b 	bl	fe10 <CRYPTO_free>
    ece0:	e1a00004 	mov	r0, r4
    ece4:	e3a0208c 	mov	r2, #140	; 0x8c
    ece8:	e3a01000 	mov	r1, #0
    ecec:	eb000b6c 	bl	11aa4 <memset>
    ecf0:	e3a00001 	mov	r0, #1
    ecf4:	e8bd8010 	pop	{r4, pc}
    ecf8:	e3a00001 	mov	r0, #1
    ecfc:	e8bd8010 	pop	{r4, pc}
    ed00:	eb000487 	bl	ff24 <OPENSSL_cleanse>
    ed04:	e5940060 	ldr	r0, [r4, #96]	; 0x60
    ed08:	eafffff0 	b	ecd0 <EVP_CIPHER_CTX_reset+0x4c>
    ed0c:	000039d8 	.word	0x000039d8

0000ed10 <EVP_CIPHER_CTX_new>:
    ed10:	e59f100c 	ldr	r1, [pc, #12]	; ed24 <EVP_CIPHER_CTX_new+0x14>
    ed14:	e3a02000 	mov	r2, #0
    ed18:	e3a0008c 	mov	r0, #140	; 0x8c
    ed1c:	e08f1001 	add	r1, pc, r1
    ed20:	ea000466 	b	fec0 <CRYPTO_zalloc>
    ed24:	00003994 	.word	0x00003994

0000ed28 <EVP_CIPHER_CTX_free>:
    ed28:	e92d4010 	push	{r4, lr}
    ed2c:	e1a04000 	mov	r4, r0
    ed30:	ebffffd3 	bl	ec84 <EVP_CIPHER_CTX_reset>
    ed34:	e59f1010 	ldr	r1, [pc, #16]	; ed4c <EVP_CIPHER_CTX_free+0x24>
    ed38:	e1a00004 	mov	r0, r4
    ed3c:	e3a02000 	mov	r2, #0
    ed40:	e08f1001 	add	r1, pc, r1
    ed44:	e8bd4010 	pop	{r4, lr}
    ed48:	ea000430 	b	fe10 <CRYPTO_free>
    ed4c:	00003970 	.word	0x00003970

0000ed50 <EVP_CIPHER_CTX_ctrl>:
    ed50:	e92d4010 	push	{r4, lr}
    ed54:	e5904000 	ldr	r4, [r0]
    ed58:	e24dd008 	sub	sp, sp, #8
    ed5c:	e3540000 	cmp	r4, #0
    ed60:	0a000011 	beq	edac <EVP_CIPHER_CTX_ctrl+0x5c>
    ed64:	e594402c 	ldr	r4, [r4, #44]	; 0x2c
    ed68:	e3540000 	cmp	r4, #0
    ed6c:	0a000017 	beq	edd0 <EVP_CIPHER_CTX_ctrl+0x80>
    ed70:	e12fff34 	blx	r4
    ed74:	e3700001 	cmn	r0, #1
    ed78:	0a000001 	beq	ed84 <EVP_CIPHER_CTX_ctrl+0x34>
    ed7c:	e28dd008 	add	sp, sp, #8
    ed80:	e8bd8010 	pop	{r4, pc}
    ed84:	e3a04000 	mov	r4, #0
    ed88:	e3a02085 	mov	r2, #133	; 0x85
    ed8c:	e58d4000 	str	r4, [sp]
    ed90:	e1a03004 	mov	r3, r4
    ed94:	e3a0107c 	mov	r1, #124	; 0x7c
    ed98:	e3a00006 	mov	r0, #6
    ed9c:	ebfffee5 	bl	e938 <ERR_put_error>
    eda0:	e1a00004 	mov	r0, r4
    eda4:	e28dd008 	add	sp, sp, #8
    eda8:	e8bd8010 	pop	{r4, pc}
    edac:	e58d4000 	str	r4, [sp]
    edb0:	e1a03004 	mov	r3, r4
    edb4:	e3a02083 	mov	r2, #131	; 0x83
    edb8:	e3a0107c 	mov	r1, #124	; 0x7c
    edbc:	e3a00006 	mov	r0, #6
    edc0:	ebfffedc 	bl	e938 <ERR_put_error>
    edc4:	e1a00004 	mov	r0, r4
    edc8:	e28dd008 	add	sp, sp, #8
    edcc:	e8bd8010 	pop	{r4, pc}
    edd0:	e3a00006 	mov	r0, #6
    edd4:	e58d4000 	str	r4, [sp]
    edd8:	e1a03004 	mov	r3, r4
    eddc:	e3a02084 	mov	r2, #132	; 0x84
    ede0:	e3a0107c 	mov	r1, #124	; 0x7c
    ede4:	ebfffed3 	bl	e938 <ERR_put_error>
    ede8:	e1a00004 	mov	r0, r4
    edec:	eaffffe2 	b	ed7c <EVP_CIPHER_CTX_ctrl+0x2c>

0000edf0 <EVP_CipherInit_ex>:
    edf0:	e92d41f0 	push	{r4, r5, r6, r7, r8, lr}
    edf4:	e1a04000 	mov	r4, r0
    edf8:	e1a06001 	mov	r6, r1
    edfc:	e24dd008 	sub	sp, sp, #8
    ee00:	e1a07003 	mov	r7, r3
    ee04:	e59d5024 	ldr	r5, [sp, #36]	; 0x24
    ee08:	e3750001 	cmn	r5, #1
    ee0c:	05905008 	ldreq	r5, [r0, #8]
    ee10:	0a000002 	beq	ee20 <EVP_CipherInit_ex+0x30>
    ee14:	e2955000 	adds	r5, r5, #0
    ee18:	13a05001 	movne	r5, #1
    ee1c:	e5805008 	str	r5, [r0, #8]
    ee20:	e3560000 	cmp	r6, #0
    ee24:	e5943000 	ldr	r3, [r4]
    ee28:	0a00005a 	beq	ef98 <EVP_CipherInit_ex+0x1a8>
    ee2c:	e3530000 	cmp	r3, #0
    ee30:	0a000004 	beq	ee48 <EVP_CipherInit_ex+0x58>
    ee34:	e594805c 	ldr	r8, [r4, #92]	; 0x5c
    ee38:	e1a00004 	mov	r0, r4
    ee3c:	ebffff90 	bl	ec84 <EVP_CIPHER_CTX_reset>
    ee40:	e584805c 	str	r8, [r4, #92]	; 0x5c
    ee44:	e5845008 	str	r5, [r4, #8]
    ee48:	e5960020 	ldr	r0, [r6, #32]
    ee4c:	e5846000 	str	r6, [r4]
    ee50:	e3500000 	cmp	r0, #0
    ee54:	05840060 	streq	r0, [r4, #96]	; 0x60
    ee58:	01a03006 	moveq	r3, r6
    ee5c:	1a00003b 	bne	ef50 <EVP_CipherInit_ex+0x160>
    ee60:	e5961008 	ldr	r1, [r6, #8]
    ee64:	e594205c 	ldr	r2, [r4, #92]	; 0x5c
    ee68:	e5841058 	str	r1, [r4, #88]	; 0x58
    ee6c:	e5931010 	ldr	r1, [r3, #16]
    ee70:	e2022001 	and	r2, r2, #1
    ee74:	e584205c 	str	r2, [r4, #92]	; 0x5c
    ee78:	e3110040 	tst	r1, #64	; 0x40
    ee7c:	1a00003c 	bne	ef74 <EVP_CipherInit_ex+0x184>
    ee80:	e5932004 	ldr	r2, [r3, #4]
    ee84:	e2423008 	sub	r3, r2, #8
    ee88:	e3c33008 	bic	r3, r3, #8
    ee8c:	e3520001 	cmp	r2, #1
    ee90:	13530000 	cmpne	r3, #0
    ee94:	1a00008f 	bne	f0d8 <EVP_CipherInit_ex+0x2e8>
    ee98:	e594305c 	ldr	r3, [r4, #92]	; 0x5c
    ee9c:	e2136001 	ands	r6, r3, #1
    eea0:	0a000019 	beq	ef0c <EVP_CipherInit_ex+0x11c>
    eea4:	e1a00004 	mov	r0, r4
    eea8:	eb0000e8 	bl	f250 <EVP_CIPHER_CTX_cipher>
    eeac:	eb0000eb 	bl	f260 <EVP_CIPHER_flags>
    eeb0:	e3100010 	tst	r0, #16
    eeb4:	0a000040 	beq	efbc <EVP_CipherInit_ex+0x1cc>
    eeb8:	e3570000 	cmp	r7, #0
    eebc:	e5943000 	ldr	r3, [r4]
    eec0:	0a000080 	beq	f0c8 <EVP_CipherInit_ex+0x2d8>
    eec4:	e5936014 	ldr	r6, [r3, #20]
    eec8:	e1a01007 	mov	r1, r7
    eecc:	e1a03005 	mov	r3, r5
    eed0:	e59d2020 	ldr	r2, [sp, #32]
    eed4:	e1a00004 	mov	r0, r4
    eed8:	e12fff36 	blx	r6
    eedc:	e2506000 	subs	r6, r0, #0
    eee0:	0a000006 	beq	ef00 <EVP_CipherInit_ex+0x110>
    eee4:	e5943000 	ldr	r3, [r4]
    eee8:	e5933004 	ldr	r3, [r3, #4]
    eeec:	e3a06001 	mov	r6, #1
    eef0:	e3a02000 	mov	r2, #0
    eef4:	e584200c 	str	r2, [r4, #12]
    eef8:	e2433001 	sub	r3, r3, #1
    eefc:	e1c426f4 	strd	r2, [r4, #100]	; 0x64
    ef00:	e1a00006 	mov	r0, r6
    ef04:	e28dd008 	add	sp, sp, #8
    ef08:	e8bd81f0 	pop	{r4, r5, r6, r7, r8, pc}
    ef0c:	e1a00004 	mov	r0, r4
    ef10:	eb0000ce 	bl	f250 <EVP_CIPHER_CTX_cipher>
    ef14:	eb0000d1 	bl	f260 <EVP_CIPHER_flags>
    ef18:	e3a03007 	mov	r3, #7
    ef1c:	e340300f 	movt	r3, #15
    ef20:	e0000003 	and	r0, r0, r3
    ef24:	e3a03002 	mov	r3, #2
    ef28:	e3403001 	movt	r3, #1
    ef2c:	e1500003 	cmp	r0, r3
    ef30:	1affffdb 	bne	eea4 <EVP_CipherInit_ex+0xb4>
    ef34:	e58d6000 	str	r6, [sp]
    ef38:	e1a03006 	mov	r3, r6
    ef3c:	e3a020aa 	mov	r2, #170	; 0xaa
    ef40:	e3a0107b 	mov	r1, #123	; 0x7b
    ef44:	e3a00006 	mov	r0, #6
    ef48:	ebfffe7a 	bl	e938 <ERR_put_error>
    ef4c:	eaffffeb 	b	ef00 <EVP_CipherInit_ex+0x110>
    ef50:	e59f11b8 	ldr	r1, [pc, #440]	; f110 <EVP_CipherInit_ex+0x320>
    ef54:	e3a02000 	mov	r2, #0
    ef58:	e08f1001 	add	r1, pc, r1
    ef5c:	eb0003d7 	bl	fec0 <CRYPTO_zalloc>
    ef60:	e3500000 	cmp	r0, #0
    ef64:	e5840060 	str	r0, [r4, #96]	; 0x60
    ef68:	0a00004d 	beq	f0a4 <EVP_CipherInit_ex+0x2b4>
    ef6c:	e5943000 	ldr	r3, [r4]
    ef70:	eaffffba 	b	ee60 <EVP_CipherInit_ex+0x70>
    ef74:	e3a03000 	mov	r3, #0
    ef78:	e1a00004 	mov	r0, r4
    ef7c:	e1a02003 	mov	r2, r3
    ef80:	e1a01003 	mov	r1, r3
    ef84:	ebffff71 	bl	ed50 <EVP_CIPHER_CTX_ctrl>
    ef88:	e2506000 	subs	r6, r0, #0
    ef8c:	0a000019 	beq	eff8 <EVP_CipherInit_ex+0x208>
    ef90:	e5943000 	ldr	r3, [r4]
    ef94:	eaffffb9 	b	ee80 <EVP_CipherInit_ex+0x90>
    ef98:	e3530000 	cmp	r3, #0
    ef9c:	1affffb7 	bne	ee80 <EVP_CipherInit_ex+0x90>
    efa0:	e58d6000 	str	r6, [sp]
    efa4:	e1a03006 	mov	r3, r6
    efa8:	e3a02083 	mov	r2, #131	; 0x83
    efac:	e3a0107b 	mov	r1, #123	; 0x7b
    efb0:	e3a00006 	mov	r0, #6
    efb4:	ebfffe5f 	bl	e938 <ERR_put_error>
    efb8:	eaffffd0 	b	ef00 <EVP_CipherInit_ex+0x110>
    efbc:	e1a00004 	mov	r0, r4
    efc0:	eb0000a2 	bl	f250 <EVP_CIPHER_CTX_cipher>
    efc4:	eb0000a5 	bl	f260 <EVP_CIPHER_flags>
    efc8:	e3a03007 	mov	r3, #7
    efcc:	e340300f 	movt	r3, #15
    efd0:	e0000003 	and	r0, r0, r3
    efd4:	e3500005 	cmp	r0, #5
    efd8:	908ff100 	addls	pc, pc, r0, lsl #2
    efdc:	ea000049 	b	f108 <EVP_CipherInit_ex+0x318>
    efe0:	eaffffb4 	b	eeb8 <EVP_CipherInit_ex+0xc8>
    efe4:	eaffffb3 	b	eeb8 <EVP_CipherInit_ex+0xc8>
    efe8:	ea00000c 	b	f020 <EVP_CipherInit_ex+0x230>
    efec:	ea000009 	b	f018 <EVP_CipherInit_ex+0x228>
    eff0:	ea000008 	b	f018 <EVP_CipherInit_ex+0x228>
    eff4:	ea00001e 	b	f074 <EVP_CipherInit_ex+0x284>
    eff8:	e5846000 	str	r6, [r4]
    effc:	e1a03006 	mov	r3, r6
    f000:	e58d6000 	str	r6, [sp]
    f004:	e3a02086 	mov	r2, #134	; 0x86
    f008:	e3a0107b 	mov	r1, #123	; 0x7b
    f00c:	e3a00006 	mov	r0, #6
    f010:	ebfffe48 	bl	e938 <ERR_put_error>
    f014:	eaffffb9 	b	ef00 <EVP_CipherInit_ex+0x110>
    f018:	e3a03000 	mov	r3, #0
    f01c:	e5843050 	str	r3, [r4, #80]	; 0x50
    f020:	e1a00004 	mov	r0, r4
    f024:	eb000091 	bl	f270 <EVP_CIPHER_CTX_iv_length>
    f028:	e3500010 	cmp	r0, #16
    f02c:	ca00002f 	bgt	f0f0 <EVP_CipherInit_ex+0x300>
    f030:	e59d3020 	ldr	r3, [sp, #32]
    f034:	e2846010 	add	r6, r4, #16
    f038:	e3530000 	cmp	r3, #0
    f03c:	0a000005 	beq	f058 <EVP_CipherInit_ex+0x268>
    f040:	e1a00004 	mov	r0, r4
    f044:	eb000089 	bl	f270 <EVP_CIPHER_CTX_iv_length>
    f048:	e59d1020 	ldr	r1, [sp, #32]
    f04c:	e1a02000 	mov	r2, r0
    f050:	e1a00006 	mov	r0, r6
    f054:	eb000a57 	bl	119b8 <memcpy>
    f058:	e1a00004 	mov	r0, r4
    f05c:	eb000083 	bl	f270 <EVP_CIPHER_CTX_iv_length>
    f060:	e1a01006 	mov	r1, r6
    f064:	e1a02000 	mov	r2, r0
    f068:	e2840020 	add	r0, r4, #32
    f06c:	eb000a51 	bl	119b8 <memcpy>
    f070:	eaffff90 	b	eeb8 <EVP_CipherInit_ex+0xc8>
    f074:	e59d3020 	ldr	r3, [sp, #32]
    f078:	e3530000 	cmp	r3, #0
    f07c:	e3a03000 	mov	r3, #0
    f080:	e5843050 	str	r3, [r4, #80]	; 0x50
    f084:	0affff8b 	beq	eeb8 <EVP_CipherInit_ex+0xc8>
    f088:	e1a00004 	mov	r0, r4
    f08c:	eb000077 	bl	f270 <EVP_CIPHER_CTX_iv_length>
    f090:	e59d1020 	ldr	r1, [sp, #32]
    f094:	e1a02000 	mov	r2, r0
    f098:	e2840020 	add	r0, r4, #32
    f09c:	eb000a45 	bl	119b8 <memcpy>
    f0a0:	eaffff84 	b	eeb8 <EVP_CipherInit_ex+0xc8>
    f0a4:	e5840000 	str	r0, [r4]
    f0a8:	e1a03000 	mov	r3, r0
    f0ac:	e58d0000 	str	r0, [sp]
    f0b0:	e3a02041 	mov	r2, #65	; 0x41
    f0b4:	e3a0107b 	mov	r1, #123	; 0x7b
    f0b8:	e3a00006 	mov	r0, #6
    f0bc:	e1a06003 	mov	r6, r3
    f0c0:	ebfffe1c 	bl	e938 <ERR_put_error>
    f0c4:	eaffff8d 	b	ef00 <EVP_CipherInit_ex+0x110>
    f0c8:	e5932010 	ldr	r2, [r3, #16]
    f0cc:	e3120020 	tst	r2, #32
    f0d0:	0affff84 	beq	eee8 <EVP_CipherInit_ex+0xf8>
    f0d4:	eaffff7a 	b	eec4 <EVP_CipherInit_ex+0xd4>
    f0d8:	e59f1034 	ldr	r1, [pc, #52]	; f114 <EVP_CipherInit_ex+0x324>
    f0dc:	e3a02000 	mov	r2, #0
    f0e0:	e59f0030 	ldr	r0, [pc, #48]	; f118 <EVP_CipherInit_ex+0x328>
    f0e4:	e08f1001 	add	r1, pc, r1
    f0e8:	e08f0000 	add	r0, pc, r0
    f0ec:	ebfffd81 	bl	e6f8 <OPENSSL_die>
    f0f0:	e59f1024 	ldr	r1, [pc, #36]	; f11c <EVP_CipherInit_ex+0x32c>
    f0f4:	e3a02000 	mov	r2, #0
    f0f8:	e59f0020 	ldr	r0, [pc, #32]	; f120 <EVP_CipherInit_ex+0x330>
    f0fc:	e08f1001 	add	r1, pc, r1
    f100:	e08f0000 	add	r0, pc, r0
    f104:	ebfffd7b 	bl	e6f8 <OPENSSL_die>
    f108:	e3a06000 	mov	r6, #0
    f10c:	eaffff7b 	b	ef00 <EVP_CipherInit_ex+0x110>
    f110:	00003758 	.word	0x00003758
    f114:	000035cc 	.word	0x000035cc
    f118:	00005c28 	.word	0x00005c28
    f11c:	000035b4 	.word	0x000035b4
    f120:	00005c80 	.word	0x00005c80

0000f124 <EVP_EncryptInit_ex>:
    f124:	e52de004 	push	{lr}		; (str lr, [sp, #-4]!)
    f128:	e3a0c001 	mov	ip, #1
    f12c:	e24dd00c 	sub	sp, sp, #12
    f130:	e59de010 	ldr	lr, [sp, #16]
    f134:	e58de000 	str	lr, [sp]
    f138:	e58dc004 	str	ip, [sp, #4]
    f13c:	ebffff2b 	bl	edf0 <EVP_CipherInit_ex>
    f140:	e28dd00c 	add	sp, sp, #12
    f144:	e49df004 	pop	{pc}		; (ldr pc, [sp], #4)

0000f148 <EVP_CIPHER_CTX_set_key_length>:
    f148:	e5902000 	ldr	r2, [r0]
    f14c:	e5922010 	ldr	r2, [r2, #16]
    f150:	e3120080 	tst	r2, #128	; 0x80
    f154:	1a000015 	bne	f1b0 <EVP_CIPHER_CTX_set_key_length+0x68>
    f158:	e1a03000 	mov	r3, r0
    f15c:	e5900058 	ldr	r0, [r0, #88]	; 0x58
    f160:	e1500001 	cmp	r0, r1
    f164:	0a00000f 	beq	f1a8 <EVP_CIPHER_CTX_set_key_length+0x60>
    f168:	e3510000 	cmp	r1, #0
    f16c:	da000001 	ble	f178 <EVP_CIPHER_CTX_set_key_length+0x30>
    f170:	e3120008 	tst	r2, #8
    f174:	1a000011 	bne	f1c0 <EVP_CIPHER_CTX_set_key_length+0x78>
    f178:	e92d4010 	push	{r4, lr}
    f17c:	e3a04000 	mov	r4, #0
    f180:	e3a02082 	mov	r2, #130	; 0x82
    f184:	e24dd008 	sub	sp, sp, #8
    f188:	e1a03004 	mov	r3, r4
    f18c:	e3a0107a 	mov	r1, #122	; 0x7a
    f190:	e3a00006 	mov	r0, #6
    f194:	e58d4000 	str	r4, [sp]
    f198:	ebfffde6 	bl	e938 <ERR_put_error>
    f19c:	e1a00004 	mov	r0, r4
    f1a0:	e28dd008 	add	sp, sp, #8
    f1a4:	e8bd8010 	pop	{r4, pc}
    f1a8:	e3a00001 	mov	r0, #1
    f1ac:	e12fff1e 	bx	lr
    f1b0:	e1a02001 	mov	r2, r1
    f1b4:	e3a03000 	mov	r3, #0
    f1b8:	e3a01001 	mov	r1, #1
    f1bc:	eafffee3 	b	ed50 <EVP_CIPHER_CTX_ctrl>
    f1c0:	e5831058 	str	r1, [r3, #88]	; 0x58
    f1c4:	e3a00001 	mov	r0, #1
    f1c8:	e12fff1e 	bx	lr

0000f1cc <EVP_CIPHER_CTX_iv_length.part.0>:
    f1cc:	e59fc050 	ldr	ip, [pc, #80]	; f224 <EVP_CIPHER_CTX_iv_length.part.0+0x58>
    f1d0:	e3a02000 	mov	r2, #0
    f1d4:	e92d4010 	push	{r4, lr}
    f1d8:	e3a01025 	mov	r1, #37	; 0x25
    f1dc:	e59fe044 	ldr	lr, [pc, #68]	; f228 <EVP_CIPHER_CTX_iv_length.part.0+0x5c>
    f1e0:	e08fc00c 	add	ip, pc, ip
    f1e4:	e24dd008 	sub	sp, sp, #8
    f1e8:	e1a0300d 	mov	r3, sp
    f1ec:	e79c400e 	ldr	r4, [ip, lr]
    f1f0:	e594c000 	ldr	ip, [r4]
    f1f4:	e58dc004 	str	ip, [sp, #4]
    f1f8:	ebfffed4 	bl	ed50 <EVP_CIPHER_CTX_ctrl>
    f1fc:	e3500001 	cmp	r0, #1
    f200:	e59d2004 	ldr	r2, [sp, #4]
    f204:	e5943000 	ldr	r3, [r4]
    f208:	13e00000 	mvnne	r0, #0
    f20c:	059d0000 	ldreq	r0, [sp]
    f210:	e1520003 	cmp	r2, r3
    f214:	1a000001 	bne	f220 <EVP_CIPHER_CTX_iv_length.part.0+0x54>
    f218:	e28dd008 	add	sp, sp, #8
    f21c:	e8bd8010 	pop	{r4, pc}
    f220:	eb0009bb 	bl	11914 <__stack_chk_fail>
    f224:	00005e98 	.word	0x00005e98
    f228:	00000010 	.word	0x00000010

0000f22c <EVP_CIPHER_CTX_block_size>:
    f22c:	e5903000 	ldr	r3, [r0]
    f230:	e5930004 	ldr	r0, [r3, #4]
    f234:	e12fff1e 	bx	lr

0000f238 <EVP_Cipher>:
    f238:	e590c000 	ldr	ip, [r0]
    f23c:	e52de004 	push	{lr}		; (str lr, [sp, #-4]!)
    f240:	e59ce018 	ldr	lr, [ip, #24]
    f244:	e1a0c00e 	mov	ip, lr
    f248:	e49de004 	pop	{lr}		; (ldr lr, [sp], #4)
    f24c:	e12fff1c 	bx	ip

0000f250 <EVP_CIPHER_CTX_cipher>:
    f250:	e5900000 	ldr	r0, [r0]
    f254:	e12fff1e 	bx	lr

0000f258 <EVP_CIPHER_CTX_encrypting>:
    f258:	e5900008 	ldr	r0, [r0, #8]
    f25c:	e12fff1e 	bx	lr

0000f260 <EVP_CIPHER_flags>:
    f260:	e5900010 	ldr	r0, [r0, #16]
    f264:	e12fff1e 	bx	lr

0000f268 <EVP_CIPHER_CTX_get_cipher_data>:
    f268:	e5900060 	ldr	r0, [r0, #96]	; 0x60
    f26c:	e12fff1e 	bx	lr

0000f270 <EVP_CIPHER_CTX_iv_length>:
    f270:	e5903000 	ldr	r3, [r0]
    f274:	e5932010 	ldr	r2, [r3, #16]
    f278:	e3120b02 	tst	r2, #2048	; 0x800
    f27c:	1a000001 	bne	f288 <EVP_CIPHER_CTX_iv_length+0x18>
    f280:	e593000c 	ldr	r0, [r3, #12]
    f284:	e12fff1e 	bx	lr
    f288:	eaffffcf 	b	f1cc <EVP_CIPHER_CTX_iv_length.part.0>

0000f28c <EVP_CIPHER_CTX_iv_noconst>:
    f28c:	e2800020 	add	r0, r0, #32
    f290:	e12fff1e 	bx	lr

0000f294 <EVP_CIPHER_CTX_key_length>:
    f294:	e5900058 	ldr	r0, [r0, #88]	; 0x58
    f298:	e12fff1e 	bx	lr

0000f29c <do_ex_data_init_ossl_>:
    f29c:	e92d4010 	push	{r4, lr}
    f2a0:	e3a02000 	mov	r2, #0
    f2a4:	e3a00000 	mov	r0, #0
    f2a8:	e3a01000 	mov	r1, #0
    f2ac:	eb000171 	bl	f878 <OPENSSL_init_crypto>
    f2b0:	e2503000 	subs	r3, r0, #0
    f2b4:	0a000005 	beq	f2d0 <do_ex_data_init_ossl_+0x34>
    f2b8:	eb000439 	bl	103a4 <CRYPTO_THREAD_lock_new>
    f2bc:	e59f201c 	ldr	r2, [pc, #28]	; f2e0 <do_ex_data_init_ossl_+0x44>
    f2c0:	e2903000 	adds	r3, r0, #0
    f2c4:	e08f2002 	add	r2, pc, r2
    f2c8:	13a03001 	movne	r3, #1
    f2cc:	e5820000 	str	r0, [r2]
    f2d0:	e59f200c 	ldr	r2, [pc, #12]	; f2e4 <do_ex_data_init_ossl_+0x48>
    f2d4:	e08f2002 	add	r2, pc, r2
    f2d8:	e5823000 	str	r3, [r2]
    f2dc:	e8bd8010 	pop	{r4, pc}
    f2e0:	000062a4 	.word	0x000062a4
    f2e4:	0000624c 	.word	0x0000624c

0000f2e8 <get_and_lock>:
    f2e8:	e92d4030 	push	{r4, r5, lr}
    f2ec:	e350000f 	cmp	r0, #15
    f2f0:	83a03000 	movhi	r3, #0
    f2f4:	e24dd00c 	sub	sp, sp, #12
    f2f8:	83a02007 	movhi	r2, #7
    f2fc:	8a000019 	bhi	f368 <get_and_lock+0x80>
    f300:	e1a05000 	mov	r5, r0
    f304:	e59f1084 	ldr	r1, [pc, #132]	; f390 <get_and_lock+0xa8>
    f308:	e59f0084 	ldr	r0, [pc, #132]	; f394 <get_and_lock+0xac>
    f30c:	e08f1001 	add	r1, pc, r1
    f310:	e08f0000 	add	r0, pc, r0
    f314:	eb00043f 	bl	10418 <CRYPTO_THREAD_run_once>
    f318:	e3500000 	cmp	r0, #0
    f31c:	0a00000f 	beq	f360 <get_and_lock+0x78>
    f320:	e59f3070 	ldr	r3, [pc, #112]	; f398 <get_and_lock+0xb0>
    f324:	e08f3003 	add	r3, pc, r3
    f328:	e5933000 	ldr	r3, [r3]
    f32c:	e3530000 	cmp	r3, #0
    f330:	0a00000a 	beq	f360 <get_and_lock+0x78>
    f334:	e59f3060 	ldr	r3, [pc, #96]	; f39c <get_and_lock+0xb4>
    f338:	e79f0003 	ldr	r0, [pc, r3]
    f33c:	e3500000 	cmp	r0, #0
    f340:	0a000010 	beq	f388 <get_and_lock+0xa0>
    f344:	e59f4054 	ldr	r4, [pc, #84]	; f3a0 <get_and_lock+0xb8>
    f348:	e08f4004 	add	r4, pc, r4
    f34c:	e0844105 	add	r4, r4, r5, lsl #2
    f350:	eb00041e 	bl	103d0 <CRYPTO_THREAD_write_lock>
    f354:	e1a00004 	mov	r0, r4
    f358:	e28dd00c 	add	sp, sp, #12
    f35c:	e8bd8030 	pop	{r4, r5, pc}
    f360:	e3a03000 	mov	r3, #0
    f364:	e3a02041 	mov	r2, #65	; 0x41
    f368:	e1a04003 	mov	r4, r3
    f36c:	e58d3000 	str	r3, [sp]
    f370:	e3a01071 	mov	r1, #113	; 0x71
    f374:	e3a0000f 	mov	r0, #15
    f378:	ebfffd6e 	bl	e938 <ERR_put_error>
    f37c:	e1a00004 	mov	r0, r4
    f380:	e28dd00c 	add	sp, sp, #12
    f384:	e8bd8030 	pop	{r4, r5, pc}
    f388:	e1a04000 	mov	r4, r0
    f38c:	eafffff0 	b	f354 <get_and_lock+0x6c>
    f390:	ffffff88 	.word	0xffffff88
    f394:	00006254 	.word	0x00006254
    f398:	000061fc 	.word	0x000061fc
    f39c:	00006230 	.word	0x00006230
    f3a0:	000061dc 	.word	0x000061dc

0000f3a4 <CRYPTO_get_ex_data>:
    f3a4:	e5903000 	ldr	r3, [r0]
    f3a8:	e3530000 	cmp	r3, #0
    f3ac:	0a00000c 	beq	f3e4 <CRYPTO_get_ex_data+0x40>
    f3b0:	e92d4070 	push	{r4, r5, r6, lr}
    f3b4:	e1a05001 	mov	r5, r1
    f3b8:	e1a04000 	mov	r4, r0
    f3bc:	e1a00003 	mov	r0, r3
    f3c0:	eb0003e6 	bl	10360 <OPENSSL_sk_num>
    f3c4:	e1550000 	cmp	r5, r0
    f3c8:	aa000003 	bge	f3dc <CRYPTO_get_ex_data+0x38>
    f3cc:	e1a01005 	mov	r1, r5
    f3d0:	e5940000 	ldr	r0, [r4]
    f3d4:	e8bd4070 	pop	{r4, r5, r6, lr}
    f3d8:	ea0003e4 	b	10370 <OPENSSL_sk_value>
    f3dc:	e3a00000 	mov	r0, #0
    f3e0:	e8bd8070 	pop	{r4, r5, r6, pc}
    f3e4:	e3a00000 	mov	r0, #0
    f3e8:	e12fff1e 	bx	lr

0000f3ec <CRYPTO_free_ex_data>:
    f3ec:	e59f31ac 	ldr	r3, [pc, #428]	; f5a0 <CRYPTO_free_ex_data+0x1b4>
    f3f0:	e92d4ff0 	push	{r4, r5, r6, r7, r8, r9, sl, fp, lr}
    f3f4:	e1a0a001 	mov	sl, r1
    f3f8:	e59f11a4 	ldr	r1, [pc, #420]	; f5a4 <CRYPTO_free_ex_data+0x1b8>
    f3fc:	e08f3003 	add	r3, pc, r3
    f400:	e24dd044 	sub	sp, sp, #68	; 0x44
    f404:	e1a08002 	mov	r8, r2
    f408:	e7933001 	ldr	r3, [r3, r1]
    f40c:	e58d3008 	str	r3, [sp, #8]
    f410:	e5933000 	ldr	r3, [r3]
    f414:	e58d303c 	str	r3, [sp, #60]	; 0x3c
    f418:	ebffffb2 	bl	f2e8 <get_and_lock>
    f41c:	e2509000 	subs	r9, r0, #0
    f420:	0a000044 	beq	f538 <CRYPTO_free_ex_data+0x14c>
    f424:	e5990000 	ldr	r0, [r9]
    f428:	eb0003cc 	bl	10360 <OPENSSL_sk_num>
    f42c:	e2507000 	subs	r7, r0, #0
    f430:	da000036 	ble	f510 <CRYPTO_free_ex_data+0x124>
    f434:	e3570009 	cmp	r7, #9
    f438:	d28d3014 	addle	r3, sp, #20
    f43c:	d58d300c 	strle	r3, [sp, #12]
    f440:	d1a06003 	movle	r6, r3
    f444:	ca00004a 	bgt	f574 <CRYPTO_free_ex_data+0x188>
    f448:	e2465004 	sub	r5, r6, #4
    f44c:	e3a04000 	mov	r4, #0
    f450:	e1a01004 	mov	r1, r4
    f454:	e5990000 	ldr	r0, [r9]
    f458:	e2844001 	add	r4, r4, #1
    f45c:	eb0003c3 	bl	10370 <OPENSSL_sk_value>
    f460:	e1540007 	cmp	r4, r7
    f464:	e5a50004 	str	r0, [r5, #4]!
    f468:	1afffff8 	bne	f450 <CRYPTO_free_ex_data+0x64>
    f46c:	e59f3134 	ldr	r3, [pc, #308]	; f5a8 <CRYPTO_free_ex_data+0x1bc>
    f470:	e3a04000 	mov	r4, #0
    f474:	e59fb130 	ldr	fp, [pc, #304]	; f5ac <CRYPTO_free_ex_data+0x1c0>
    f478:	e08f3003 	add	r3, pc, r3
    f47c:	e08fb00b 	add	fp, pc, fp
    f480:	e5930000 	ldr	r0, [r3]
    f484:	eb0003d6 	bl	103e4 <CRYPTO_THREAD_unlock>
    f488:	ea000015 	b	f4e4 <CRYPTO_free_ex_data+0xf8>
    f48c:	e7965104 	ldr	r5, [r6, r4, lsl #2]
    f490:	e3550000 	cmp	r5, #0
    f494:	0a00000f 	beq	f4d8 <CRYPTO_free_ex_data+0xec>
    f498:	e595300c 	ldr	r3, [r5, #12]
    f49c:	e3530000 	cmp	r3, #0
    f4a0:	0a00000c 	beq	f4d8 <CRYPTO_free_ex_data+0xec>
    f4a4:	e1a01004 	mov	r1, r4
    f4a8:	e1a00008 	mov	r0, r8
    f4ac:	ebffffbc 	bl	f3a4 <CRYPTO_get_ex_data>
    f4b0:	e5953004 	ldr	r3, [r5, #4]
    f4b4:	e58d3004 	str	r3, [sp, #4]
    f4b8:	e1a01000 	mov	r1, r0
    f4bc:	e1a03004 	mov	r3, r4
    f4c0:	e1a02008 	mov	r2, r8
    f4c4:	e595c000 	ldr	ip, [r5]
    f4c8:	e1a0000a 	mov	r0, sl
    f4cc:	e58dc000 	str	ip, [sp]
    f4d0:	e595500c 	ldr	r5, [r5, #12]
    f4d4:	e12fff35 	blx	r5
    f4d8:	e2844001 	add	r4, r4, #1
    f4dc:	e1540007 	cmp	r4, r7
    f4e0:	0a00001f 	beq	f564 <CRYPTO_free_ex_data+0x178>
    f4e4:	e3560000 	cmp	r6, #0
    f4e8:	1affffe7 	bne	f48c <CRYPTO_free_ex_data+0xa0>
    f4ec:	e59b0000 	ldr	r0, [fp]
    f4f0:	eb0003b6 	bl	103d0 <CRYPTO_THREAD_write_lock>
    f4f4:	e1a01004 	mov	r1, r4
    f4f8:	e5990000 	ldr	r0, [r9]
    f4fc:	eb00039b 	bl	10370 <OPENSSL_sk_value>
    f500:	e1a05000 	mov	r5, r0
    f504:	e59b0000 	ldr	r0, [fp]
    f508:	eb0003b5 	bl	103e4 <CRYPTO_THREAD_unlock>
    f50c:	eaffffdf 	b	f490 <CRYPTO_free_ex_data+0xa4>
    f510:	e59f3098 	ldr	r3, [pc, #152]	; f5b0 <CRYPTO_free_ex_data+0x1c4>
    f514:	e3a06000 	mov	r6, #0
    f518:	e08f3003 	add	r3, pc, r3
    f51c:	e5930000 	ldr	r0, [r3]
    f520:	eb0003af 	bl	103e4 <CRYPTO_THREAD_unlock>
    f524:	e59f1088 	ldr	r1, [pc, #136]	; f5b4 <CRYPTO_free_ex_data+0x1c8>
    f528:	e1a00006 	mov	r0, r6
    f52c:	e3a02000 	mov	r2, #0
    f530:	e08f1001 	add	r1, pc, r1
    f534:	eb000235 	bl	fe10 <CRYPTO_free>
    f538:	e5980000 	ldr	r0, [r8]
    f53c:	eb000384 	bl	10354 <OPENSSL_sk_free>
    f540:	e59d3008 	ldr	r3, [sp, #8]
    f544:	e59d203c 	ldr	r2, [sp, #60]	; 0x3c
    f548:	e3a01000 	mov	r1, #0
    f54c:	e5933000 	ldr	r3, [r3]
    f550:	e5881000 	str	r1, [r8]
    f554:	e1520003 	cmp	r2, r3
    f558:	1a00000f 	bne	f59c <CRYPTO_free_ex_data+0x1b0>
    f55c:	e28dd044 	add	sp, sp, #68	; 0x44
    f560:	e8bd8ff0 	pop	{r4, r5, r6, r7, r8, r9, sl, fp, pc}
    f564:	e59d300c 	ldr	r3, [sp, #12]
    f568:	e1560003 	cmp	r6, r3
    f56c:	0afffff1 	beq	f538 <CRYPTO_free_ex_data+0x14c>
    f570:	eaffffeb 	b	f524 <CRYPTO_free_ex_data+0x138>
    f574:	e59f103c 	ldr	r1, [pc, #60]	; f5b8 <CRYPTO_free_ex_data+0x1cc>
    f578:	e3a02000 	mov	r2, #0
    f57c:	e1a00107 	lsl	r0, r7, #2
    f580:	e08f1001 	add	r1, pc, r1
    f584:	eb000231 	bl	fe50 <CRYPTO_malloc>
    f588:	e28d3014 	add	r3, sp, #20
    f58c:	e2506000 	subs	r6, r0, #0
    f590:	e58d300c 	str	r3, [sp, #12]
    f594:	0affffb4 	beq	f46c <CRYPTO_free_ex_data+0x80>
    f598:	eaffffaa 	b	f448 <CRYPTO_free_ex_data+0x5c>
    f59c:	eb0008dc 	bl	11914 <__stack_chk_fail>
    f5a0:	00005c7c 	.word	0x00005c7c
    f5a4:	00000010 	.word	0x00000010
    f5a8:	000060f0 	.word	0x000060f0
    f5ac:	000060ec 	.word	0x000060ec
    f5b0:	00006050 	.word	0x00006050
    f5b4:	00003180 	.word	0x00003180
    f5b8:	00003130 	.word	0x00003130

0000f5bc <ossl_init_register_atexit_ossl_>:
    f5bc:	e59f300c 	ldr	r3, [pc, #12]	; f5d0 <ossl_init_register_atexit_ossl_+0x14>
    f5c0:	e3a02001 	mov	r2, #1
    f5c4:	e08f3003 	add	r3, pc, r3
    f5c8:	e5832000 	str	r2, [r3]
    f5cc:	e12fff1e 	bx	lr
    f5d0:	00005ff0 	.word	0x00005ff0

0000f5d4 <ossl_init_load_crypto_nodelete_ossl_>:
    f5d4:	e59f300c 	ldr	r3, [pc, #12]	; f5e8 <ossl_init_load_crypto_nodelete_ossl_+0x14>
    f5d8:	e3a02001 	mov	r2, #1
    f5dc:	e08f3003 	add	r3, pc, r3
    f5e0:	e5832000 	str	r2, [r3]
    f5e4:	e12fff1e 	bx	lr
    f5e8:	00005fd0 	.word	0x00005fd0

0000f5ec <ossl_init_load_crypto_strings_ossl_>:
    f5ec:	e59f300c 	ldr	r3, [pc, #12]	; f600 <ossl_init_load_crypto_strings_ossl_+0x14>
    f5f0:	e3a02001 	mov	r2, #1
    f5f4:	e08f3003 	add	r3, pc, r3
    f5f8:	e5832000 	str	r2, [r3]
    f5fc:	e12fff1e 	bx	lr
    f600:	00005fbc 	.word	0x00005fbc

0000f604 <ossl_init_add_all_ciphers_ossl_>:
    f604:	e59f300c 	ldr	r3, [pc, #12]	; f618 <ossl_init_add_all_ciphers_ossl_+0x14>
    f608:	e3a02001 	mov	r2, #1
    f60c:	e08f3003 	add	r3, pc, r3
    f610:	e5832000 	str	r2, [r3]
    f614:	e12fff1e 	bx	lr
    f618:	00005f8c 	.word	0x00005f8c

0000f61c <ossl_init_add_all_digests_ossl_>:
    f61c:	e59f300c 	ldr	r3, [pc, #12]	; f630 <ossl_init_add_all_digests_ossl_+0x14>
    f620:	e3a02001 	mov	r2, #1
    f624:	e08f3003 	add	r3, pc, r3
    f628:	e5832000 	str	r2, [r3]
    f62c:	e12fff1e 	bx	lr
    f630:	00005f78 	.word	0x00005f78

0000f634 <ossl_init_thread_stop>:
    f634:	e92d4010 	push	{r4, lr}
    f638:	e2504000 	subs	r4, r0, #0
    f63c:	08bd8010 	popeq	{r4, pc}
    f640:	e5943000 	ldr	r3, [r4]
    f644:	e3530000 	cmp	r3, #0
    f648:	1a000012 	bne	f698 <ossl_init_thread_stop+0x64>
    f64c:	e5943004 	ldr	r3, [r4, #4]
    f650:	e3530000 	cmp	r3, #0
    f654:	1a00000a 	bne	f684 <ossl_init_thread_stop+0x50>
    f658:	e5943008 	ldr	r3, [r4, #8]
    f65c:	e3530000 	cmp	r3, #0
    f660:	1a000005 	bne	f67c <ossl_init_thread_stop+0x48>
    f664:	e59f1040 	ldr	r1, [pc, #64]	; f6ac <ossl_init_thread_stop+0x78>
    f668:	e1a00004 	mov	r0, r4
    f66c:	e3a02000 	mov	r2, #0
    f670:	e08f1001 	add	r1, pc, r1
    f674:	e8bd4010 	pop	{r4, lr}
    f678:	ea0001e4 	b	fe10 <CRYPTO_free>
    f67c:	eb0002e4 	bl	10214 <drbg_delete_thread_state>
    f680:	eafffff7 	b	f664 <ossl_init_thread_stop+0x30>
    f684:	ebfffc4b 	bl	e7b8 <err_delete_thread_state>
    f688:	e5943008 	ldr	r3, [r4, #8]
    f68c:	e3530000 	cmp	r3, #0
    f690:	0afffff3 	beq	f664 <ossl_init_thread_stop+0x30>
    f694:	eafffff8 	b	f67c <ossl_init_thread_stop+0x48>
    f698:	ebfffa7a 	bl	e088 <async_delete_thread_state>
    f69c:	e5943004 	ldr	r3, [r4, #4]
    f6a0:	e3530000 	cmp	r3, #0
    f6a4:	0affffeb 	beq	f658 <ossl_init_thread_stop+0x24>
    f6a8:	eafffff5 	b	f684 <ossl_init_thread_stop+0x50>
    f6ac:	00003040 	.word	0x00003040

0000f6b0 <ossl_init_thread_destructor>:
    f6b0:	eaffffdf 	b	f634 <ossl_init_thread_stop>

0000f6b4 <ossl_init_async_ossl_>:
    f6b4:	e92d4010 	push	{r4, lr}
    f6b8:	ebfffa5b 	bl	e02c <async_init>
    f6bc:	e3500000 	cmp	r0, #0
    f6c0:	0a000004 	beq	f6d8 <ossl_init_async_ossl_+0x24>
    f6c4:	e59f301c 	ldr	r3, [pc, #28]	; f6e8 <ossl_init_async_ossl_+0x34>
    f6c8:	e3a02001 	mov	r2, #1
    f6cc:	e1a00002 	mov	r0, r2
    f6d0:	e08f3003 	add	r3, pc, r3
    f6d4:	e5832000 	str	r2, [r3]
    f6d8:	e59f300c 	ldr	r3, [pc, #12]	; f6ec <ossl_init_async_ossl_+0x38>
    f6dc:	e08f3003 	add	r3, pc, r3
    f6e0:	e5830000 	str	r0, [r3]
    f6e4:	e8bd8010 	pop	{r4, pc}
    f6e8:	00005ea8 	.word	0x00005ea8
    f6ec:	00005ec4 	.word	0x00005ec4

0000f6f0 <ossl_init_config_ossl_>:
    f6f0:	e59f3018 	ldr	r3, [pc, #24]	; f710 <ossl_init_config_ossl_+0x20>
    f6f4:	e92d4010 	push	{r4, lr}
    f6f8:	e79f0003 	ldr	r0, [pc, r3]
    f6fc:	ebfffbe9 	bl	e6a8 <openssl_config_int>
    f700:	e59f300c 	ldr	r3, [pc, #12]	; f714 <ossl_init_config_ossl_+0x24>
    f704:	e08f3003 	add	r3, pc, r3
    f708:	e5830000 	str	r0, [r3]
    f70c:	e8bd8010 	pop	{r4, pc}
    f710:	00005e8c 	.word	0x00005e8c
    f714:	00005ea4 	.word	0x00005ea4

0000f718 <ossl_init_no_config_ossl_>:
    f718:	e92d4010 	push	{r4, lr}
    f71c:	ebfffbee 	bl	e6dc <openssl_no_config_int>
    f720:	e59f300c 	ldr	r3, [pc, #12]	; f734 <ossl_init_no_config_ossl_+0x1c>
    f724:	e3a02001 	mov	r2, #1
    f728:	e08f3003 	add	r3, pc, r3
    f72c:	e5832000 	str	r2, [r3]
    f730:	e8bd8010 	pop	{r4, pc}
    f734:	00005e80 	.word	0x00005e80

0000f738 <ossl_init_base_ossl_>:
    f738:	e59f30bc 	ldr	r3, [pc, #188]	; f7fc <ossl_init_base_ossl_+0xc4>
    f73c:	e59f20bc 	ldr	r2, [pc, #188]	; f800 <ossl_init_base_ossl_+0xc8>
    f740:	e08f3003 	add	r3, pc, r3
    f744:	e92d40f0 	push	{r4, r5, r6, r7, lr}
    f748:	e59f10b4 	ldr	r1, [pc, #180]	; f804 <ossl_init_base_ossl_+0xcc>
    f74c:	e24dd00c 	sub	sp, sp, #12
    f750:	e7935002 	ldr	r5, [r3, r2]
    f754:	e1a0600d 	mov	r6, sp
    f758:	e1a00006 	mov	r0, r6
    f75c:	e08f1001 	add	r1, pc, r1
    f760:	e5953000 	ldr	r3, [r5]
    f764:	e58d3004 	str	r3, [sp, #4]
    f768:	eb000336 	bl	10448 <CRYPTO_THREAD_init_local>
    f76c:	e3500000 	cmp	r0, #0
    f770:	1a000008 	bne	f798 <ossl_init_base_ossl_+0x60>
    f774:	e59f308c 	ldr	r3, [pc, #140]	; f808 <ossl_init_base_ossl_+0xd0>
    f778:	e59d1004 	ldr	r1, [sp, #4]
    f77c:	e08f3003 	add	r3, pc, r3
    f780:	e5952000 	ldr	r2, [r5]
    f784:	e1510002 	cmp	r1, r2
    f788:	e5830000 	str	r0, [r3]
    f78c:	1a000019 	bne	f7f8 <ossl_init_base_ossl_+0xc0>
    f790:	e28dd00c 	add	sp, sp, #12
    f794:	e8bd80f0 	pop	{r4, r5, r6, r7, pc}
    f798:	e59f706c 	ldr	r7, [pc, #108]	; f80c <ossl_init_base_ossl_+0xd4>
    f79c:	eb000300 	bl	103a4 <CRYPTO_THREAD_lock_new>
    f7a0:	e1a04000 	mov	r4, r0
    f7a4:	e3500000 	cmp	r0, #0
    f7a8:	e08f7007 	add	r7, pc, r7
    f7ac:	e5870000 	str	r0, [r7]
    f7b0:	0a00000a 	beq	f7e0 <ossl_init_base_ossl_+0xa8>
    f7b4:	ebfffbce 	bl	e6f4 <OPENSSL_cpuid_setup>
    f7b8:	e59f2050 	ldr	r2, [pc, #80]	; f810 <ossl_init_base_ossl_+0xd8>
    f7bc:	e59f3050 	ldr	r3, [pc, #80]	; f814 <ossl_init_base_ossl_+0xdc>
    f7c0:	e3a01001 	mov	r1, #1
    f7c4:	e08f2002 	add	r2, pc, r2
    f7c8:	e59dc000 	ldr	ip, [sp]
    f7cc:	e08f3003 	add	r3, pc, r3
    f7d0:	e1a00001 	mov	r0, r1
    f7d4:	e582c000 	str	ip, [r2]
    f7d8:	e5831000 	str	r1, [r3]
    f7dc:	eaffffe4 	b	f774 <ossl_init_base_ossl_+0x3c>
    f7e0:	eb000304 	bl	103f8 <CRYPTO_THREAD_lock_free>
    f7e4:	e1a00006 	mov	r0, r6
    f7e8:	e5874000 	str	r4, [r7]
    f7ec:	eb00033c 	bl	104e4 <CRYPTO_THREAD_cleanup_local>
    f7f0:	e1a00004 	mov	r0, r4
    f7f4:	eaffffde 	b	f774 <ossl_init_base_ossl_+0x3c>
    f7f8:	eb000845 	bl	11914 <__stack_chk_fail>
    f7fc:	00005938 	.word	0x00005938
    f800:	00000010 	.word	0x00000010
    f804:	ffffff4c 	.word	0xffffff4c
    f808:	00005e28 	.word	0x00005e28
    f80c:	00005de4 	.word	0x00005de4
    f810:	00005980 	.word	0x00005980
    f814:	00005db4 	.word	0x00005db4

0000f818 <ossl_init_no_add_all_digests_ossl_>:
    f818:	e59f300c 	ldr	r3, [pc, #12]	; f82c <ossl_init_no_add_all_digests_ossl_+0x14>
    f81c:	e3a02001 	mov	r2, #1
    f820:	e08f3003 	add	r3, pc, r3
    f824:	e5832000 	str	r2, [r3]
    f828:	e12fff1e 	bx	lr
    f82c:	00005d7c 	.word	0x00005d7c

0000f830 <ossl_init_no_register_atexit_ossl_>:
    f830:	e59f300c 	ldr	r3, [pc, #12]	; f844 <ossl_init_no_register_atexit_ossl_+0x14>
    f834:	e3a02001 	mov	r2, #1
    f838:	e08f3003 	add	r3, pc, r3
    f83c:	e5832000 	str	r2, [r3]
    f840:	e12fff1e 	bx	lr
    f844:	00005d7c 	.word	0x00005d7c

0000f848 <ossl_init_no_load_crypto_strings_ossl_>:
    f848:	e59f300c 	ldr	r3, [pc, #12]	; f85c <ossl_init_no_load_crypto_strings_ossl_+0x14>
    f84c:	e3a02001 	mov	r2, #1
    f850:	e08f3003 	add	r3, pc, r3
    f854:	e5832000 	str	r2, [r3]
    f858:	e12fff1e 	bx	lr
    f85c:	00005d60 	.word	0x00005d60

0000f860 <ossl_init_no_add_all_ciphers_ossl_>:
    f860:	e59f300c 	ldr	r3, [pc, #12]	; f874 <ossl_init_no_add_all_ciphers_ossl_+0x14>
    f864:	e3a02001 	mov	r2, #1
    f868:	e08f3003 	add	r3, pc, r3
    f86c:	e5832000 	str	r2, [r3]
    f870:	e12fff1e 	bx	lr
    f874:	00005d30 	.word	0x00005d30

0000f878 <OPENSSL_init_crypto>:
    f878:	e59f3410 	ldr	r3, [pc, #1040]	; fc90 <OPENSSL_init_crypto+0x418>
    f87c:	e92d43f0 	push	{r4, r5, r6, r7, r8, r9, lr}
    f880:	e1a05000 	mov	r5, r0
    f884:	e08f3003 	add	r3, pc, r3
    f888:	e24dd00c 	sub	sp, sp, #12
    f88c:	e5934000 	ldr	r4, [r3]
    f890:	e3540000 	cmp	r4, #0
    f894:	0a000012 	beq	f8e4 <OPENSSL_init_crypto+0x6c>
    f898:	e3a01000 	mov	r1, #0
    f89c:	e2002701 	and	r2, r0, #262144	; 0x40000
    f8a0:	e1a03001 	mov	r3, r1
    f8a4:	e1923003 	orrs	r3, r2, r3
    f8a8:	0a000003 	beq	f8bc <OPENSSL_init_crypto+0x44>
    f8ac:	e3a04000 	mov	r4, #0
    f8b0:	e1a00004 	mov	r0, r4
    f8b4:	e28dd00c 	add	sp, sp, #12
    f8b8:	e8bd83f0 	pop	{r4, r5, r6, r7, r8, r9, pc}
    f8bc:	e1a03001 	mov	r3, r1
    f8c0:	e58d1000 	str	r1, [sp]
    f8c4:	e1a04003 	mov	r4, r3
    f8c8:	e3a02046 	mov	r2, #70	; 0x46
    f8cc:	e3a01074 	mov	r1, #116	; 0x74
    f8d0:	e3a0000f 	mov	r0, #15
    f8d4:	ebfffc17 	bl	e938 <ERR_put_error>
    f8d8:	e1a00004 	mov	r0, r4
    f8dc:	e28dd00c 	add	sp, sp, #12
    f8e0:	e8bd83f0 	pop	{r4, r5, r6, r7, r8, r9, pc}
    f8e4:	e59f13a8 	ldr	r1, [pc, #936]	; fc94 <OPENSSL_init_crypto+0x41c>
    f8e8:	e1a06002 	mov	r6, r2
    f8ec:	e59f03a4 	ldr	r0, [pc, #932]	; fc98 <OPENSSL_init_crypto+0x420>
    f8f0:	e08f1001 	add	r1, pc, r1
    f8f4:	e08f0000 	add	r0, pc, r0
    f8f8:	eb0002c6 	bl	10418 <CRYPTO_THREAD_run_once>
    f8fc:	e3500000 	cmp	r0, #0
    f900:	0affffe9 	beq	f8ac <OPENSSL_init_crypto+0x34>
    f904:	e59f3390 	ldr	r3, [pc, #912]	; fc9c <OPENSSL_init_crypto+0x424>
    f908:	e08f3003 	add	r3, pc, r3
    f90c:	e5933000 	ldr	r3, [r3]
    f910:	e3530000 	cmp	r3, #0
    f914:	0affffe4 	beq	f8ac <OPENSSL_init_crypto+0x34>
    f918:	e2052701 	and	r2, r5, #262144	; 0x40000
    f91c:	e1a03004 	mov	r3, r4
    f920:	e1923003 	orrs	r3, r2, r3
    f924:	1a000044 	bne	fa3c <OPENSSL_init_crypto+0x1c4>
    f928:	e2052702 	and	r2, r5, #524288	; 0x80000
    f92c:	e1a03004 	mov	r3, r4
    f930:	e1923003 	orrs	r3, r2, r3
    f934:	1a000042 	bne	fa44 <OPENSSL_init_crypto+0x1cc>
    f938:	e59f1360 	ldr	r1, [pc, #864]	; fca0 <OPENSSL_init_crypto+0x428>
    f93c:	e59f0360 	ldr	r0, [pc, #864]	; fca4 <OPENSSL_init_crypto+0x42c>
    f940:	e08f1001 	add	r1, pc, r1
    f944:	e08f0000 	add	r0, pc, r0
    f948:	eb0002b2 	bl	10418 <CRYPTO_THREAD_run_once>
    f94c:	e3500000 	cmp	r0, #0
    f950:	0affffd5 	beq	f8ac <OPENSSL_init_crypto+0x34>
    f954:	e59f334c 	ldr	r3, [pc, #844]	; fca8 <OPENSSL_init_crypto+0x430>
    f958:	e08f3003 	add	r3, pc, r3
    f95c:	e5933000 	ldr	r3, [r3]
    f960:	e3530000 	cmp	r3, #0
    f964:	0affffd0 	beq	f8ac <OPENSSL_init_crypto+0x34>
    f968:	e59f133c 	ldr	r1, [pc, #828]	; fcac <OPENSSL_init_crypto+0x434>
    f96c:	e59f033c 	ldr	r0, [pc, #828]	; fcb0 <OPENSSL_init_crypto+0x438>
    f970:	e08f1001 	add	r1, pc, r1
    f974:	e08f0000 	add	r0, pc, r0
    f978:	eb0002a6 	bl	10418 <CRYPTO_THREAD_run_once>
    f97c:	e3500000 	cmp	r0, #0
    f980:	0affffc9 	beq	f8ac <OPENSSL_init_crypto+0x34>
    f984:	e59f3328 	ldr	r3, [pc, #808]	; fcb4 <OPENSSL_init_crypto+0x43c>
    f988:	e08f3003 	add	r3, pc, r3
    f98c:	e5933000 	ldr	r3, [r3]
    f990:	e3530000 	cmp	r3, #0
    f994:	0affffc4 	beq	f8ac <OPENSSL_init_crypto+0x34>
    f998:	e2052001 	and	r2, r5, #1
    f99c:	e3a03000 	mov	r3, #0
    f9a0:	e1923003 	orrs	r3, r2, r3
    f9a4:	1a000033 	bne	fa78 <OPENSSL_init_crypto+0x200>
    f9a8:	e2052002 	and	r2, r5, #2
    f9ac:	e3a03000 	mov	r3, #0
    f9b0:	e1923003 	orrs	r3, r2, r3
    f9b4:	1a00003c 	bne	faac <OPENSSL_init_crypto+0x234>
    f9b8:	e2052010 	and	r2, r5, #16
    f9bc:	e3a03000 	mov	r3, #0
    f9c0:	e1923003 	orrs	r3, r2, r3
    f9c4:	1a000045 	bne	fae0 <OPENSSL_init_crypto+0x268>
    f9c8:	e2052004 	and	r2, r5, #4
    f9cc:	e3a03000 	mov	r3, #0
    f9d0:	e1923003 	orrs	r3, r2, r3
    f9d4:	1a00004e 	bne	fb14 <OPENSSL_init_crypto+0x29c>
    f9d8:	e2052020 	and	r2, r5, #32
    f9dc:	e3a03000 	mov	r3, #0
    f9e0:	e1923003 	orrs	r3, r2, r3
    f9e4:	1a000057 	bne	fb48 <OPENSSL_init_crypto+0x2d0>
    f9e8:	e2052008 	and	r2, r5, #8
    f9ec:	e3a03000 	mov	r3, #0
    f9f0:	e1923003 	orrs	r3, r2, r3
    f9f4:	1a000060 	bne	fb7c <OPENSSL_init_crypto+0x304>
    f9f8:	e2052802 	and	r2, r5, #131072	; 0x20000
    f9fc:	e3a03000 	mov	r3, #0
    fa00:	e1923003 	orrs	r3, r2, r3
    fa04:	1a000069 	bne	fbb0 <OPENSSL_init_crypto+0x338>
    fa08:	e2052080 	and	r2, r5, #128	; 0x80
    fa0c:	e3a03000 	mov	r3, #0
    fa10:	e1923003 	orrs	r3, r2, r3
    fa14:	1a000069 	bne	fbc0 <OPENSSL_init_crypto+0x348>
    fa18:	e3a09000 	mov	r9, #0
    fa1c:	e2052040 	and	r2, r5, #64	; 0x40
    fa20:	e1a03009 	mov	r3, r9
    fa24:	e1923003 	orrs	r3, r2, r3
    fa28:	1a00007d 	bne	fc24 <OPENSSL_init_crypto+0x3ac>
    fa2c:	e2052c01 	and	r2, r5, #256	; 0x100
    fa30:	e3a03000 	mov	r3, #0
    fa34:	e1923003 	orrs	r3, r2, r3
    fa38:	1a00006d 	bne	fbf4 <OPENSSL_init_crypto+0x37c>
    fa3c:	e3a04001 	mov	r4, #1
    fa40:	eaffff9a 	b	f8b0 <OPENSSL_init_crypto+0x38>
    fa44:	e59f126c 	ldr	r1, [pc, #620]	; fcb8 <OPENSSL_init_crypto+0x440>
    fa48:	e59f026c 	ldr	r0, [pc, #620]	; fcbc <OPENSSL_init_crypto+0x444>
    fa4c:	e08f1001 	add	r1, pc, r1
    fa50:	e08f0000 	add	r0, pc, r0
    fa54:	eb00026f 	bl	10418 <CRYPTO_THREAD_run_once>
    fa58:	e3500000 	cmp	r0, #0
    fa5c:	0affff92 	beq	f8ac <OPENSSL_init_crypto+0x34>
    fa60:	e59f3258 	ldr	r3, [pc, #600]	; fcc0 <OPENSSL_init_crypto+0x448>
    fa64:	e08f3003 	add	r3, pc, r3
    fa68:	e5933000 	ldr	r3, [r3]
    fa6c:	e3530000 	cmp	r3, #0
    fa70:	1affffbc 	bne	f968 <OPENSSL_init_crypto+0xf0>
    fa74:	eaffff8c 	b	f8ac <OPENSSL_init_crypto+0x34>
    fa78:	e59f1244 	ldr	r1, [pc, #580]	; fcc4 <OPENSSL_init_crypto+0x44c>
    fa7c:	e59f0244 	ldr	r0, [pc, #580]	; fcc8 <OPENSSL_init_crypto+0x450>
    fa80:	e08f1001 	add	r1, pc, r1
    fa84:	e08f0000 	add	r0, pc, r0
    fa88:	eb000262 	bl	10418 <CRYPTO_THREAD_run_once>
    fa8c:	e3500000 	cmp	r0, #0
    fa90:	0affff85 	beq	f8ac <OPENSSL_init_crypto+0x34>
    fa94:	e59f3230 	ldr	r3, [pc, #560]	; fccc <OPENSSL_init_crypto+0x454>
    fa98:	e08f3003 	add	r3, pc, r3
    fa9c:	e5933000 	ldr	r3, [r3]
    faa0:	e3530000 	cmp	r3, #0
    faa4:	1affffbf 	bne	f9a8 <OPENSSL_init_crypto+0x130>
    faa8:	eaffff7f 	b	f8ac <OPENSSL_init_crypto+0x34>
    faac:	e59f121c 	ldr	r1, [pc, #540]	; fcd0 <OPENSSL_init_crypto+0x458>
    fab0:	e59f021c 	ldr	r0, [pc, #540]	; fcd4 <OPENSSL_init_crypto+0x45c>
    fab4:	e08f1001 	add	r1, pc, r1
    fab8:	e08f0000 	add	r0, pc, r0
    fabc:	eb000255 	bl	10418 <CRYPTO_THREAD_run_once>
    fac0:	e3500000 	cmp	r0, #0
    fac4:	0affff78 	beq	f8ac <OPENSSL_init_crypto+0x34>
    fac8:	e59f3208 	ldr	r3, [pc, #520]	; fcd8 <OPENSSL_init_crypto+0x460>
    facc:	e08f3003 	add	r3, pc, r3
    fad0:	e5933000 	ldr	r3, [r3]
    fad4:	e3530000 	cmp	r3, #0
    fad8:	1affffb6 	bne	f9b8 <OPENSSL_init_crypto+0x140>
    fadc:	eaffff72 	b	f8ac <OPENSSL_init_crypto+0x34>
    fae0:	e59f11f4 	ldr	r1, [pc, #500]	; fcdc <OPENSSL_init_crypto+0x464>
    fae4:	e59f01f4 	ldr	r0, [pc, #500]	; fce0 <OPENSSL_init_crypto+0x468>
    fae8:	e08f1001 	add	r1, pc, r1
    faec:	e08f0000 	add	r0, pc, r0
    faf0:	eb000248 	bl	10418 <CRYPTO_THREAD_run_once>
    faf4:	e3500000 	cmp	r0, #0
    faf8:	0affff6b 	beq	f8ac <OPENSSL_init_crypto+0x34>
    fafc:	e59f31e0 	ldr	r3, [pc, #480]	; fce4 <OPENSSL_init_crypto+0x46c>
    fb00:	e08f3003 	add	r3, pc, r3
    fb04:	e5933000 	ldr	r3, [r3]
    fb08:	e3530000 	cmp	r3, #0
    fb0c:	1affffad 	bne	f9c8 <OPENSSL_init_crypto+0x150>
    fb10:	eaffff65 	b	f8ac <OPENSSL_init_crypto+0x34>
    fb14:	e59f11cc 	ldr	r1, [pc, #460]	; fce8 <OPENSSL_init_crypto+0x470>
    fb18:	e59f01cc 	ldr	r0, [pc, #460]	; fcec <OPENSSL_init_crypto+0x474>
    fb1c:	e08f1001 	add	r1, pc, r1
    fb20:	e08f0000 	add	r0, pc, r0
    fb24:	eb00023b 	bl	10418 <CRYPTO_THREAD_run_once>
    fb28:	e3500000 	cmp	r0, #0
    fb2c:	0affff5e 	beq	f8ac <OPENSSL_init_crypto+0x34>
    fb30:	e59f31b8 	ldr	r3, [pc, #440]	; fcf0 <OPENSSL_init_crypto+0x478>
    fb34:	e08f3003 	add	r3, pc, r3
    fb38:	e5933000 	ldr	r3, [r3]
    fb3c:	e3530000 	cmp	r3, #0
    fb40:	1affffa4 	bne	f9d8 <OPENSSL_init_crypto+0x160>
    fb44:	eaffff58 	b	f8ac <OPENSSL_init_crypto+0x34>
    fb48:	e59f11a4 	ldr	r1, [pc, #420]	; fcf4 <OPENSSL_init_crypto+0x47c>
    fb4c:	e59f01a4 	ldr	r0, [pc, #420]	; fcf8 <OPENSSL_init_crypto+0x480>
    fb50:	e08f1001 	add	r1, pc, r1
    fb54:	e08f0000 	add	r0, pc, r0
    fb58:	eb00022e 	bl	10418 <CRYPTO_THREAD_run_once>
    fb5c:	e3500000 	cmp	r0, #0
    fb60:	0affff51 	beq	f8ac <OPENSSL_init_crypto+0x34>
    fb64:	e59f3190 	ldr	r3, [pc, #400]	; fcfc <OPENSSL_init_crypto+0x484>
    fb68:	e08f3003 	add	r3, pc, r3
    fb6c:	e5933000 	ldr	r3, [r3]
    fb70:	e3530000 	cmp	r3, #0
    fb74:	1affff9b 	bne	f9e8 <OPENSSL_init_crypto+0x170>
    fb78:	eaffff4b 	b	f8ac <OPENSSL_init_crypto+0x34>
    fb7c:	e59f117c 	ldr	r1, [pc, #380]	; fd00 <OPENSSL_init_crypto+0x488>
    fb80:	e59f017c 	ldr	r0, [pc, #380]	; fd04 <OPENSSL_init_crypto+0x48c>
    fb84:	e08f1001 	add	r1, pc, r1
    fb88:	e08f0000 	add	r0, pc, r0
    fb8c:	eb000221 	bl	10418 <CRYPTO_THREAD_run_once>
    fb90:	e3500000 	cmp	r0, #0
    fb94:	0affff44 	beq	f8ac <OPENSSL_init_crypto+0x34>
    fb98:	e59f3168 	ldr	r3, [pc, #360]	; fd08 <OPENSSL_init_crypto+0x490>
    fb9c:	e08f3003 	add	r3, pc, r3
    fba0:	e5933000 	ldr	r3, [r3]
    fba4:	e3530000 	cmp	r3, #0
    fba8:	1affff92 	bne	f9f8 <OPENSSL_init_crypto+0x180>
    fbac:	eaffff3e 	b	f8ac <OPENSSL_init_crypto+0x34>
    fbb0:	eb00024f 	bl	104f4 <openssl_init_fork_handlers>
    fbb4:	e3500000 	cmp	r0, #0
    fbb8:	1affff92 	bne	fa08 <OPENSSL_init_crypto+0x190>
    fbbc:	eaffff3a 	b	f8ac <OPENSSL_init_crypto+0x34>
    fbc0:	e59f1144 	ldr	r1, [pc, #324]	; fd0c <OPENSSL_init_crypto+0x494>
    fbc4:	e59f0144 	ldr	r0, [pc, #324]	; fd10 <OPENSSL_init_crypto+0x498>
    fbc8:	e08f1001 	add	r1, pc, r1
    fbcc:	e08f0000 	add	r0, pc, r0
    fbd0:	eb000210 	bl	10418 <CRYPTO_THREAD_run_once>
    fbd4:	e3500000 	cmp	r0, #0
    fbd8:	0affff33 	beq	f8ac <OPENSSL_init_crypto+0x34>
    fbdc:	e59f3130 	ldr	r3, [pc, #304]	; fd14 <OPENSSL_init_crypto+0x49c>
    fbe0:	e08f3003 	add	r3, pc, r3
    fbe4:	e5933000 	ldr	r3, [r3]
    fbe8:	e3530000 	cmp	r3, #0
    fbec:	1affff89 	bne	fa18 <OPENSSL_init_crypto+0x1a0>
    fbf0:	eaffff2d 	b	f8ac <OPENSSL_init_crypto+0x34>
    fbf4:	e59f111c 	ldr	r1, [pc, #284]	; fd18 <OPENSSL_init_crypto+0x4a0>
    fbf8:	e59f011c 	ldr	r0, [pc, #284]	; fd1c <OPENSSL_init_crypto+0x4a4>
    fbfc:	e08f1001 	add	r1, pc, r1
    fc00:	e08f0000 	add	r0, pc, r0
    fc04:	eb000203 	bl	10418 <CRYPTO_THREAD_run_once>
    fc08:	e3500000 	cmp	r0, #0
    fc0c:	0affff26 	beq	f8ac <OPENSSL_init_crypto+0x34>
    fc10:	e59f3108 	ldr	r3, [pc, #264]	; fd20 <OPENSSL_init_crypto+0x4a8>
    fc14:	e79f4003 	ldr	r4, [pc, r3]
    fc18:	e2944000 	adds	r4, r4, #0
    fc1c:	13a04001 	movne	r4, #1
    fc20:	eaffff22 	b	f8b0 <OPENSSL_init_crypto+0x38>
    fc24:	e59f80f8 	ldr	r8, [pc, #248]	; fd24 <OPENSSL_init_crypto+0x4ac>
    fc28:	e59f70f8 	ldr	r7, [pc, #248]	; fd28 <OPENSSL_init_crypto+0x4b0>
    fc2c:	e08f8008 	add	r8, pc, r8
    fc30:	e08f7007 	add	r7, pc, r7
    fc34:	e5980000 	ldr	r0, [r8]
    fc38:	eb0001e4 	bl	103d0 <CRYPTO_THREAD_write_lock>
    fc3c:	e59f10e8 	ldr	r1, [pc, #232]	; fd2c <OPENSSL_init_crypto+0x4b4>
    fc40:	e59f00e8 	ldr	r0, [pc, #232]	; fd30 <OPENSSL_init_crypto+0x4b8>
    fc44:	e08f1001 	add	r1, pc, r1
    fc48:	e5876000 	str	r6, [r7]
    fc4c:	e08f0000 	add	r0, pc, r0
    fc50:	eb0001f0 	bl	10418 <CRYPTO_THREAD_run_once>
    fc54:	e2504000 	subs	r4, r0, #0
    fc58:	0a000008 	beq	fc80 <OPENSSL_init_crypto+0x408>
    fc5c:	e59f30d0 	ldr	r3, [pc, #208]	; fd34 <OPENSSL_init_crypto+0x4bc>
    fc60:	e5980000 	ldr	r0, [r8]
    fc64:	e08f3003 	add	r3, pc, r3
    fc68:	e5879000 	str	r9, [r7]
    fc6c:	e5934000 	ldr	r4, [r3]
    fc70:	eb0001db 	bl	103e4 <CRYPTO_THREAD_unlock>
    fc74:	e3540000 	cmp	r4, #0
    fc78:	caffff6b 	bgt	fa2c <OPENSSL_init_crypto+0x1b4>
    fc7c:	eaffff0a 	b	f8ac <OPENSSL_init_crypto+0x34>
    fc80:	e5980000 	ldr	r0, [r8]
    fc84:	e5874000 	str	r4, [r7]
    fc88:	eb0001d5 	bl	103e4 <CRYPTO_THREAD_unlock>
    fc8c:	eaffff07 	b	f8b0 <OPENSSL_init_crypto+0x38>
    fc90:	00005d38 	.word	0x00005d38
    fc94:	fffffe40 	.word	0xfffffe40
    fc98:	00005c88 	.word	0x00005c88
    fc9c:	00005c9c 	.word	0x00005c9c
    fca0:	fffffc74 	.word	0xfffffc74
    fca4:	00005c74 	.word	0x00005c74
    fca8:	00005c5c 	.word	0x00005c5c
    fcac:	fffffc5c 	.word	0xfffffc5c
    fcb0:	00005c1c 	.word	0x00005c1c
    fcb4:	00005c24 	.word	0x00005c24
    fcb8:	fffffddc 	.word	0xfffffddc
    fcbc:	00005b68 	.word	0x00005b68
    fcc0:	00005b50 	.word	0x00005b50
    fcc4:	fffffdc0 	.word	0xfffffdc0
    fcc8:	00005b10 	.word	0x00005b10
    fccc:	00005b18 	.word	0x00005b18
    fcd0:	fffffb30 	.word	0xfffffb30
    fcd4:	00005adc 	.word	0x00005adc
    fcd8:	00005ae4 	.word	0x00005ae4
    fcdc:	fffffd70 	.word	0xfffffd70
    fce0:	00005a80 	.word	0x00005a80
    fce4:	00005a98 	.word	0x00005a98
    fce8:	fffffae0 	.word	0xfffffae0
    fcec:	00005a4c 	.word	0x00005a4c
    fcf0:	00005a64 	.word	0x00005a64
    fcf4:	fffffcc0 	.word	0xfffffcc0
    fcf8:	00005a1c 	.word	0x00005a1c
    fcfc:	00005a34 	.word	0x00005a34
    fd00:	fffffa90 	.word	0xfffffa90
    fd04:	000059e8 	.word	0x000059e8
    fd08:	00005a00 	.word	0x00005a00
    fd0c:	fffffb48 	.word	0xfffffb48
    fd10:	000059bc 	.word	0x000059bc
    fd14:	000059c8 	.word	0x000059c8
    fd18:	fffffab0 	.word	0xfffffab0
    fd1c:	00005974 	.word	0x00005974
    fd20:	0000598c 	.word	0x0000598c
    fd24:	00005960 	.word	0x00005960
    fd28:	00005954 	.word	0x00005954
    fd2c:	fffffaa4 	.word	0xfffffaa4
    fd30:	0000593c 	.word	0x0000593c
    fd34:	00005944 	.word	0x00005944

0000fd38 <ossl_init_thread_start>:
    fd38:	e92d41f0 	push	{r4, r5, r6, r7, r8, lr}
    fd3c:	e3a02000 	mov	r2, #0
    fd40:	e1a05000 	mov	r5, r0
    fd44:	e3a01000 	mov	r1, #0
    fd48:	e3a00000 	mov	r0, #0
    fd4c:	ebfffec9 	bl	f878 <OPENSSL_init_crypto>
    fd50:	e3500000 	cmp	r0, #0
    fd54:	1a000002 	bne	fd64 <ossl_init_thread_start+0x2c>
    fd58:	e3a04000 	mov	r4, #0
    fd5c:	e1a00004 	mov	r0, r4
    fd60:	e8bd81f0 	pop	{r4, r5, r6, r7, r8, pc}
    fd64:	e59f409c 	ldr	r4, [pc, #156]	; fe08 <ossl_init_thread_start+0xd0>
    fd68:	e08f4004 	add	r4, pc, r4
    fd6c:	e1a00004 	mov	r0, r4
    fd70:	eb0001c6 	bl	10490 <CRYPTO_THREAD_get_local>
    fd74:	e2506000 	subs	r6, r0, #0
    fd78:	0a000010 	beq	fdc0 <ossl_init_thread_start+0x88>
    fd7c:	e3a03001 	mov	r3, #1
    fd80:	e3a01000 	mov	r1, #0
    fd84:	e0050003 	and	r0, r5, r3
    fd88:	e3a04001 	mov	r4, #1
    fd8c:	e1902001 	orrs	r2, r0, r1
    fd90:	e2050002 	and	r0, r5, #2
    fd94:	e3a01000 	mov	r1, #0
    fd98:	15863000 	strne	r3, [r6]
    fd9c:	e1903001 	orrs	r3, r0, r1
    fda0:	e2050004 	and	r0, r5, #4
    fda4:	e3a01000 	mov	r1, #0
    fda8:	13a03001 	movne	r3, #1
    fdac:	15863004 	strne	r3, [r6, #4]
    fdb0:	e1903001 	orrs	r3, r0, r1
    fdb4:	e1a00004 	mov	r0, r4
    fdb8:	15864008 	strne	r4, [r6, #8]
    fdbc:	e8bd81f0 	pop	{r4, r5, r6, r7, r8, pc}
    fdc0:	e59f7044 	ldr	r7, [pc, #68]	; fe0c <ossl_init_thread_start+0xd4>
    fdc4:	e1a02006 	mov	r2, r6
    fdc8:	e3a0000c 	mov	r0, #12
    fdcc:	e08f7007 	add	r7, pc, r7
    fdd0:	e1a01007 	mov	r1, r7
    fdd4:	eb000039 	bl	fec0 <CRYPTO_zalloc>
    fdd8:	e2506000 	subs	r6, r0, #0
    fddc:	0affffdd 	beq	fd58 <ossl_init_thread_start+0x20>
    fde0:	e1a00004 	mov	r0, r4
    fde4:	e1a01006 	mov	r1, r6
    fde8:	eb0001b2 	bl	104b8 <CRYPTO_THREAD_set_local>
    fdec:	e2504000 	subs	r4, r0, #0
    fdf0:	1affffe1 	bne	fd7c <ossl_init_thread_start+0x44>
    fdf4:	e1a01007 	mov	r1, r7
    fdf8:	e1a00006 	mov	r0, r6
    fdfc:	e1a02004 	mov	r2, r4
    fe00:	eb000002 	bl	fe10 <CRYPTO_free>
    fe04:	eaffffd4 	b	fd5c <ossl_init_thread_start+0x24>
    fe08:	000053dc 	.word	0x000053dc
    fe0c:	000028e4 	.word	0x000028e4

0000fe10 <CRYPTO_free>:
    fe10:	e59fc030 	ldr	ip, [pc, #48]	; fe48 <CRYPTO_free+0x38>
    fe14:	e59f3030 	ldr	r3, [pc, #48]	; fe4c <CRYPTO_free+0x3c>
    fe18:	e08fc00c 	add	ip, pc, ip
    fe1c:	e52de004 	push	{lr}		; (str lr, [sp, #-4]!)
    fe20:	e08f3003 	add	r3, pc, r3
    fe24:	e59ce000 	ldr	lr, [ip]
    fe28:	e35e0000 	cmp	lr, #0
    fe2c:	115e0003 	cmpne	lr, r3
    fe30:	0a000002 	beq	fe40 <CRYPTO_free+0x30>
    fe34:	e1a0300e 	mov	r3, lr
    fe38:	e49de004 	pop	{lr}		; (ldr lr, [sp], #4)
    fe3c:	e12fff13 	bx	r3
    fe40:	e49de004 	pop	{lr}		; (ldr lr, [sp], #4)
    fe44:	eafff146 	b	c364 <free>
    fe48:	00005334 	.word	0x00005334
    fe4c:	ffffffe8 	.word	0xffffffe8

0000fe50 <CRYPTO_malloc>:
    fe50:	e59fc05c 	ldr	ip, [pc, #92]	; feb4 <CRYPTO_malloc+0x64>
    fe54:	e59f305c 	ldr	r3, [pc, #92]	; feb8 <CRYPTO_malloc+0x68>
    fe58:	e08fc00c 	add	ip, pc, ip
    fe5c:	e92d4010 	push	{r4, lr}
    fe60:	e08f3003 	add	r3, pc, r3
    fe64:	e59ce000 	ldr	lr, [ip]
    fe68:	e05e3003 	subs	r3, lr, r3
    fe6c:	13a03001 	movne	r3, #1
    fe70:	e35e0000 	cmp	lr, #0
    fe74:	03a03000 	moveq	r3, #0
    fe78:	e3530000 	cmp	r3, #0
    fe7c:	0a000002 	beq	fe8c <CRYPTO_malloc+0x3c>
    fe80:	e1a0300e 	mov	r3, lr
    fe84:	e8bd4010 	pop	{r4, lr}
    fe88:	e12fff13 	bx	r3
    fe8c:	e3500000 	cmp	r0, #0
    fe90:	e1a04000 	mov	r4, r0
    fe94:	08bd8010 	popeq	{r4, pc}
    fe98:	e59f201c 	ldr	r2, [pc, #28]	; febc <CRYPTO_malloc+0x6c>
    fe9c:	e8bd4010 	pop	{r4, lr}
    fea0:	e08f2002 	add	r2, pc, r2
    fea4:	e5921000 	ldr	r1, [r2]
    fea8:	e3510000 	cmp	r1, #0
    feac:	15823000 	strne	r3, [r2]
    feb0:	eaffea81 	b	a8bc <malloc>
    feb4:	000052f8 	.word	0x000052f8
    feb8:	ffffffe8 	.word	0xffffffe8
    febc:	000052a8 	.word	0x000052a8

0000fec0 <CRYPTO_zalloc>:
    fec0:	e92d4070 	push	{r4, r5, r6, lr}
    fec4:	e1a05000 	mov	r5, r0
    fec8:	ebffffe0 	bl	fe50 <CRYPTO_malloc>
    fecc:	e2504000 	subs	r4, r0, #0
    fed0:	0a000002 	beq	fee0 <CRYPTO_zalloc+0x20>
    fed4:	e1a02005 	mov	r2, r5
    fed8:	e3a01000 	mov	r1, #0
    fedc:	eb0006f0 	bl	11aa4 <memset>
    fee0:	e1a00004 	mov	r0, r4
    fee4:	e8bd8070 	pop	{r4, r5, r6, pc}

0000fee8 <CRYPTO_clear_free>:
    fee8:	e250c000 	subs	ip, r0, #0
    feec:	012fff1e 	bxeq	lr
    fef0:	e92d4070 	push	{r4, r5, r6, lr}
    fef4:	e3510000 	cmp	r1, #0
    fef8:	e1a0400c 	mov	r4, ip
    fefc:	e1a06003 	mov	r6, r3
    ff00:	e1a05002 	mov	r5, r2
    ff04:	1a000004 	bne	ff1c <CRYPTO_clear_free+0x34>
    ff08:	e1a02006 	mov	r2, r6
    ff0c:	e1a01005 	mov	r1, r5
    ff10:	e1a00004 	mov	r0, r4
    ff14:	e8bd4070 	pop	{r4, r5, r6, lr}
    ff18:	eaffffbc 	b	fe10 <CRYPTO_free>
    ff1c:	eb000000 	bl	ff24 <OPENSSL_cleanse>
    ff20:	eafffff8 	b	ff08 <CRYPTO_clear_free+0x20>

0000ff24 <OPENSSL_cleanse>:
    ff24:	e59f3010 	ldr	r3, [pc, #16]	; ff3c <OPENSSL_cleanse+0x18>
    ff28:	e1a02001 	mov	r2, r1
    ff2c:	e3a01000 	mov	r1, #0
    ff30:	e08f3003 	add	r3, pc, r3
    ff34:	e5933000 	ldr	r3, [r3]
    ff38:	e12fff13 	bx	r3
    ff3c:	00005224 	.word	0x00005224

0000ff40 <CRYPTO_secure_clear_free>:
    ff40:	e250c000 	subs	ip, r0, #0
    ff44:	012fff1e 	bxeq	lr
    ff48:	e92d4070 	push	{r4, r5, r6, lr}
    ff4c:	e1a05002 	mov	r5, r2
    ff50:	e1a0400c 	mov	r4, ip
    ff54:	e1a06003 	mov	r6, r3
    ff58:	ebfffff1 	bl	ff24 <OPENSSL_cleanse>
    ff5c:	e1a02006 	mov	r2, r6
    ff60:	e1a01005 	mov	r1, r5
    ff64:	e1a00004 	mov	r0, r4
    ff68:	e8bd4070 	pop	{r4, r5, r6, lr}
    ff6c:	eaffffa7 	b	fe10 <CRYPTO_free>

0000ff70 <CRYPTO_cbc128_encrypt>:
    ff70:	e92d4ff0 	push	{r4, r5, r6, r7, r8, r9, sl, fp, lr}
    ff74:	e3520000 	cmp	r2, #0
    ff78:	e24dd00c 	sub	sp, sp, #12
    ff7c:	e59d8030 	ldr	r8, [sp, #48]	; 0x30
    ff80:	e59d7034 	ldr	r7, [sp, #52]	; 0x34
    ff84:	0a000031 	beq	10050 <CRYPTO_cbc128_encrypt+0xe0>
    ff88:	e1a06003 	mov	r6, r3
    ff8c:	e2409001 	sub	r9, r0, #1
    ff90:	e1a0c008 	mov	ip, r8
    ff94:	e1a04002 	mov	r4, r2
    ff98:	e1a05001 	mov	r5, r1
    ff9c:	e58d2004 	str	r2, [sp, #4]
    ffa0:	e58d1000 	str	r1, [sp]
    ffa4:	e24ca001 	sub	sl, ip, #1
    ffa8:	e245e001 	sub	lr, r5, #1
    ffac:	e1a00009 	mov	r0, r9
    ffb0:	e3a01000 	mov	r1, #0
    ffb4:	ea000000 	b	ffbc <CRYPTO_cbc128_encrypt+0x4c>
    ffb8:	e1a01003 	mov	r1, r3
    ffbc:	e5f02001 	ldrb	r2, [r0, #1]!
    ffc0:	e2813001 	add	r3, r1, #1
    ffc4:	e5fab001 	ldrb	fp, [sl, #1]!
    ffc8:	e353000f 	cmp	r3, #15
    ffcc:	91530004 	cmpls	r3, r4
    ffd0:	e022200b 	eor	r2, r2, fp
    ffd4:	e5ee2001 	strb	r2, [lr, #1]!
    ffd8:	3afffff6 	bcc	ffb8 <CRYPTO_cbc128_encrypt+0x48>
    ffdc:	e353000f 	cmp	r3, #15
    ffe0:	8a000006 	bhi	10000 <CRYPTO_cbc128_encrypt+0x90>
    ffe4:	e08cc001 	add	ip, ip, r1
    ffe8:	e0851001 	add	r1, r5, r1
    ffec:	e2833001 	add	r3, r3, #1
    fff0:	e5fc2001 	ldrb	r2, [ip, #1]!
    fff4:	e3530010 	cmp	r3, #16
    fff8:	e5e12001 	strb	r2, [r1, #1]!
    fffc:	1afffffa 	bne	ffec <CRYPTO_cbc128_encrypt+0x7c>
   10000:	e1a02006 	mov	r2, r6
   10004:	e1a01005 	mov	r1, r5
   10008:	e1a00005 	mov	r0, r5
   1000c:	e2899010 	add	r9, r9, #16
   10010:	e12fff37 	blx	r7
   10014:	e3540010 	cmp	r4, #16
   10018:	81a0c005 	movhi	ip, r5
   1001c:	82444010 	subhi	r4, r4, #16
   10020:	82855010 	addhi	r5, r5, #16
   10024:	8affffde 	bhi	ffa4 <CRYPTO_cbc128_encrypt+0x34>
   10028:	e59d3004 	ldr	r3, [sp, #4]
   1002c:	e1a00008 	mov	r0, r8
   10030:	e3a02010 	mov	r2, #16
   10034:	e2431001 	sub	r1, r3, #1
   10038:	e59d3000 	ldr	r3, [sp]
   1003c:	e3c1100f 	bic	r1, r1, #15
   10040:	e0831001 	add	r1, r3, r1
   10044:	e28dd00c 	add	sp, sp, #12
   10048:	e8bd4ff0 	pop	{r4, r5, r6, r7, r8, r9, sl, fp, lr}
   1004c:	ea000659 	b	119b8 <memcpy>
   10050:	e28dd00c 	add	sp, sp, #12
   10054:	e8bd8ff0 	pop	{r4, r5, r6, r7, r8, r9, sl, fp, pc}

00010058 <CRYPTO_cbc128_decrypt>:
   10058:	e92d4ff0 	push	{r4, r5, r6, r7, r8, r9, sl, fp, lr}
   1005c:	e1a05000 	mov	r5, r0
   10060:	e59fc11c 	ldr	ip, [pc, #284]	; 10184 <CRYPTO_cbc128_decrypt+0x12c>
   10064:	e24dd03c 	sub	sp, sp, #60	; 0x3c
   10068:	e2524000 	subs	r4, r2, #0
   1006c:	e08fc00c 	add	ip, pc, ip
   10070:	e1a06003 	mov	r6, r3
   10074:	e1a0300c 	mov	r3, ip
   10078:	e58d0014 	str	r0, [sp, #20]
   1007c:	e59f0104 	ldr	r0, [pc, #260]	; 10188 <CRYPTO_cbc128_decrypt+0x130>
   10080:	e59d2060 	ldr	r2, [sp, #96]	; 0x60
   10084:	e58d4018 	str	r4, [sp, #24]
   10088:	e58d201c 	str	r2, [sp, #28]
   1008c:	e59d7064 	ldr	r7, [sp, #100]	; 0x64
   10090:	e79c3000 	ldr	r3, [ip, r0]
   10094:	e58d3010 	str	r3, [sp, #16]
   10098:	e5933000 	ldr	r3, [r3]
   1009c:	e58d3034 	str	r3, [sp, #52]	; 0x34
   100a0:	0a00002f 	beq	10164 <CRYPTO_cbc128_decrypt+0x10c>
   100a4:	e2418001 	sub	r8, r1, #1
   100a8:	e28d3024 	add	r3, sp, #36	; 0x24
   100ac:	e58d3008 	str	r3, [sp, #8]
   100b0:	e28d3023 	add	r3, sp, #35	; 0x23
   100b4:	e58d3004 	str	r3, [sp, #4]
   100b8:	e2423001 	sub	r3, r2, #1
   100bc:	e58d300c 	str	r3, [sp, #12]
   100c0:	e59d1008 	ldr	r1, [sp, #8]
   100c4:	e1a02006 	mov	r2, r6
   100c8:	e1a00005 	mov	r0, r5
   100cc:	e245a001 	sub	sl, r5, #1
   100d0:	e12fff37 	blx	r7
   100d4:	e59d9004 	ldr	r9, [sp, #4]
   100d8:	e59dc00c 	ldr	ip, [sp, #12]
   100dc:	e1a0e008 	mov	lr, r8
   100e0:	e3a01000 	mov	r1, #0
   100e4:	ea000000 	b	100ec <CRYPTO_cbc128_decrypt+0x94>
   100e8:	e1a01000 	mov	r1, r0
   100ec:	e5fcb001 	ldrb	fp, [ip, #1]!
   100f0:	e2810001 	add	r0, r1, #1
   100f4:	e5f93001 	ldrb	r3, [r9, #1]!
   100f8:	e350000f 	cmp	r0, #15
   100fc:	91500004 	cmpls	r0, r4
   10100:	e5fa2001 	ldrb	r2, [sl, #1]!
   10104:	e023300b 	eor	r3, r3, fp
   10108:	e5ee3001 	strb	r3, [lr, #1]!
   1010c:	e5cc2000 	strb	r2, [ip]
   10110:	3afffff4 	bcc	100e8 <CRYPTO_cbc128_decrypt+0x90>
   10114:	e2888010 	add	r8, r8, #16
   10118:	e3540010 	cmp	r4, #16
   1011c:	82444010 	subhi	r4, r4, #16
   10120:	82855010 	addhi	r5, r5, #16
   10124:	8affffe5 	bhi	100c0 <CRYPTO_cbc128_decrypt+0x68>
   10128:	e59d3018 	ldr	r3, [sp, #24]
   1012c:	e3500010 	cmp	r0, #16
   10130:	e2432001 	sub	r2, r3, #1
   10134:	e59d3014 	ldr	r3, [sp, #20]
   10138:	e3c2200f 	bic	r2, r2, #15
   1013c:	e0832002 	add	r2, r3, r2
   10140:	0a000007 	beq	10164 <CRYPTO_cbc128_decrypt+0x10c>
   10144:	e59d301c 	ldr	r3, [sp, #28]
   10148:	e0833001 	add	r3, r3, r1
   1014c:	e0821001 	add	r1, r2, r1
   10150:	e282200f 	add	r2, r2, #15
   10154:	e5f10001 	ldrb	r0, [r1, #1]!
   10158:	e5e30001 	strb	r0, [r3, #1]!
   1015c:	e1510002 	cmp	r1, r2
   10160:	1afffffb 	bne	10154 <CRYPTO_cbc128_decrypt+0xfc>
   10164:	e59d3010 	ldr	r3, [sp, #16]
   10168:	e59d2034 	ldr	r2, [sp, #52]	; 0x34
   1016c:	e5933000 	ldr	r3, [r3]
   10170:	e1520003 	cmp	r2, r3
   10174:	1a000001 	bne	10180 <CRYPTO_cbc128_decrypt+0x128>
   10178:	e28dd03c 	add	sp, sp, #60	; 0x3c
   1017c:	e8bd8ff0 	pop	{r4, r5, r6, r7, r8, r9, sl, fp, pc}
   10180:	eb0005e3 	bl	11914 <__stack_chk_fail>
   10184:	0000500c 	.word	0x0000500c
   10188:	00000010 	.word	0x00000010

0001018c <RAND_DRBG_free>:
   1018c:	e92d4070 	push	{r4, r5, r6, lr}
   10190:	e2504000 	subs	r4, r0, #0
   10194:	08bd8070 	popeq	{r4, r5, r6, pc}
   10198:	e59430e8 	ldr	r3, [r4, #232]	; 0xe8
   1019c:	e3530000 	cmp	r3, #0
   101a0:	0a000001 	beq	101ac <RAND_DRBG_free+0x20>
   101a4:	e593300c 	ldr	r3, [r3, #12]
   101a8:	e12fff33 	blx	r3
   101ac:	e1a05004 	mov	r5, r4
   101b0:	e594001c 	ldr	r0, [r4, #28]
   101b4:	eb00002e 	bl	10274 <rand_pool_free>
   101b8:	e4950060 	ldr	r0, [r5], #96	; 0x60
   101bc:	eb00008d 	bl	103f8 <CRYPTO_THREAD_lock_free>
   101c0:	e3a0000f 	mov	r0, #15
   101c4:	e1a02005 	mov	r2, r5
   101c8:	e1a01004 	mov	r1, r4
   101cc:	ebfffc86 	bl	f3ec <CRYPTO_free_ex_data>
   101d0:	e5943008 	ldr	r3, [r4, #8]
   101d4:	e1a00004 	mov	r0, r4
   101d8:	e3530000 	cmp	r3, #0
   101dc:	1a000004 	bne	101f4 <RAND_DRBG_free+0x68>
   101e0:	e59f2024 	ldr	r2, [pc, #36]	; 1020c <RAND_DRBG_free+0x80>
   101e4:	e3a010fc 	mov	r1, #252	; 0xfc
   101e8:	e8bd4070 	pop	{r4, r5, r6, lr}
   101ec:	e08f2002 	add	r2, pc, r2
   101f0:	eaffff3c 	b	fee8 <CRYPTO_clear_free>
   101f4:	e59f2014 	ldr	r2, [pc, #20]	; 10210 <RAND_DRBG_free+0x84>
   101f8:	e3a03000 	mov	r3, #0
   101fc:	e3a010fc 	mov	r1, #252	; 0xfc
   10200:	e08f2002 	add	r2, pc, r2
   10204:	e8bd4070 	pop	{r4, r5, r6, lr}
   10208:	eaffff4c 	b	ff40 <CRYPTO_secure_clear_free>
   1020c:	000024c4 	.word	0x000024c4
   10210:	000024b0 	.word	0x000024b0

00010214 <drbg_delete_thread_state>:
   10214:	e92d4070 	push	{r4, r5, r6, lr}
   10218:	e59f504c 	ldr	r5, [pc, #76]	; 1026c <drbg_delete_thread_state+0x58>
   1021c:	e59f404c 	ldr	r4, [pc, #76]	; 10270 <drbg_delete_thread_state+0x5c>
   10220:	e08f5005 	add	r5, pc, r5
   10224:	e1a00005 	mov	r0, r5
   10228:	e08f4004 	add	r4, pc, r4
   1022c:	eb000097 	bl	10490 <CRYPTO_THREAD_get_local>
   10230:	e3a01000 	mov	r1, #0
   10234:	e1a06000 	mov	r6, r0
   10238:	e1a00005 	mov	r0, r5
   1023c:	eb00009d 	bl	104b8 <CRYPTO_THREAD_set_local>
   10240:	e1a00006 	mov	r0, r6
   10244:	ebffffd0 	bl	1018c <RAND_DRBG_free>
   10248:	e1a00004 	mov	r0, r4
   1024c:	eb00008f 	bl	10490 <CRYPTO_THREAD_get_local>
   10250:	e3a01000 	mov	r1, #0
   10254:	e1a05000 	mov	r5, r0
   10258:	e1a00004 	mov	r0, r4
   1025c:	eb000095 	bl	104b8 <CRYPTO_THREAD_set_local>
   10260:	e1a00005 	mov	r0, r5
   10264:	e8bd4070 	pop	{r4, r5, r6, lr}
   10268:	eaffffc7 	b	1018c <RAND_DRBG_free>
   1026c:	000053a4 	.word	0x000053a4
   10270:	00005398 	.word	0x00005398

00010274 <rand_pool_free>:
   10274:	e92d4010 	push	{r4, lr}
   10278:	e2504000 	subs	r4, r0, #0
   1027c:	08bd8010 	popeq	{r4, pc}
   10280:	e5943008 	ldr	r3, [r4, #8]
   10284:	e3530000 	cmp	r3, #0
   10288:	1a000007 	bne	102ac <rand_pool_free+0x38>
   1028c:	e594200c 	ldr	r2, [r4, #12]
   10290:	e5940000 	ldr	r0, [r4]
   10294:	e3520000 	cmp	r2, #0
   10298:	e5941018 	ldr	r1, [r4, #24]
   1029c:	0a000008 	beq	102c4 <rand_pool_free+0x50>
   102a0:	e59f2030 	ldr	r2, [pc, #48]	; 102d8 <rand_pool_free+0x64>
   102a4:	e08f2002 	add	r2, pc, r2
   102a8:	ebffff24 	bl	ff40 <CRYPTO_secure_clear_free>
   102ac:	e59f1028 	ldr	r1, [pc, #40]	; 102dc <rand_pool_free+0x68>
   102b0:	e1a00004 	mov	r0, r4
   102b4:	e3a02000 	mov	r2, #0
   102b8:	e08f1001 	add	r1, pc, r1
   102bc:	e8bd4010 	pop	{r4, lr}
   102c0:	eafffed2 	b	fe10 <CRYPTO_free>
   102c4:	e1a03002 	mov	r3, r2
   102c8:	e59f2010 	ldr	r2, [pc, #16]	; 102e0 <rand_pool_free+0x6c>
   102cc:	e08f2002 	add	r2, pc, r2
   102d0:	ebffff04 	bl	fee8 <CRYPTO_clear_free>
   102d4:	eafffff4 	b	102ac <rand_pool_free+0x38>
   102d8:	0000240c 	.word	0x0000240c
   102dc:	000023f8 	.word	0x000023f8
   102e0:	000023e4 	.word	0x000023e4

000102e4 <OPENSSL_sk_free.part.2>:
   102e4:	e92d4070 	push	{r4, r5, r6, lr}
   102e8:	e3a02000 	mov	r2, #0
   102ec:	e59f4024 	ldr	r4, [pc, #36]	; 10318 <OPENSSL_sk_free.part.2+0x34>
   102f0:	e1a05000 	mov	r5, r0
   102f4:	e5900004 	ldr	r0, [r0, #4]
   102f8:	e08f4004 	add	r4, pc, r4
   102fc:	e1a01004 	mov	r1, r4
   10300:	ebfffec2 	bl	fe10 <CRYPTO_free>
   10304:	e1a01004 	mov	r1, r4
   10308:	e1a00005 	mov	r0, r5
   1030c:	e3a02000 	mov	r2, #0
   10310:	e8bd4070 	pop	{r4, r5, r6, lr}
   10314:	eafffebd 	b	fe10 <CRYPTO_free>
   10318:	000023b8 	.word	0x000023b8

0001031c <OPENSSL_sk_pop>:
   1031c:	e2502000 	subs	r2, r0, #0
   10320:	0a000009 	beq	1034c <OPENSSL_sk_pop+0x30>
   10324:	e5923000 	ldr	r3, [r2]
   10328:	e3530000 	cmp	r3, #0
   1032c:	0a000004 	beq	10344 <OPENSSL_sk_pop+0x28>
   10330:	e2433001 	sub	r3, r3, #1
   10334:	e5921004 	ldr	r1, [r2, #4]
   10338:	e7910103 	ldr	r0, [r1, r3, lsl #2]
   1033c:	e5823000 	str	r3, [r2]
   10340:	e12fff1e 	bx	lr
   10344:	e1a00003 	mov	r0, r3
   10348:	e12fff1e 	bx	lr
   1034c:	e1a00002 	mov	r0, r2
   10350:	e12fff1e 	bx	lr

00010354 <OPENSSL_sk_free>:
   10354:	e3500000 	cmp	r0, #0
   10358:	012fff1e 	bxeq	lr
   1035c:	eaffffe0 	b	102e4 <OPENSSL_sk_free.part.2>

00010360 <OPENSSL_sk_num>:
   10360:	e3500000 	cmp	r0, #0
   10364:	15900000 	ldrne	r0, [r0]
   10368:	03e00000 	mvneq	r0, #0
   1036c:	e12fff1e 	bx	lr

00010370 <OPENSSL_sk_value>:
   10370:	e3500000 	cmp	r0, #0
   10374:	11a03fa1 	lsrne	r3, r1, #31
   10378:	03a03001 	moveq	r3, #1
   1037c:	e3530000 	cmp	r3, #0
   10380:	1a000005 	bne	1039c <OPENSSL_sk_value+0x2c>
   10384:	e5902000 	ldr	r2, [r0]
   10388:	e1520001 	cmp	r2, r1
   1038c:	da000002 	ble	1039c <OPENSSL_sk_value+0x2c>
   10390:	e5903004 	ldr	r3, [r0, #4]
   10394:	e7930101 	ldr	r0, [r3, r1, lsl #2]
   10398:	e12fff1e 	bx	lr
   1039c:	e3a00000 	mov	r0, #0
   103a0:	e12fff1e 	bx	lr

000103a4 <CRYPTO_THREAD_lock_new>:
   103a4:	e59f1020 	ldr	r1, [pc, #32]	; 103cc <CRYPTO_THREAD_lock_new+0x28>
   103a8:	e3a02000 	mov	r2, #0
   103ac:	e92d4010 	push	{r4, lr}
   103b0:	e3a00004 	mov	r0, #4
   103b4:	e08f1001 	add	r1, pc, r1
   103b8:	ebfffec0 	bl	fec0 <CRYPTO_zalloc>
   103bc:	e3500000 	cmp	r0, #0
   103c0:	13a03001 	movne	r3, #1
   103c4:	15803000 	strne	r3, [r0]
   103c8:	e8bd8010 	pop	{r4, pc}
   103cc:	000022fc 	.word	0x000022fc

000103d0 <CRYPTO_THREAD_write_lock>:
   103d0:	e5900000 	ldr	r0, [r0]
   103d4:	e2400001 	sub	r0, r0, #1
   103d8:	e16f0f10 	clz	r0, r0
   103dc:	e1a002a0 	lsr	r0, r0, #5
   103e0:	e12fff1e 	bx	lr

000103e4 <CRYPTO_THREAD_unlock>:
   103e4:	e5900000 	ldr	r0, [r0]
   103e8:	e2400001 	sub	r0, r0, #1
   103ec:	e16f0f10 	clz	r0, r0
   103f0:	e1a002a0 	lsr	r0, r0, #5
   103f4:	e12fff1e 	bx	lr

000103f8 <CRYPTO_THREAD_lock_free>:
   103f8:	e2503000 	subs	r3, r0, #0
   103fc:	012fff1e 	bxeq	lr
   10400:	e59f100c 	ldr	r1, [pc, #12]	; 10414 <CRYPTO_THREAD_lock_free+0x1c>
   10404:	e3a02000 	mov	r2, #0
   10408:	e5832000 	str	r2, [r3]
   1040c:	e08f1001 	add	r1, pc, r1
   10410:	eafffe7e 	b	fe10 <CRYPTO_free>
   10414:	000022a4 	.word	0x000022a4

00010418 <CRYPTO_THREAD_run_once>:
   10418:	e5903000 	ldr	r3, [r0]
   1041c:	e3530000 	cmp	r3, #0
   10420:	1a000006 	bne	10440 <CRYPTO_THREAD_run_once+0x28>
   10424:	e92d4010 	push	{r4, lr}
   10428:	e1a04000 	mov	r4, r0
   1042c:	e12fff31 	blx	r1
   10430:	e3a03001 	mov	r3, #1
   10434:	e3a00001 	mov	r0, #1
   10438:	e5843000 	str	r3, [r4]
   1043c:	e8bd8010 	pop	{r4, pc}
   10440:	e3a00001 	mov	r0, #1
   10444:	e12fff1e 	bx	lr

00010448 <CRYPTO_THREAD_init_local>:
   10448:	e59f2038 	ldr	r2, [pc, #56]	; 10488 <CRYPTO_THREAD_init_local+0x40>
   1044c:	e08f2002 	add	r2, pc, r2
   10450:	e5923000 	ldr	r3, [r2]
   10454:	e35300ff 	cmp	r3, #255	; 0xff
   10458:	8a000008 	bhi	10480 <CRYPTO_THREAD_init_local+0x38>
   1045c:	e59f1028 	ldr	r1, [pc, #40]	; 1048c <CRYPTO_THREAD_init_local+0x44>
   10460:	e3a0c000 	mov	ip, #0
   10464:	e5803000 	str	r3, [r0]
   10468:	e2830001 	add	r0, r3, #1
   1046c:	e08f1001 	add	r1, pc, r1
   10470:	e5820000 	str	r0, [r2]
   10474:	e3a00001 	mov	r0, #1
   10478:	e781c103 	str	ip, [r1, r3, lsl #2]
   1047c:	e12fff1e 	bx	lr
   10480:	e3a00000 	mov	r0, #0
   10484:	e12fff1e 	bx	lr
   10488:	0000517c 	.word	0x0000517c
   1048c:	00005160 	.word	0x00005160

00010490 <CRYPTO_THREAD_get_local>:
   10490:	e5903000 	ldr	r3, [r0]
   10494:	e35300ff 	cmp	r3, #255	; 0xff
   10498:	8a000003 	bhi	104ac <CRYPTO_THREAD_get_local+0x1c>
   1049c:	e59f2010 	ldr	r2, [pc, #16]	; 104b4 <CRYPTO_THREAD_get_local+0x24>
   104a0:	e08f2002 	add	r2, pc, r2
   104a4:	e7920103 	ldr	r0, [r2, r3, lsl #2]
   104a8:	e12fff1e 	bx	lr
   104ac:	e3a00000 	mov	r0, #0
   104b0:	e12fff1e 	bx	lr
   104b4:	0000512c 	.word	0x0000512c

000104b8 <CRYPTO_THREAD_set_local>:
   104b8:	e5903000 	ldr	r3, [r0]
   104bc:	e35300ff 	cmp	r3, #255	; 0xff
   104c0:	8a000004 	bhi	104d8 <CRYPTO_THREAD_set_local+0x20>
   104c4:	e59f2014 	ldr	r2, [pc, #20]	; 104e0 <CRYPTO_THREAD_set_local+0x28>
   104c8:	e3a00001 	mov	r0, #1
   104cc:	e08f2002 	add	r2, pc, r2
   104d0:	e7821103 	str	r1, [r2, r3, lsl #2]
   104d4:	e12fff1e 	bx	lr
   104d8:	e3a00000 	mov	r0, #0
   104dc:	e12fff1e 	bx	lr
   104e0:	00005100 	.word	0x00005100

000104e4 <CRYPTO_THREAD_cleanup_local>:
   104e4:	e3003101 	movw	r3, #257	; 0x101
   104e8:	e5803000 	str	r3, [r0]
   104ec:	e3a00001 	mov	r0, #1
   104f0:	e12fff1e 	bx	lr

000104f4 <openssl_init_fork_handlers>:
   104f4:	e3a00000 	mov	r0, #0
   104f8:	e12fff1e 	bx	lr

000104fc <__geterrno>:
   104fc:	e59f0004 	ldr	r0, [pc, #4]	; 10508 <__geterrno+0xc>
   10500:	e08f0000 	add	r0, pc, r0
   10504:	e12fff1e 	bx	lr
   10508:	000054cc 	.word	0x000054cc

0001050c <longlong_to_string>:
   1050c:	e92d4ff8 	push	{r3, r4, r5, r6, r7, r8, r9, sl, fp, lr}
   10510:	e1a08000 	mov	r8, r0
   10514:	e59d902c 	ldr	r9, [sp, #44]	; 0x2c
   10518:	e1a04002 	mov	r4, r2
   1051c:	e1a05003 	mov	r5, r3
   10520:	e219ab01 	ands	sl, r9, #1024	; 0x400
   10524:	e59d7028 	ldr	r7, [sp, #40]	; 0x28
   10528:	0a000003 	beq	1053c <longlong_to_string+0x30>
   1052c:	e3520000 	cmp	r2, #0
   10530:	e2d53000 	sbcs	r3, r5, #0
   10534:	a3a0a000 	movge	sl, #0
   10538:	ba000030 	blt	10600 <longlong_to_string+0xf4>
   1053c:	e2477001 	sub	r7, r7, #1
   10540:	e3550000 	cmp	r5, #0
   10544:	e3a03000 	mov	r3, #0
   10548:	03540009 	cmpeq	r4, #9
   1054c:	e088b007 	add	fp, r8, r7
   10550:	e7c83007 	strb	r3, [r8, r7]
   10554:	9a000012 	bls	105a4 <longlong_to_string+0x98>
   10558:	e1a00004 	mov	r0, r4
   1055c:	e1a01005 	mov	r1, r5
   10560:	e3a0200a 	mov	r2, #10
   10564:	e3a03000 	mov	r3, #0
   10568:	fa000677 	blx	11f4c <__aeabi_uldivmod>
   1056c:	e1a00004 	mov	r0, r4
   10570:	e1a06002 	mov	r6, r2
   10574:	e1a01005 	mov	r1, r5
   10578:	e3a0200a 	mov	r2, #10
   1057c:	e3a03000 	mov	r3, #0
   10580:	fa000671 	blx	11f4c <__aeabi_uldivmod>
   10584:	e3510000 	cmp	r1, #0
   10588:	e2866030 	add	r6, r6, #48	; 0x30
   1058c:	e1a04000 	mov	r4, r0
   10590:	e1a05001 	mov	r5, r1
   10594:	e2477001 	sub	r7, r7, #1
   10598:	03500009 	cmpeq	r0, #9
   1059c:	e56b6001 	strb	r6, [fp, #-1]!
   105a0:	8affffec 	bhi	10558 <longlong_to_string+0x4c>
   105a4:	e2477001 	sub	r7, r7, #1
   105a8:	e2844030 	add	r4, r4, #48	; 0x30
   105ac:	e0880007 	add	r0, r8, r7
   105b0:	e35a0000 	cmp	sl, #0
   105b4:	e7c84007 	strb	r4, [r8, r7]
   105b8:	1a00000c 	bne	105f0 <longlong_to_string+0xe4>
   105bc:	e3190c02 	tst	r9, #512	; 0x200
   105c0:	1a000006 	bne	105e0 <longlong_to_string+0xd4>
   105c4:	e3190a02 	tst	r9, #8192	; 0x2000
   105c8:	13a03020 	movne	r3, #32
   105cc:	159d2030 	ldrne	r2, [sp, #48]	; 0x30
   105d0:	059d3030 	ldreq	r3, [sp, #48]	; 0x30
   105d4:	15c23000 	strbne	r3, [r2]
   105d8:	05c3a000 	strbeq	sl, [r3]
   105dc:	e8bd8ff8 	pop	{r3, r4, r5, r6, r7, r8, r9, sl, fp, pc}
   105e0:	e59d2030 	ldr	r2, [sp, #48]	; 0x30
   105e4:	e3a0302b 	mov	r3, #43	; 0x2b
   105e8:	e5c23000 	strb	r3, [r2]
   105ec:	e8bd8ff8 	pop	{r3, r4, r5, r6, r7, r8, r9, sl, fp, pc}
   105f0:	e59d2030 	ldr	r2, [sp, #48]	; 0x30
   105f4:	e3a0302d 	mov	r3, #45	; 0x2d
   105f8:	e5c23000 	strb	r3, [r2]
   105fc:	e8bd8ff8 	pop	{r3, r4, r5, r6, r7, r8, r9, sl, fp, pc}
   10600:	e2724000 	rsbs	r4, r2, #0
   10604:	e3a0a001 	mov	sl, #1
   10608:	e2e55000 	rsc	r5, r5, #0
   1060c:	eaffffca 	b	1053c <longlong_to_string+0x30>

00010610 <exponent_to_string>:
   10610:	e3510000 	cmp	r1, #0
   10614:	e92d40f0 	push	{r4, r5, r6, r7, lr}
   10618:	b2611000 	rsblt	r1, r1, #0
   1061c:	b3a0302d 	movlt	r3, #45	; 0x2d
   10620:	a3a0302b 	movge	r3, #43	; 0x2b
   10624:	e3510ffa 	cmp	r1, #1000	; 0x3e8
   10628:	e1a0e000 	mov	lr, r0
   1062c:	e5c03000 	strb	r3, [r0]
   10630:	a3a00005 	movge	r0, #5
   10634:	aa000002 	bge	10644 <exponent_to_string+0x34>
   10638:	e3510063 	cmp	r1, #99	; 0x63
   1063c:	c3a00004 	movgt	r0, #4
   10640:	da00000f 	ble	10684 <exponent_to_string+0x74>
   10644:	e30c5ccd 	movw	r5, #52429	; 0xcccd
   10648:	e34c5ccc 	movt	r5, #52428	; 0xcccc
   1064c:	e3064667 	movw	r4, #26215	; 0x6667
   10650:	e3464666 	movt	r4, #26214	; 0x6666
   10654:	e08ee000 	add	lr, lr, r0
   10658:	e3a0600a 	mov	r6, #10
   1065c:	e0832195 	umull	r2, r3, r5, r1
   10660:	e1a02fc1 	asr	r2, r1, #31
   10664:	e0cc7194 	smull	r7, ip, r4, r1
   10668:	e1a031a3 	lsr	r3, r3, #3
   1066c:	e0631396 	mls	r3, r6, r3, r1
   10670:	e072114c 	rsbs	r1, r2, ip, asr #2
   10674:	e2833030 	add	r3, r3, #48	; 0x30
   10678:	e56e3001 	strb	r3, [lr, #-1]!
   1067c:	1afffff6 	bne	1065c <exponent_to_string+0x4c>
   10680:	e8bd80f0 	pop	{r4, r5, r6, r7, pc}
   10684:	e3510009 	cmp	r1, #9
   10688:	c3a00003 	movgt	r0, #3
   1068c:	d3a00002 	movle	r0, #2
   10690:	eaffffeb 	b	10644 <exponent_to_string+0x34>

00010694 <double_to_hexstring.isra.0>:
   10694:	ec532b10 	vmov	r2, r3, d0
   10698:	e92d4ff0 	push	{r4, r5, r6, r7, r8, r9, sl, fp, lr}
   1069c:	e201bc01 	and	fp, r1, #256	; 0x100
   106a0:	e24dd014 	sub	sp, sp, #20
   106a4:	e30017ff 	movw	r1, #2047	; 0x7ff
   106a8:	e1a05000 	mov	r5, r0
   106ac:	e1a09003 	mov	r9, r3
   106b0:	e2526000 	subs	r6, r2, #0
   106b4:	e2d33000 	sbcs	r3, r3, #0
   106b8:	e7ea2a59 	ubfx	r2, r9, #20, #11
   106bc:	b3a0302d 	movlt	r3, #45	; 0x2d
   106c0:	a3a03000 	movge	r3, #0
   106c4:	b5c03000 	strblt	r3, [r0]
   106c8:	e7f37059 	ubfx	r7, r9, #0, #20
   106cc:	b3a03001 	movlt	r3, #1
   106d0:	e1520001 	cmp	r2, r1
   106d4:	0a000073 	beq	108a8 <double_to_hexstring.isra.0+0x214>
   106d8:	e3520000 	cmp	r2, #0
   106dc:	1a000019 	bne	10748 <double_to_hexstring.isra.0+0xb4>
   106e0:	e1962007 	orrs	r2, r6, r7
   106e4:	0a0000ab 	beq	10998 <double_to_hexstring.isra.0+0x304>
   106e8:	e35b0000 	cmp	fp, #0
   106ec:	1a0000e1 	bne	10a78 <double_to_hexstring.isra.0+0x3e4>
   106f0:	e0800003 	add	r0, r0, r3
   106f4:	e59f13f8 	ldr	r1, [pc, #1016]	; 10af4 <double_to_hexstring.isra.0+0x460>
   106f8:	e3a02065 	mov	r2, #101	; 0x65
   106fc:	e3a0c064 	mov	ip, #100	; 0x64
   10700:	e08f1001 	add	r1, pc, r1
   10704:	e2833001 	add	r3, r3, #1
   10708:	e2811001 	add	r1, r1, #1
   1070c:	e4c0c001 	strb	ip, [r0], #1
   10710:	e3520000 	cmp	r2, #0
   10714:	0a000005 	beq	10730 <double_to_hexstring.isra.0+0x9c>
   10718:	e1a0c002 	mov	ip, r2
   1071c:	e5f12001 	ldrb	r2, [r1, #1]!
   10720:	e2833001 	add	r3, r3, #1
   10724:	e4c0c001 	strb	ip, [r0], #1
   10728:	e3520000 	cmp	r2, #0
   1072c:	1afffff9 	bne	10718 <double_to_hexstring.isra.0+0x84>
   10730:	e0853003 	add	r3, r5, r3
   10734:	e1a00005 	mov	r0, r5
   10738:	e3a02000 	mov	r2, #0
   1073c:	e5c32000 	strb	r2, [r3]
   10740:	e28dd014 	add	sp, sp, #20
   10744:	e8bd8ff0 	pop	{r4, r5, r6, r7, r8, r9, sl, fp, pc}
   10748:	e2422fff 	sub	r2, r2, #1020	; 0x3fc
   1074c:	e35b0000 	cmp	fp, #0
   10750:	e2422003 	sub	r2, r2, #3
   10754:	e58d2008 	str	r2, [sp, #8]
   10758:	0a00007a 	beq	10948 <double_to_hexstring.isra.0+0x2b4>
   1075c:	e0800003 	add	r0, r0, r3
   10760:	e59f2390 	ldr	r2, [pc, #912]	; 10af8 <double_to_hexstring.isra.0+0x464>
   10764:	e3a01058 	mov	r1, #88	; 0x58
   10768:	e3a0c030 	mov	ip, #48	; 0x30
   1076c:	e08f2002 	add	r2, pc, r2
   10770:	e2833001 	add	r3, r3, #1
   10774:	e2822001 	add	r2, r2, #1
   10778:	e4c0c001 	strb	ip, [r0], #1
   1077c:	e3510000 	cmp	r1, #0
   10780:	0a000005 	beq	1079c <double_to_hexstring.isra.0+0x108>
   10784:	e1a0c001 	mov	ip, r1
   10788:	e5f21001 	ldrb	r1, [r2, #1]!
   1078c:	e2833001 	add	r3, r3, #1
   10790:	e4c0c001 	strb	ip, [r0], #1
   10794:	e3510000 	cmp	r1, #0
   10798:	1afffff9 	bne	10784 <double_to_hexstring.isra.0+0xf0>
   1079c:	e59f2358 	ldr	r2, [pc, #856]	; 10afc <double_to_hexstring.isra.0+0x468>
   107a0:	e08f2002 	add	r2, pc, r2
   107a4:	e58d2004 	str	r2, [sp, #4]
   107a8:	e3a0a000 	mov	sl, #0
   107ac:	e3a01030 	mov	r1, #48	; 0x30
   107b0:	e1a0c00a 	mov	ip, sl
   107b4:	e1a0e001 	mov	lr, r1
   107b8:	e58db00c 	str	fp, [sp, #12]
   107bc:	ea000002 	b	107cc <double_to_hexstring.isra.0+0x138>
   107c0:	e2411004 	sub	r1, r1, #4
   107c4:	e3710004 	cmn	r1, #4
   107c8:	0a00002d 	beq	10884 <double_to_hexstring.isra.0+0x1f0>
   107cc:	e2610020 	rsb	r0, r1, #32
   107d0:	e2418020 	sub	r8, r1, #32
   107d4:	e1a02136 	lsr	r2, r6, r1
   107d8:	e2834001 	add	r4, r3, #1
   107dc:	e1822017 	orr	r2, r2, r7, lsl r0
   107e0:	e0850004 	add	r0, r5, r4
   107e4:	e1822837 	orr	r2, r2, r7, lsr r8
   107e8:	e0858003 	add	r8, r5, r3
   107ec:	e212200f 	ands	r2, r2, #15
   107f0:	028cc001 	addeq	ip, ip, #1
   107f4:	0afffff1 	beq	107c0 <double_to_hexstring.isra.0+0x12c>
   107f8:	e2839002 	add	r9, r3, #2
   107fc:	e35a0000 	cmp	sl, #0
   10800:	e085a009 	add	sl, r5, r9
   10804:	1a000008 	bne	1082c <double_to_hexstring.isra.0+0x198>
   10808:	e283b003 	add	fp, r3, #3
   1080c:	e3a0302e 	mov	r3, #46	; 0x2e
   10810:	e5c83000 	strb	r3, [r8]
   10814:	e1a03004 	mov	r3, r4
   10818:	e1a08000 	mov	r8, r0
   1081c:	e1a04009 	mov	r4, r9
   10820:	e1a0000a 	mov	r0, sl
   10824:	e1a0900b 	mov	r9, fp
   10828:	e085a00b 	add	sl, r5, fp
   1082c:	e35c0000 	cmp	ip, #0
   10830:	0a000068 	beq	109d8 <double_to_hexstring.isra.0+0x344>
   10834:	e085400c 	add	r4, r5, ip
   10838:	e0850003 	add	r0, r5, r3
   1083c:	e0844003 	add	r4, r4, r3
   10840:	e4c0e001 	strb	lr, [r0], #1
   10844:	e1540000 	cmp	r4, r0
   10848:	1afffffc 	bne	10840 <double_to_hexstring.isra.0+0x1ac>
   1084c:	e08cc003 	add	ip, ip, r3
   10850:	e28c3001 	add	r3, ip, #1
   10854:	e28c4002 	add	r4, ip, #2
   10858:	e0858003 	add	r8, r5, r3
   1085c:	e085c00c 	add	ip, r5, ip
   10860:	e0850004 	add	r0, r5, r4
   10864:	e59d9004 	ldr	r9, [sp, #4]
   10868:	e2411004 	sub	r1, r1, #4
   1086c:	e3a0a001 	mov	sl, #1
   10870:	e3710004 	cmn	r1, #4
   10874:	e7d92002 	ldrb	r2, [r9, r2]
   10878:	e5cc2000 	strb	r2, [ip]
   1087c:	e3a0c000 	mov	ip, #0
   10880:	1affffd1 	bne	107cc <double_to_hexstring.isra.0+0x138>
   10884:	e59db00c 	ldr	fp, [sp, #12]
   10888:	e59d1008 	ldr	r1, [sp, #8]
   1088c:	e35b0000 	cmp	fp, #0
   10890:	03a03070 	moveq	r3, #112	; 0x70
   10894:	13a03050 	movne	r3, #80	; 0x50
   10898:	e5c83000 	strb	r3, [r8]
   1089c:	ebffff5b 	bl	10610 <exponent_to_string>
   108a0:	e0803004 	add	r3, r0, r4
   108a4:	eaffffa1 	b	10730 <double_to_hexstring.isra.0+0x9c>
   108a8:	e1962007 	orrs	r2, r6, r7
   108ac:	1a000012 	bne	108fc <double_to_hexstring.isra.0+0x268>
   108b0:	e35b0000 	cmp	fp, #0
   108b4:	1a00004d 	bne	109f0 <double_to_hexstring.isra.0+0x35c>
   108b8:	e0800003 	add	r0, r0, r3
   108bc:	e59f123c 	ldr	r1, [pc, #572]	; 10b00 <double_to_hexstring.isra.0+0x46c>
   108c0:	e3a0206e 	mov	r2, #110	; 0x6e
   108c4:	e3a0c069 	mov	ip, #105	; 0x69
   108c8:	e08f1001 	add	r1, pc, r1
   108cc:	e2833001 	add	r3, r3, #1
   108d0:	e2811001 	add	r1, r1, #1
   108d4:	e4c0c001 	strb	ip, [r0], #1
   108d8:	e3520000 	cmp	r2, #0
   108dc:	0affff93 	beq	10730 <double_to_hexstring.isra.0+0x9c>
   108e0:	e1a0c002 	mov	ip, r2
   108e4:	e5f12001 	ldrb	r2, [r1, #1]!
   108e8:	e2833001 	add	r3, r3, #1
   108ec:	e4c0c001 	strb	ip, [r0], #1
   108f0:	e3520000 	cmp	r2, #0
   108f4:	1afffff9 	bne	108e0 <double_to_hexstring.isra.0+0x24c>
   108f8:	eaffff8c 	b	10730 <double_to_hexstring.isra.0+0x9c>
   108fc:	e35b0000 	cmp	fp, #0
   10900:	1a00004b 	bne	10a34 <double_to_hexstring.isra.0+0x3a0>
   10904:	e0800003 	add	r0, r0, r3
   10908:	e59f11f4 	ldr	r1, [pc, #500]	; 10b04 <double_to_hexstring.isra.0+0x470>
   1090c:	e3a02061 	mov	r2, #97	; 0x61
   10910:	e3a0c06e 	mov	ip, #110	; 0x6e
   10914:	e08f1001 	add	r1, pc, r1
   10918:	e2833001 	add	r3, r3, #1
   1091c:	e2811001 	add	r1, r1, #1
   10920:	e4c0c001 	strb	ip, [r0], #1
   10924:	e3520000 	cmp	r2, #0
   10928:	0affff80 	beq	10730 <double_to_hexstring.isra.0+0x9c>
   1092c:	e1a0c002 	mov	ip, r2
   10930:	e5f12001 	ldrb	r2, [r1, #1]!
   10934:	e2833001 	add	r3, r3, #1
   10938:	e4c0c001 	strb	ip, [r0], #1
   1093c:	e3520000 	cmp	r2, #0
   10940:	1afffff9 	bne	1092c <double_to_hexstring.isra.0+0x298>
   10944:	eaffff79 	b	10730 <double_to_hexstring.isra.0+0x9c>
   10948:	e0800003 	add	r0, r0, r3
   1094c:	e59f21b4 	ldr	r2, [pc, #436]	; 10b08 <double_to_hexstring.isra.0+0x474>
   10950:	e3a01078 	mov	r1, #120	; 0x78
   10954:	e3a0c030 	mov	ip, #48	; 0x30
   10958:	e08f2002 	add	r2, pc, r2
   1095c:	e2833001 	add	r3, r3, #1
   10960:	e2822001 	add	r2, r2, #1
   10964:	e4c0c001 	strb	ip, [r0], #1
   10968:	e3510000 	cmp	r1, #0
   1096c:	0a000005 	beq	10988 <double_to_hexstring.isra.0+0x2f4>
   10970:	e1a0c001 	mov	ip, r1
   10974:	e5f21001 	ldrb	r1, [r2, #1]!
   10978:	e2833001 	add	r3, r3, #1
   1097c:	e4c0c001 	strb	ip, [r0], #1
   10980:	e3510000 	cmp	r1, #0
   10984:	1afffff9 	bne	10970 <double_to_hexstring.isra.0+0x2dc>
   10988:	e59f217c 	ldr	r2, [pc, #380]	; 10b0c <double_to_hexstring.isra.0+0x478>
   1098c:	e08f2002 	add	r2, pc, r2
   10990:	e58d2004 	str	r2, [sp, #4]
   10994:	eaffff83 	b	107a8 <double_to_hexstring.isra.0+0x114>
   10998:	e35b0000 	cmp	fp, #0
   1099c:	1a000046 	bne	10abc <double_to_hexstring.isra.0+0x428>
   109a0:	e59f1168 	ldr	r1, [pc, #360]	; 10b10 <double_to_hexstring.isra.0+0x47c>
   109a4:	e0800003 	add	r0, r0, r3
   109a8:	e3a02078 	mov	r2, #120	; 0x78
   109ac:	e3a0c030 	mov	ip, #48	; 0x30
   109b0:	e08f1001 	add	r1, pc, r1
   109b4:	e2811001 	add	r1, r1, #1
   109b8:	ea000001 	b	109c4 <double_to_hexstring.isra.0+0x330>
   109bc:	e1a0c002 	mov	ip, r2
   109c0:	e5f12001 	ldrb	r2, [r1, #1]!
   109c4:	e2833001 	add	r3, r3, #1
   109c8:	e4c0c001 	strb	ip, [r0], #1
   109cc:	e3520000 	cmp	r2, #0
   109d0:	1afffff9 	bne	109bc <double_to_hexstring.isra.0+0x328>
   109d4:	eaffff55 	b	10730 <double_to_hexstring.isra.0+0x9c>
   109d8:	e1a0c008 	mov	ip, r8
   109dc:	e1a03004 	mov	r3, r4
   109e0:	e1a08000 	mov	r8, r0
   109e4:	e1a04009 	mov	r4, r9
   109e8:	e1a0000a 	mov	r0, sl
   109ec:	eaffff9c 	b	10864 <double_to_hexstring.isra.0+0x1d0>
   109f0:	e0800003 	add	r0, r0, r3
   109f4:	e59f1118 	ldr	r1, [pc, #280]	; 10b14 <double_to_hexstring.isra.0+0x480>
   109f8:	e3a0204e 	mov	r2, #78	; 0x4e
   109fc:	e3a0c049 	mov	ip, #73	; 0x49
   10a00:	e08f1001 	add	r1, pc, r1
   10a04:	e2833001 	add	r3, r3, #1
   10a08:	e2811001 	add	r1, r1, #1
   10a0c:	e4c0c001 	strb	ip, [r0], #1
   10a10:	e3520000 	cmp	r2, #0
   10a14:	0affff45 	beq	10730 <double_to_hexstring.isra.0+0x9c>
   10a18:	e1a0c002 	mov	ip, r2
   10a1c:	e5f12001 	ldrb	r2, [r1, #1]!
   10a20:	e2833001 	add	r3, r3, #1
   10a24:	e4c0c001 	strb	ip, [r0], #1
   10a28:	e3520000 	cmp	r2, #0
   10a2c:	1afffff9 	bne	10a18 <double_to_hexstring.isra.0+0x384>
   10a30:	eaffff3e 	b	10730 <double_to_hexstring.isra.0+0x9c>
   10a34:	e0800003 	add	r0, r0, r3
   10a38:	e59f10d8 	ldr	r1, [pc, #216]	; 10b18 <double_to_hexstring.isra.0+0x484>
   10a3c:	e3a02041 	mov	r2, #65	; 0x41
   10a40:	e3a0c04e 	mov	ip, #78	; 0x4e
   10a44:	e08f1001 	add	r1, pc, r1
   10a48:	e2833001 	add	r3, r3, #1
   10a4c:	e2811001 	add	r1, r1, #1
   10a50:	e4c0c001 	strb	ip, [r0], #1
   10a54:	e3520000 	cmp	r2, #0
   10a58:	0affff34 	beq	10730 <double_to_hexstring.isra.0+0x9c>
   10a5c:	e1a0c002 	mov	ip, r2
   10a60:	e5f12001 	ldrb	r2, [r1, #1]!
   10a64:	e2833001 	add	r3, r3, #1
   10a68:	e4c0c001 	strb	ip, [r0], #1
   10a6c:	e3520000 	cmp	r2, #0
   10a70:	1afffff9 	bne	10a5c <double_to_hexstring.isra.0+0x3c8>
   10a74:	eaffff2d 	b	10730 <double_to_hexstring.isra.0+0x9c>
   10a78:	e0800003 	add	r0, r0, r3
   10a7c:	e59f1098 	ldr	r1, [pc, #152]	; 10b1c <double_to_hexstring.isra.0+0x488>
   10a80:	e3a02045 	mov	r2, #69	; 0x45
   10a84:	e3a0c044 	mov	ip, #68	; 0x44
   10a88:	e08f1001 	add	r1, pc, r1
   10a8c:	e2833001 	add	r3, r3, #1
   10a90:	e2811001 	add	r1, r1, #1
   10a94:	e4c0c001 	strb	ip, [r0], #1
   10a98:	e3520000 	cmp	r2, #0
   10a9c:	0affff23 	beq	10730 <double_to_hexstring.isra.0+0x9c>
   10aa0:	e1a0c002 	mov	ip, r2
   10aa4:	e5f12001 	ldrb	r2, [r1, #1]!
   10aa8:	e2833001 	add	r3, r3, #1
   10aac:	e4c0c001 	strb	ip, [r0], #1
   10ab0:	e3520000 	cmp	r2, #0
   10ab4:	1afffff9 	bne	10aa0 <double_to_hexstring.isra.0+0x40c>
   10ab8:	eaffff1c 	b	10730 <double_to_hexstring.isra.0+0x9c>
   10abc:	e59f105c 	ldr	r1, [pc, #92]	; 10b20 <double_to_hexstring.isra.0+0x48c>
   10ac0:	e0800003 	add	r0, r0, r3
   10ac4:	e3a02058 	mov	r2, #88	; 0x58
   10ac8:	e3a0c030 	mov	ip, #48	; 0x30
   10acc:	e08f1001 	add	r1, pc, r1
   10ad0:	e2811001 	add	r1, r1, #1
   10ad4:	ea000001 	b	10ae0 <double_to_hexstring.isra.0+0x44c>
   10ad8:	e1a0c002 	mov	ip, r2
   10adc:	e5f12001 	ldrb	r2, [r1, #1]!
   10ae0:	e2833001 	add	r3, r3, #1
   10ae4:	e4c0c001 	strb	ip, [r0], #1
   10ae8:	e3520000 	cmp	r2, #0
   10aec:	1afffff9 	bne	10ad8 <double_to_hexstring.isra.0+0x444>
   10af0:	eaffff0e 	b	10730 <double_to_hexstring.isra.0+0x9c>
   10af4:	00004720 	.word	0x00004720
   10af8:	000046c0 	.word	0x000046c0
   10afc:	000046b4 	.word	0x000046b4
   10b00:	00004538 	.word	0x00004538
   10b04:	000044f4 	.word	0x000044f4
   10b08:	000044d0 	.word	0x000044d0
   10b0c:	000044b8 	.word	0x000044b8
   10b10:	00004460 	.word	0x00004460
   10b14:	00004404 	.word	0x00004404
   10b18:	000043c8 	.word	0x000043c8
   10b1c:	0000439c 	.word	0x0000439c
   10b20:	0000434c 	.word	0x0000434c

00010b24 <longlong_to_hexstring.constprop.1>:
   10b24:	e92d4030 	push	{r4, r5, lr}
   10b28:	e59d100c 	ldr	r1, [sp, #12]
   10b2c:	e3110c01 	tst	r1, #256	; 0x100
   10b30:	1a000010 	bne	10b78 <longlong_to_hexstring.constprop.1+0x54>
   10b34:	e59f5048 	ldr	r5, [pc, #72]	; 10b84 <longlong_to_hexstring.constprop.1+0x60>
   10b38:	e08f5005 	add	r5, pc, r5
   10b3c:	e280c01e 	add	ip, r0, #30
   10b40:	e3a01000 	mov	r1, #0
   10b44:	e5c0101f 	strb	r1, [r0, #31]
   10b48:	e202400f 	and	r4, r2, #15
   10b4c:	e1a01222 	lsr	r1, r2, #4
   10b50:	e1811e03 	orr	r1, r1, r3, lsl #28
   10b54:	e1a0e223 	lsr	lr, r3, #4
   10b58:	e1a02001 	mov	r2, r1
   10b5c:	e1a0300e 	mov	r3, lr
   10b60:	e7d51004 	ldrb	r1, [r5, r4]
   10b64:	e1a0000c 	mov	r0, ip
   10b68:	e192e003 	orrs	lr, r2, r3
   10b6c:	e44c1001 	strb	r1, [ip], #-1
   10b70:	1afffff4 	bne	10b48 <longlong_to_hexstring.constprop.1+0x24>
   10b74:	e8bd8030 	pop	{r4, r5, pc}
   10b78:	e59f5008 	ldr	r5, [pc, #8]	; 10b88 <longlong_to_hexstring.constprop.1+0x64>
   10b7c:	e08f5005 	add	r5, pc, r5
   10b80:	eaffffed 	b	10b3c <longlong_to_hexstring.constprop.1+0x18>
   10b84:	0000430c 	.word	0x0000430c
   10b88:	000042d8 	.word	0x000042d8
   10b8c:	00000000 	.word	0x00000000

00010b90 <double_to_string.constprop.2>:
   10b90:	e59fc3d0 	ldr	ip, [pc, #976]	; 10f68 <double_to_string.constprop.2+0x3d8>
   10b94:	ee102a10 	vmov	r2, s0
   10b98:	e92d4ff0 	push	{r4, r5, r6, r7, r8, r9, sl, fp, lr}
   10b9c:	ec598b10 	vmov	r8, r9, d0
   10ba0:	e59fe3c4 	ldr	lr, [pc, #964]	; 10f6c <double_to_string.constprop.2+0x3dc>
   10ba4:	e08fc00c 	add	ip, pc, ip
   10ba8:	e1a04000 	mov	r4, r0
   10bac:	e24dd01c 	sub	sp, sp, #28
   10bb0:	e1a0000c 	mov	r0, ip
   10bb4:	e3580000 	cmp	r8, #0
   10bb8:	e7ea0a59 	ubfx	r0, r9, #20, #11
   10bbc:	e79c500e 	ldr	r5, [ip, lr]
   10bc0:	e2d9e000 	sbcs	lr, r9, #0
   10bc4:	e1a07009 	mov	r7, r9
   10bc8:	e7f33059 	ubfx	r3, r9, #0, #20
   10bcc:	e300e7ff 	movw	lr, #2047	; 0x7ff
   10bd0:	b2299102 	eorlt	r9, r9, #-2147483648	; 0x80000000
   10bd4:	e595c000 	ldr	ip, [r5]
   10bd8:	ee106a10 	vmov	r6, s0
   10bdc:	e58dc014 	str	ip, [sp, #20]
   10be0:	b3a0c02d 	movlt	ip, #45	; 0x2d
   10be4:	a3a0c000 	movge	ip, #0
   10be8:	b5c4c000 	strblt	ip, [r4]
   10bec:	b3a0c001 	movlt	ip, #1
   10bf0:	e150000e 	cmp	r0, lr
   10bf4:	0a000030 	beq	10cbc <double_to_string.constprop.2+0x12c>
   10bf8:	e3500000 	cmp	r0, #0
   10bfc:	1a00001c 	bne	10c74 <double_to_string.constprop.2+0xe4>
   10c00:	e1923003 	orrs	r3, r2, r3
   10c04:	0a00004f 	beq	10d48 <double_to_string.constprop.2+0x1b8>
   10c08:	e3110c01 	tst	r1, #256	; 0x100
   10c0c:	1a0000a5 	bne	10ea8 <double_to_string.constprop.2+0x318>
   10c10:	e084100c 	add	r1, r4, ip
   10c14:	e59f3354 	ldr	r3, [pc, #852]	; 10f70 <double_to_string.constprop.2+0x3e0>
   10c18:	e3a02065 	mov	r2, #101	; 0x65
   10c1c:	e3a00064 	mov	r0, #100	; 0x64
   10c20:	e08f3003 	add	r3, pc, r3
   10c24:	e28cc001 	add	ip, ip, #1
   10c28:	e2833001 	add	r3, r3, #1
   10c2c:	e4c10001 	strb	r0, [r1], #1
   10c30:	e3520000 	cmp	r2, #0
   10c34:	0a000005 	beq	10c50 <double_to_string.constprop.2+0xc0>
   10c38:	e1a00002 	mov	r0, r2
   10c3c:	e5f32001 	ldrb	r2, [r3, #1]!
   10c40:	e28cc001 	add	ip, ip, #1
   10c44:	e4c10001 	strb	r0, [r1], #1
   10c48:	e3520000 	cmp	r2, #0
   10c4c:	1afffff9 	bne	10c38 <double_to_string.constprop.2+0xa8>
   10c50:	e1a00004 	mov	r0, r4
   10c54:	e3a03000 	mov	r3, #0
   10c58:	e7c4300c 	strb	r3, [r4, ip]
   10c5c:	e59d2014 	ldr	r2, [sp, #20]
   10c60:	e5953000 	ldr	r3, [r5]
   10c64:	e1520003 	cmp	r2, r3
   10c68:	1a0000bb 	bne	10f5c <double_to_string.constprop.2+0x3cc>
   10c6c:	e28dd01c 	add	sp, sp, #28
   10c70:	e8bd8ff0 	pop	{r4, r5, r6, r7, r8, r9, sl, fp, pc}
   10c74:	e240eff2 	sub	lr, r0, #968	; 0x3c8
   10c78:	e24ee003 	sub	lr, lr, #3
   10c7c:	e35e0068 	cmp	lr, #104	; 0x68
   10c80:	9a00003e 	bls	10d80 <double_to_string.constprop.2+0x1f0>
   10c84:	e59f22e8 	ldr	r2, [pc, #744]	; 10f74 <double_to_string.constprop.2+0x3e4>
   10c88:	e084100c 	add	r1, r4, ip
   10c8c:	e3a03072 	mov	r3, #114	; 0x72
   10c90:	e3a0003c 	mov	r0, #60	; 0x3c
   10c94:	e08f2002 	add	r2, pc, r2
   10c98:	e2822001 	add	r2, r2, #1
   10c9c:	ea000001 	b	10ca8 <double_to_string.constprop.2+0x118>
   10ca0:	e1a00003 	mov	r0, r3
   10ca4:	e5f23001 	ldrb	r3, [r2, #1]!
   10ca8:	e28cc001 	add	ip, ip, #1
   10cac:	e4c10001 	strb	r0, [r1], #1
   10cb0:	e3530000 	cmp	r3, #0
   10cb4:	1afffff9 	bne	10ca0 <double_to_string.constprop.2+0x110>
   10cb8:	eaffffe4 	b	10c50 <double_to_string.constprop.2+0xc0>
   10cbc:	e2011c01 	and	r1, r1, #256	; 0x100
   10cc0:	e1923003 	orrs	r3, r2, r3
   10cc4:	1a00000f 	bne	10d08 <double_to_string.constprop.2+0x178>
   10cc8:	e3510000 	cmp	r1, #0
   10ccc:	1a000067 	bne	10e70 <double_to_string.constprop.2+0x2e0>
   10cd0:	e59f22a0 	ldr	r2, [pc, #672]	; 10f78 <double_to_string.constprop.2+0x3e8>
   10cd4:	e084100c 	add	r1, r4, ip
   10cd8:	e3a0306e 	mov	r3, #110	; 0x6e
   10cdc:	e3a00069 	mov	r0, #105	; 0x69
   10ce0:	e08f2002 	add	r2, pc, r2
   10ce4:	e2822001 	add	r2, r2, #1
   10ce8:	ea000001 	b	10cf4 <double_to_string.constprop.2+0x164>
   10cec:	e1a00003 	mov	r0, r3
   10cf0:	e5f23001 	ldrb	r3, [r2, #1]!
   10cf4:	e28cc001 	add	ip, ip, #1
   10cf8:	e4c10001 	strb	r0, [r1], #1
   10cfc:	e3530000 	cmp	r3, #0
   10d00:	1afffff9 	bne	10cec <double_to_string.constprop.2+0x15c>
   10d04:	eaffffd1 	b	10c50 <double_to_string.constprop.2+0xc0>
   10d08:	e3510000 	cmp	r1, #0
   10d0c:	1a000049 	bne	10e38 <double_to_string.constprop.2+0x2a8>
   10d10:	e59f2264 	ldr	r2, [pc, #612]	; 10f7c <double_to_string.constprop.2+0x3ec>
   10d14:	e084100c 	add	r1, r4, ip
   10d18:	e3a03061 	mov	r3, #97	; 0x61
   10d1c:	e3a0006e 	mov	r0, #110	; 0x6e
   10d20:	e08f2002 	add	r2, pc, r2
   10d24:	e2822001 	add	r2, r2, #1
   10d28:	ea000001 	b	10d34 <double_to_string.constprop.2+0x1a4>
   10d2c:	e1a00003 	mov	r0, r3
   10d30:	e5f23001 	ldrb	r3, [r2, #1]!
   10d34:	e28cc001 	add	ip, ip, #1
   10d38:	e4c10001 	strb	r0, [r1], #1
   10d3c:	e3530000 	cmp	r3, #0
   10d40:	1afffff9 	bne	10d2c <double_to_string.constprop.2+0x19c>
   10d44:	eaffffc1 	b	10c50 <double_to_string.constprop.2+0xc0>
   10d48:	e59f2230 	ldr	r2, [pc, #560]	; 10f80 <double_to_string.constprop.2+0x3f0>
   10d4c:	e084100c 	add	r1, r4, ip
   10d50:	e3a0302e 	mov	r3, #46	; 0x2e
   10d54:	e3a00030 	mov	r0, #48	; 0x30
   10d58:	e08f2002 	add	r2, pc, r2
   10d5c:	e2822001 	add	r2, r2, #1
   10d60:	ea000001 	b	10d6c <double_to_string.constprop.2+0x1dc>
   10d64:	e1a00003 	mov	r0, r3
   10d68:	e5f23001 	ldrb	r3, [r2, #1]!
   10d6c:	e28cc001 	add	ip, ip, #1
   10d70:	e4c10001 	strb	r0, [r1], #1
   10d74:	e3530000 	cmp	r3, #0
   10d78:	1afffff9 	bne	10d64 <double_to_string.constprop.2+0x1d4>
   10d7c:	eaffffb3 	b	10c50 <double_to_string.constprop.2+0xc0>
   10d80:	e1a0c004 	mov	ip, r4
   10d84:	e284a018 	add	sl, r4, #24
   10d88:	e3a0e030 	mov	lr, #48	; 0x30
   10d8c:	e3a0b000 	mov	fp, #0
   10d90:	e5ecb01f 	strb	fp, [ip, #31]!
   10d94:	e56ce001 	strb	lr, [ip, #-1]!
   10d98:	e15c000a 	cmp	ip, sl
   10d9c:	1afffffc 	bne	10d94 <double_to_string.constprop.2+0x204>
   10da0:	e2400fff 	sub	r0, r0, #1020	; 0x3fc
   10da4:	e2400003 	sub	r0, r0, #3
   10da8:	e3500000 	cmp	r0, #0
   10dac:	b5c4e017 	strblt	lr, [r4, #23]
   10db0:	b3a0b017 	movlt	fp, #23
   10db4:	aa00004c 	bge	10eec <double_to_string.constprop.2+0x35c>
   10db8:	ed9f6b68 	vldr	d6, [pc, #416]	; 10f60 <double_to_string.constprop.2+0x3d0>
   10dbc:	ec498b15 	vmov	d5, r8, r9
   10dc0:	eeb67b00 	vmov.f64	d7, #96	; 0x3f000000  0.5
   10dc4:	e3a0302e 	mov	r3, #46	; 0x2e
   10dc8:	e5c43020 	strb	r3, [r4, #32]
   10dcc:	ee057b06 	vmla.f64	d7, d5, d6
   10dd0:	eefc7bc7 	vcvt.u32.f64	s15, d7
   10dd4:	ee172a90 	vmov	r2, s15
   10dd8:	e3520000 	cmp	r2, #0
   10ddc:	0a00000a 	beq	10e0c <double_to_string.constprop.2+0x27c>
   10de0:	e30ccccd 	movw	ip, #52429	; 0xcccd
   10de4:	e34ccccc 	movt	ip, #52428	; 0xcccc
   10de8:	e2840027 	add	r0, r4, #39	; 0x27
   10dec:	e3a0e00a 	mov	lr, #10
   10df0:	e083129c 	umull	r1, r3, ip, r2
   10df4:	e1a031a3 	lsr	r3, r3, #3
   10df8:	e061239e 	mls	r1, lr, r3, r2
   10dfc:	e2532000 	subs	r2, r3, #0
   10e00:	e2813030 	add	r3, r1, #48	; 0x30
   10e04:	e5603001 	strb	r3, [r0, #-1]!
   10e08:	1afffff8 	bne	10df0 <double_to_string.constprop.2+0x260>
   10e0c:	e3560000 	cmp	r6, #0
   10e10:	e2d73000 	sbcs	r3, r7, #0
   10e14:	a084000b 	addge	r0, r4, fp
   10e18:	aaffff8f 	bge	10c5c <double_to_string.constprop.2+0xcc>
   10e1c:	e35b0000 	cmp	fp, #0
   10e20:	124bb001 	subne	fp, fp, #1
   10e24:	13a0302d 	movne	r3, #45	; 0x2d
   10e28:	1084000b 	addne	r0, r4, fp
   10e2c:	01a00004 	moveq	r0, r4
   10e30:	17c4300b 	strbne	r3, [r4, fp]
   10e34:	eaffff88 	b	10c5c <double_to_string.constprop.2+0xcc>
   10e38:	e59f2144 	ldr	r2, [pc, #324]	; 10f84 <double_to_string.constprop.2+0x3f4>
   10e3c:	e084100c 	add	r1, r4, ip
   10e40:	e3a03041 	mov	r3, #65	; 0x41
   10e44:	e3a0004e 	mov	r0, #78	; 0x4e
   10e48:	e08f2002 	add	r2, pc, r2
   10e4c:	e2822001 	add	r2, r2, #1
   10e50:	ea000001 	b	10e5c <double_to_string.constprop.2+0x2cc>
   10e54:	e1a00003 	mov	r0, r3
   10e58:	e5f23001 	ldrb	r3, [r2, #1]!
   10e5c:	e28cc001 	add	ip, ip, #1
   10e60:	e4c10001 	strb	r0, [r1], #1
   10e64:	e3530000 	cmp	r3, #0
   10e68:	1afffff9 	bne	10e54 <double_to_string.constprop.2+0x2c4>
   10e6c:	eaffff77 	b	10c50 <double_to_string.constprop.2+0xc0>
   10e70:	e59f2110 	ldr	r2, [pc, #272]	; 10f88 <double_to_string.constprop.2+0x3f8>
   10e74:	e084100c 	add	r1, r4, ip
   10e78:	e3a0304e 	mov	r3, #78	; 0x4e
   10e7c:	e3a00049 	mov	r0, #73	; 0x49
   10e80:	e08f2002 	add	r2, pc, r2
   10e84:	e2822001 	add	r2, r2, #1
   10e88:	ea000001 	b	10e94 <double_to_string.constprop.2+0x304>
   10e8c:	e1a00003 	mov	r0, r3
   10e90:	e5f23001 	ldrb	r3, [r2, #1]!
   10e94:	e28cc001 	add	ip, ip, #1
   10e98:	e4c10001 	strb	r0, [r1], #1
   10e9c:	e3530000 	cmp	r3, #0
   10ea0:	1afffff9 	bne	10e8c <double_to_string.constprop.2+0x2fc>
   10ea4:	eaffff69 	b	10c50 <double_to_string.constprop.2+0xc0>
   10ea8:	e084100c 	add	r1, r4, ip
   10eac:	e59f30d8 	ldr	r3, [pc, #216]	; 10f8c <double_to_string.constprop.2+0x3fc>
   10eb0:	e3a02045 	mov	r2, #69	; 0x45
   10eb4:	e3a00044 	mov	r0, #68	; 0x44
   10eb8:	e08f3003 	add	r3, pc, r3
   10ebc:	e28cc001 	add	ip, ip, #1
   10ec0:	e2833001 	add	r3, r3, #1
   10ec4:	e4c10001 	strb	r0, [r1], #1
   10ec8:	e3520000 	cmp	r2, #0
   10ecc:	0affff5f 	beq	10c50 <double_to_string.constprop.2+0xc0>
   10ed0:	e1a00002 	mov	r0, r2
   10ed4:	e5f32001 	ldrb	r2, [r3, #1]!
   10ed8:	e28cc001 	add	ip, ip, #1
   10edc:	e4c10001 	strb	r0, [r1], #1
   10ee0:	e3520000 	cmp	r2, #0
   10ee4:	1afffff9 	bne	10ed0 <double_to_string.constprop.2+0x340>
   10ee8:	eaffff58 	b	10c50 <double_to_string.constprop.2+0xc0>
   10eec:	e2600034 	rsb	r0, r0, #52	; 0x34
   10ef0:	e28dc018 	add	ip, sp, #24
   10ef4:	e260e020 	rsb	lr, r0, #32
   10ef8:	e383b601 	orr	fp, r3, #1048576	; 0x100000
   10efc:	e1a0a032 	lsr	sl, r2, r0
   10f00:	e2403020 	sub	r3, r0, #32
   10f04:	e18aae1b 	orr	sl, sl, fp, lsl lr
   10f08:	e3a02000 	mov	r2, #0
   10f0c:	e56c2005 	strb	r2, [ip, #-5]!
   10f10:	e18aa33b 	orr	sl, sl, fp, lsr r3
   10f14:	e1a0b03b 	lsr	fp, fp, r0
   10f18:	e58d1004 	str	r1, [sp, #4]
   10f1c:	e1a0300b 	mov	r3, fp
   10f20:	e3a01019 	mov	r1, #25
   10f24:	e1a0200a 	mov	r2, sl
   10f28:	e58dc008 	str	ip, [sp, #8]
   10f2c:	e58d1000 	str	r1, [sp]
   10f30:	e1a00004 	mov	r0, r4
   10f34:	ebfffd74 	bl	1050c <longlong_to_string>
   10f38:	e1a0100b 	mov	r1, fp
   10f3c:	e040b004 	sub	fp, r0, r4
   10f40:	e1a0000a 	mov	r0, sl
   10f44:	fa0003e5 	blx	11ee0 <__aeabi_ul2d>
   10f48:	ec498b17 	vmov	d7, r8, r9
   10f4c:	ec410b16 	vmov	d6, r0, r1
   10f50:	ee377b46 	vsub.f64	d7, d7, d6
   10f54:	ec598b17 	vmov	r8, r9, d7
   10f58:	eaffff96 	b	10db8 <double_to_string.constprop.2+0x228>
   10f5c:	eb00026c 	bl	11914 <__stack_chk_fail>
   10f60:	00000000 	.word	0x00000000
   10f64:	412e8480 	.word	0x412e8480
   10f68:	000044d4 	.word	0x000044d4
   10f6c:	00000010 	.word	0x00000010
   10f70:	00004200 	.word	0x00004200
   10f74:	000041a8 	.word	0x000041a8
   10f78:	00004120 	.word	0x00004120
   10f7c:	000040e8 	.word	0x000040e8
   10f80:	000040d8 	.word	0x000040d8
   10f84:	00003fc4 	.word	0x00003fc4
   10f88:	00003f84 	.word	0x00003f84
   10f8c:	00003f6c 	.word	0x00003f6c

00010f90 <_printf_engine>:
   10f90:	e92d4ff0 	push	{r4, r5, r6, r7, r8, r9, sl, fp, lr}
   10f94:	e1a0b000 	mov	fp, r0
   10f98:	e59fc8c0 	ldr	ip, [pc, #2240]	; 11860 <_printf_engine+0x8d0>
   10f9c:	e24dd05c 	sub	sp, sp, #92	; 0x5c
   10fa0:	e59fe8bc 	ldr	lr, [pc, #2236]	; 11864 <_printf_engine+0x8d4>
   10fa4:	e1a00002 	mov	r0, r2
   10fa8:	e59f28b8 	ldr	r2, [pc, #2232]	; 11868 <_printf_engine+0x8d8>
   10fac:	e08fc00c 	add	ip, pc, ip
   10fb0:	e1a0a001 	mov	sl, r1
   10fb4:	e58d3014 	str	r3, [sp, #20]
   10fb8:	e08f2002 	add	r2, pc, r2
   10fbc:	e58d201c 	str	r2, [sp, #28]
   10fc0:	e1a0300c 	mov	r3, ip
   10fc4:	e3a06000 	mov	r6, #0
   10fc8:	e79c300e 	ldr	r3, [ip, lr]
   10fcc:	e58d3018 	str	r3, [sp, #24]
   10fd0:	e5933000 	ldr	r3, [r3]
   10fd4:	e58d3054 	str	r3, [sp, #84]	; 0x54
   10fd8:	e5d03000 	ldrb	r3, [r0]
   10fdc:	e3a01000 	mov	r1, #0
   10fe0:	e2804001 	add	r4, r0, #1
   10fe4:	e5cd102f 	strb	r1, [sp, #47]	; 0x2f
   10fe8:	e1530001 	cmp	r3, r1
   10fec:	1a000004 	bne	11004 <_printf_engine+0x74>
   10ff0:	ea00006e 	b	111b0 <_printf_engine+0x220>
   10ff4:	e0441000 	sub	r1, r4, r0
   10ff8:	e4d43001 	ldrb	r3, [r4], #1
   10ffc:	e3530000 	cmp	r3, #0
   11000:	0a00006b 	beq	111b4 <_printf_engine+0x224>
   11004:	e3530025 	cmp	r3, #37	; 0x25
   11008:	1afffff9 	bne	10ff4 <_printf_engine+0x64>
   1100c:	e1a0200a 	mov	r2, sl
   11010:	e12fff3b 	blx	fp
   11014:	e2503000 	subs	r3, r0, #0
   11018:	ba00006b 	blt	111cc <_printf_engine+0x23c>
   1101c:	e3a05000 	mov	r5, #0
   11020:	e0866003 	add	r6, r6, r3
   11024:	e1a09005 	mov	r9, r5
   11028:	e4d48001 	ldrb	r8, [r4], #1
   1102c:	e3580000 	cmp	r8, #0
   11030:	0a000064 	beq	111c8 <_printf_engine+0x238>
   11034:	e2483020 	sub	r3, r8, #32
   11038:	e353005a 	cmp	r3, #90	; 0x5a
   1103c:	908ff103 	addls	pc, pc, r3, lsl #2
   11040:	ea000168 	b	115e8 <_printf_engine+0x658>
   11044:	ea000119 	b	114b0 <_printf_engine+0x520>
   11048:	ea000166 	b	115e8 <_printf_engine+0x658>
   1104c:	ea000165 	b	115e8 <_printf_engine+0x658>
   11050:	ea000108 	b	11478 <_printf_engine+0x4e8>
   11054:	ea000163 	b	115e8 <_printf_engine+0x658>
   11058:	ea000108 	b	11480 <_printf_engine+0x4f0>
   1105c:	ea000161 	b	115e8 <_printf_engine+0x658>
   11060:	ea000160 	b	115e8 <_printf_engine+0x658>
   11064:	ea00015f 	b	115e8 <_printf_engine+0x658>
   11068:	ea00015e 	b	115e8 <_printf_engine+0x658>
   1106c:	ea00015d 	b	115e8 <_printf_engine+0x658>
   11070:	ea000110 	b	114b8 <_printf_engine+0x528>
   11074:	ea00015b 	b	115e8 <_printf_engine+0x658>
   11078:	ea000110 	b	114c0 <_printf_engine+0x530>
   1107c:	eaffffe9 	b	11028 <_printf_engine+0x98>
   11080:	ea000158 	b	115e8 <_printf_engine+0x658>
   11084:	ea00010f 	b	114c8 <_printf_engine+0x538>
   11088:	ea00010e 	b	114c8 <_printf_engine+0x538>
   1108c:	ea00010d 	b	114c8 <_printf_engine+0x538>
   11090:	ea00010c 	b	114c8 <_printf_engine+0x538>
   11094:	ea00010b 	b	114c8 <_printf_engine+0x538>
   11098:	ea00010a 	b	114c8 <_printf_engine+0x538>
   1109c:	ea000109 	b	114c8 <_printf_engine+0x538>
   110a0:	ea000108 	b	114c8 <_printf_engine+0x538>
   110a4:	ea000107 	b	114c8 <_printf_engine+0x538>
   110a8:	ea000106 	b	114c8 <_printf_engine+0x538>
   110ac:	ea00014d 	b	115e8 <_printf_engine+0x658>
   110b0:	ea00014c 	b	115e8 <_printf_engine+0x658>
   110b4:	ea00014b 	b	115e8 <_printf_engine+0x658>
   110b8:	ea00014a 	b	115e8 <_printf_engine+0x658>
   110bc:	ea000149 	b	115e8 <_printf_engine+0x658>
   110c0:	ea000148 	b	115e8 <_printf_engine+0x658>
   110c4:	ea000147 	b	115e8 <_printf_engine+0x658>
   110c8:	ea0000c1 	b	113d4 <_printf_engine+0x444>
   110cc:	ea000145 	b	115e8 <_printf_engine+0x658>
   110d0:	ea000144 	b	115e8 <_printf_engine+0x658>
   110d4:	ea000143 	b	115e8 <_printf_engine+0x658>
   110d8:	ea000142 	b	115e8 <_printf_engine+0x658>
   110dc:	ea000096 	b	1133c <_printf_engine+0x3ac>
   110e0:	ea000140 	b	115e8 <_printf_engine+0x658>
   110e4:	ea00013f 	b	115e8 <_printf_engine+0x658>
   110e8:	ea00013e 	b	115e8 <_printf_engine+0x658>
   110ec:	ea00013d 	b	115e8 <_printf_engine+0x658>
   110f0:	ea00013c 	b	115e8 <_printf_engine+0x658>
   110f4:	ea00013b 	b	115e8 <_printf_engine+0x658>
   110f8:	ea00013a 	b	115e8 <_printf_engine+0x658>
   110fc:	ea000139 	b	115e8 <_printf_engine+0x658>
   11100:	ea000138 	b	115e8 <_printf_engine+0x658>
   11104:	ea000137 	b	115e8 <_printf_engine+0x658>
   11108:	ea000136 	b	115e8 <_printf_engine+0x658>
   1110c:	ea000135 	b	115e8 <_printf_engine+0x658>
   11110:	ea000134 	b	115e8 <_printf_engine+0x658>
   11114:	ea000133 	b	115e8 <_printf_engine+0x658>
   11118:	ea000132 	b	115e8 <_printf_engine+0x658>
   1111c:	ea000131 	b	115e8 <_printf_engine+0x658>
   11120:	ea000130 	b	115e8 <_printf_engine+0x658>
   11124:	ea0000ee 	b	114e4 <_printf_engine+0x554>
   11128:	ea00012e 	b	115e8 <_printf_engine+0x658>
   1112c:	ea00012d 	b	115e8 <_printf_engine+0x658>
   11130:	ea00012c 	b	115e8 <_printf_engine+0x658>
   11134:	ea00012b 	b	115e8 <_printf_engine+0x658>
   11138:	ea00012a 	b	115e8 <_printf_engine+0x658>
   1113c:	ea000129 	b	115e8 <_printf_engine+0x658>
   11140:	ea000128 	b	115e8 <_printf_engine+0x658>
   11144:	ea000127 	b	115e8 <_printf_engine+0x658>
   11148:	ea0000a2 	b	113d8 <_printf_engine+0x448>
   1114c:	ea000125 	b	115e8 <_printf_engine+0x658>
   11150:	ea0000e8 	b	114f8 <_printf_engine+0x568>
   11154:	ea00010a 	b	11584 <_printf_engine+0x5f4>
   11158:	ea000122 	b	115e8 <_printf_engine+0x658>
   1115c:	ea000077 	b	11340 <_printf_engine+0x3b0>
   11160:	ea000120 	b	115e8 <_printf_engine+0x658>
   11164:	ea00011b 	b	115d8 <_printf_engine+0x648>
   11168:	ea000105 	b	11584 <_printf_engine+0x5f4>
   1116c:	ea0000f3 	b	11540 <_printf_engine+0x5b0>
   11170:	ea00011c 	b	115e8 <_printf_engine+0x658>
   11174:	ea0000ed 	b	11530 <_printf_engine+0x5a0>
   11178:	ea00011a 	b	115e8 <_printf_engine+0x658>
   1117c:	ea0000a0 	b	11404 <_printf_engine+0x474>
   11180:	ea000118 	b	115e8 <_printf_engine+0x658>
   11184:	ea000018 	b	111ec <_printf_engine+0x25c>
   11188:	ea000116 	b	115e8 <_printf_engine+0x658>
   1118c:	ea000115 	b	115e8 <_printf_engine+0x658>
   11190:	ea000107 	b	115b4 <_printf_engine+0x624>
   11194:	ea0000eb 	b	11548 <_printf_engine+0x5b8>
   11198:	ea0000ec 	b	11550 <_printf_engine+0x5c0>
   1119c:	ea000111 	b	115e8 <_printf_engine+0x658>
   111a0:	ea000110 	b	115e8 <_printf_engine+0x658>
   111a4:	ea000011 	b	111f0 <_printf_engine+0x260>
   111a8:	ea00010e 	b	115e8 <_printf_engine+0x658>
   111ac:	ea0000af 	b	11470 <_printf_engine+0x4e0>
   111b0:	e1a01003 	mov	r1, r3
   111b4:	e1a0200a 	mov	r2, sl
   111b8:	e12fff3b 	blx	fp
   111bc:	e2503000 	subs	r3, r0, #0
   111c0:	ba000001 	blt	111cc <_printf_engine+0x23c>
   111c4:	e0866003 	add	r6, r6, r3
   111c8:	e1a03006 	mov	r3, r6
   111cc:	e1a00003 	mov	r0, r3
   111d0:	e59d3018 	ldr	r3, [sp, #24]
   111d4:	e59d2054 	ldr	r2, [sp, #84]	; 0x54
   111d8:	e5933000 	ldr	r3, [r3]
   111dc:	e1520003 	cmp	r2, r3
   111e0:	1a00019d 	bne	1185c <_printf_engine+0x8cc>
   111e4:	e28dd05c 	add	sp, sp, #92	; 0x5c
   111e8:	e8bd8ff0 	pop	{r4, r5, r6, r7, r8, r9, sl, fp, pc}
   111ec:	e3899081 	orr	r9, r9, #129	; 0x81
   111f0:	e3190002 	tst	r9, #2
   111f4:	159d3014 	ldrne	r3, [sp, #20]
   111f8:	0a00008c 	beq	11430 <_printf_engine+0x4a0>
   111fc:	e2833007 	add	r3, r3, #7
   11200:	e3c33007 	bic	r3, r3, #7
   11204:	e2832008 	add	r2, r3, #8
   11208:	e58d2014 	str	r2, [sp, #20]
   1120c:	e1c320d0 	ldrd	r2, [r3]
   11210:	e58d9000 	str	r9, [sp]
   11214:	e28d0034 	add	r0, sp, #52	; 0x34
   11218:	ebfffe41 	bl	10b24 <longlong_to_hexstring.constprop.1>
   1121c:	e3190080 	tst	r9, #128	; 0x80
   11220:	e1a08000 	mov	r8, r0
   11224:	0a00004f 	beq	11368 <_printf_engine+0x3d8>
   11228:	e28d7058 	add	r7, sp, #88	; 0x58
   1122c:	e3a03030 	mov	r3, #48	; 0x30
   11230:	e1a0200a 	mov	r2, sl
   11234:	e3a01001 	mov	r1, #1
   11238:	e5673028 	strb	r3, [r7, #-40]!	; 0xffffffd8
   1123c:	e1a00007 	mov	r0, r7
   11240:	e12fff3b 	blx	fp
   11244:	e2503000 	subs	r3, r0, #0
   11248:	baffffdf 	blt	111cc <_printf_engine+0x23c>
   1124c:	e3190c01 	tst	r9, #256	; 0x100
   11250:	e0836006 	add	r6, r3, r6
   11254:	e1a00007 	mov	r0, r7
   11258:	03a03078 	moveq	r3, #120	; 0x78
   1125c:	13a03058 	movne	r3, #88	; 0x58
   11260:	e1a0200a 	mov	r2, sl
   11264:	e5cd3030 	strb	r3, [sp, #48]	; 0x30
   11268:	e3a01001 	mov	r1, #1
   1126c:	e12fff3b 	blx	fp
   11270:	e2503000 	subs	r3, r0, #0
   11274:	baffffd4 	blt	111cc <_printf_engine+0x23c>
   11278:	e0836006 	add	r6, r3, r6
   1127c:	e1a00008 	mov	r0, r8
   11280:	e3190b02 	tst	r9, #2048	; 0x800
   11284:	1a00003a 	bne	11374 <_printf_engine+0x3e4>
   11288:	e2097a01 	and	r7, r9, #4096	; 0x1000
   1128c:	e58d7020 	str	r7, [sp, #32]
   11290:	eb00022c 	bl	11b48 <strlen>
   11294:	e5dd302f 	ldrb	r3, [sp, #47]	; 0x2f
   11298:	e1a09000 	mov	r9, r0
   1129c:	e3530000 	cmp	r3, #0
   112a0:	0a00006e 	beq	11460 <_printf_engine+0x4d0>
   112a4:	e3550000 	cmp	r5, #0
   112a8:	0a0000fd 	beq	116a4 <_printf_engine+0x714>
   112ac:	e2455001 	sub	r5, r5, #1
   112b0:	e3570000 	cmp	r7, #0
   112b4:	0a000165 	beq	11850 <_printf_engine+0x8c0>
   112b8:	e28d7058 	add	r7, sp, #88	; 0x58
   112bc:	e1a0200a 	mov	r2, sl
   112c0:	e3a01001 	mov	r1, #1
   112c4:	e5673028 	strb	r3, [r7, #-40]!	; 0xffffffd8
   112c8:	e1a00007 	mov	r0, r7
   112cc:	e12fff3b 	blx	fp
   112d0:	e2503000 	subs	r3, r0, #0
   112d4:	baffffbc 	blt	111cc <_printf_engine+0x23c>
   112d8:	e0866003 	add	r6, r6, r3
   112dc:	e1590005 	cmp	r9, r5
   112e0:	2a0000e2 	bcs	11670 <_printf_engine+0x6e0>
   112e4:	e59d3020 	ldr	r3, [sp, #32]
   112e8:	e58d4024 	str	r4, [sp, #36]	; 0x24
   112ec:	e1a04009 	mov	r4, r9
   112f0:	e3530000 	cmp	r3, #0
   112f4:	e1a09007 	mov	r9, r7
   112f8:	13a03030 	movne	r3, #48	; 0x30
   112fc:	03a03020 	moveq	r3, #32
   11300:	e1a07003 	mov	r7, r3
   11304:	ea000003 	b	11318 <_printf_engine+0x388>
   11308:	e2455001 	sub	r5, r5, #1
   1130c:	e0866000 	add	r6, r6, r0
   11310:	e1540005 	cmp	r4, r5
   11314:	0a0000c5 	beq	11630 <_printf_engine+0x6a0>
   11318:	e1a0200a 	mov	r2, sl
   1131c:	e3a01001 	mov	r1, #1
   11320:	e1a00009 	mov	r0, r9
   11324:	e5cd7030 	strb	r7, [sp, #48]	; 0x30
   11328:	e12fff3b 	blx	fp
   1132c:	e3500000 	cmp	r0, #0
   11330:	aafffff4 	bge	11308 <_printf_engine+0x378>
   11334:	e1a03000 	mov	r3, r0
   11338:	eaffffa3 	b	111cc <_printf_engine+0x23c>
   1133c:	e3899c01 	orr	r9, r9, #256	; 0x100
   11340:	e59d3014 	ldr	r3, [sp, #20]
   11344:	e1a01009 	mov	r1, r9
   11348:	e28d0034 	add	r0, sp, #52	; 0x34
   1134c:	e2833007 	add	r3, r3, #7
   11350:	e3c33007 	bic	r3, r3, #7
   11354:	e2832008 	add	r2, r3, #8
   11358:	e58d2014 	str	r2, [sp, #20]
   1135c:	ed930b00 	vldr	d0, [r3]
   11360:	ebfffe0a 	bl	10b90 <double_to_string.constprop.2>
   11364:	e1a08000 	mov	r8, r0
   11368:	e1a00008 	mov	r0, r8
   1136c:	e3190b02 	tst	r9, #2048	; 0x800
   11370:	0affffc4 	beq	11288 <_printf_engine+0x2f8>
   11374:	e1a0200a 	mov	r2, sl
   11378:	e3e01000 	mvn	r1, #0
   1137c:	e12fff3b 	blx	fp
   11380:	e2503000 	subs	r3, r0, #0
   11384:	baffff90 	blt	111cc <_printf_engine+0x23c>
   11388:	e1a08003 	mov	r8, r3
   1138c:	e0866003 	add	r6, r6, r3
   11390:	e1530005 	cmp	r3, r5
   11394:	2a000023 	bcs	11428 <_printf_engine+0x498>
   11398:	e28d7030 	add	r7, sp, #48	; 0x30
   1139c:	e3a09020 	mov	r9, #32
   113a0:	ea000003 	b	113b4 <_printf_engine+0x424>
   113a4:	e2455001 	sub	r5, r5, #1
   113a8:	e0866000 	add	r6, r6, r0
   113ac:	e1580005 	cmp	r8, r5
   113b0:	0a00001c 	beq	11428 <_printf_engine+0x498>
   113b4:	e1a0200a 	mov	r2, sl
   113b8:	e3a01001 	mov	r1, #1
   113bc:	e1a00007 	mov	r0, r7
   113c0:	e5cd9030 	strb	r9, [sp, #48]	; 0x30
   113c4:	e12fff3b 	blx	fp
   113c8:	e3500000 	cmp	r0, #0
   113cc:	aafffff4 	bge	113a4 <_printf_engine+0x414>
   113d0:	eaffffd7 	b	11334 <_printf_engine+0x3a4>
   113d4:	e3899c01 	orr	r9, r9, #256	; 0x100
   113d8:	e59d3014 	ldr	r3, [sp, #20]
   113dc:	e1a01009 	mov	r1, r9
   113e0:	e28d0034 	add	r0, sp, #52	; 0x34
   113e4:	e2833007 	add	r3, r3, #7
   113e8:	e3c33007 	bic	r3, r3, #7
   113ec:	e2832008 	add	r2, r3, #8
   113f0:	e58d2014 	str	r2, [sp, #20]
   113f4:	ed930b00 	vldr	d0, [r3]
   113f8:	ebfffca5 	bl	10694 <double_to_hexstring.isra.0>
   113fc:	e1a08000 	mov	r8, r0
   11400:	eaffffd8 	b	11368 <_printf_engine+0x3d8>
   11404:	e59d3014 	ldr	r3, [sp, #20]
   11408:	e3190002 	tst	r9, #2
   1140c:	e2832004 	add	r2, r3, #4
   11410:	e5933000 	ldr	r3, [r3]
   11414:	0a0000bc 	beq	1170c <_printf_engine+0x77c>
   11418:	e58d2014 	str	r2, [sp, #20]
   1141c:	e3a02000 	mov	r2, #0
   11420:	e5836000 	str	r6, [r3]
   11424:	e5832004 	str	r2, [r3, #4]
   11428:	e1a00004 	mov	r0, r4
   1142c:	eafffee9 	b	10fd8 <_printf_engine+0x48>
   11430:	e3190001 	tst	r9, #1
   11434:	1a000094 	bne	1168c <_printf_engine+0x6fc>
   11438:	e3190008 	tst	r9, #8
   1143c:	1a0000bf 	bne	11740 <_printf_engine+0x7b0>
   11440:	e3190004 	tst	r9, #4
   11444:	0a0000d0 	beq	1178c <_printf_engine+0x7fc>
   11448:	e59d1014 	ldr	r1, [sp, #20]
   1144c:	e3a03000 	mov	r3, #0
   11450:	e2811004 	add	r1, r1, #4
   11454:	e15120b4 	ldrh	r2, [r1, #-4]
   11458:	e58d1014 	str	r1, [sp, #20]
   1145c:	eaffff6b 	b	11210 <_printf_engine+0x280>
   11460:	e1550000 	cmp	r5, r0
   11464:	9a000072 	bls	11634 <_printf_engine+0x6a4>
   11468:	e28d7030 	add	r7, sp, #48	; 0x30
   1146c:	eaffff9c 	b	112e4 <_printf_engine+0x354>
   11470:	e3899010 	orr	r9, r9, #16
   11474:	eafffeeb 	b	11028 <_printf_engine+0x98>
   11478:	e3899080 	orr	r9, r9, #128	; 0x80
   1147c:	eafffee9 	b	11028 <_printf_engine+0x98>
   11480:	e28d7058 	add	r7, sp, #88	; 0x58
   11484:	e3a03025 	mov	r3, #37	; 0x25
   11488:	e1a0200a 	mov	r2, sl
   1148c:	e3a01001 	mov	r1, #1
   11490:	e5673028 	strb	r3, [r7, #-40]!	; 0xffffffd8
   11494:	e1a00007 	mov	r0, r7
   11498:	e12fff3b 	blx	fp
   1149c:	e2503000 	subs	r3, r0, #0
   114a0:	baffff49 	blt	111cc <_printf_engine+0x23c>
   114a4:	e0836006 	add	r6, r3, r6
   114a8:	e1a00004 	mov	r0, r4
   114ac:	eafffec9 	b	10fd8 <_printf_engine+0x48>
   114b0:	e3899a02 	orr	r9, r9, #8192	; 0x2000
   114b4:	eafffedb 	b	11028 <_printf_engine+0x98>
   114b8:	e3899c02 	orr	r9, r9, #512	; 0x200
   114bc:	eafffed9 	b	11028 <_printf_engine+0x98>
   114c0:	e3899b02 	orr	r9, r9, #2048	; 0x800
   114c4:	eafffed7 	b	11028 <_printf_engine+0x98>
   114c8:	e3580030 	cmp	r8, #48	; 0x30
   114cc:	03550000 	cmpeq	r5, #0
   114d0:	e3a0300a 	mov	r3, #10
   114d4:	e2488030 	sub	r8, r8, #48	; 0x30
   114d8:	03899a01 	orreq	r9, r9, #4096	; 0x1000
   114dc:	e0258593 	mla	r5, r3, r5, r8
   114e0:	eafffed0 	b	11028 <_printf_engine+0x98>
   114e4:	e3899c01 	orr	r9, r9, #256	; 0x100
   114e8:	e3190002 	tst	r9, #2
   114ec:	159d3014 	ldrne	r3, [sp, #20]
   114f0:	1affff41 	bne	111fc <_printf_engine+0x26c>
   114f4:	eaffffcd 	b	11430 <_printf_engine+0x4a0>
   114f8:	e59d5014 	ldr	r5, [sp, #20]
   114fc:	e28d7058 	add	r7, sp, #88	; 0x58
   11500:	e1a0200a 	mov	r2, sl
   11504:	e3a01001 	mov	r1, #1
   11508:	e5953000 	ldr	r3, [r5]
   1150c:	e5673028 	strb	r3, [r7, #-40]!	; 0xffffffd8
   11510:	e1a00007 	mov	r0, r7
   11514:	e12fff3b 	blx	fp
   11518:	e2503000 	subs	r3, r0, #0
   1151c:	baffff2a 	blt	111cc <_printf_engine+0x23c>
   11520:	e2852004 	add	r2, r5, #4
   11524:	e0866003 	add	r6, r6, r3
   11528:	e58d2014 	str	r2, [sp, #20]
   1152c:	eaffffbd 	b	11428 <_printf_engine+0x498>
   11530:	e3190001 	tst	r9, #1
   11534:	13899002 	orrne	r9, r9, #2
   11538:	e3899001 	orr	r9, r9, #1
   1153c:	eafffeb9 	b	11028 <_printf_engine+0x98>
   11540:	e3899020 	orr	r9, r9, #32
   11544:	eafffeb7 	b	11028 <_printf_engine+0x98>
   11548:	e3899040 	orr	r9, r9, #64	; 0x40
   1154c:	eafffeb5 	b	11028 <_printf_engine+0x98>
   11550:	e3190002 	tst	r9, #2
   11554:	159d3014 	ldrne	r3, [sp, #20]
   11558:	1a000055 	bne	116b4 <_printf_engine+0x724>
   1155c:	e3190001 	tst	r9, #1
   11560:	1a000082 	bne	11770 <_printf_engine+0x7e0>
   11564:	e3190008 	tst	r9, #8
   11568:	0a000098 	beq	117d0 <_printf_engine+0x840>
   1156c:	e59d1014 	ldr	r1, [sp, #20]
   11570:	e3a03000 	mov	r3, #0
   11574:	e2811004 	add	r1, r1, #4
   11578:	e5512004 	ldrb	r2, [r1, #-4]
   1157c:	e58d1014 	str	r1, [sp, #20]
   11580:	ea000050 	b	116c8 <_printf_engine+0x738>
   11584:	e3190002 	tst	r9, #2
   11588:	1a000057 	bne	116ec <_printf_engine+0x75c>
   1158c:	e3190001 	tst	r9, #1
   11590:	1a000070 	bne	11758 <_printf_engine+0x7c8>
   11594:	e3190008 	tst	r9, #8
   11598:	0a000084 	beq	117b0 <_printf_engine+0x820>
   1159c:	e59d1014 	ldr	r1, [sp, #20]
   115a0:	e2811004 	add	r1, r1, #4
   115a4:	e15120d4 	ldrsb	r2, [r1, #-4]
   115a8:	e58d1014 	str	r1, [sp, #20]
   115ac:	e1a03fc2 	asr	r3, r2, #31
   115b0:	ea000053 	b	11704 <_printf_engine+0x774>
   115b4:	e59d3014 	ldr	r3, [sp, #20]
   115b8:	e3c99a01 	bic	r9, r9, #4096	; 0x1000
   115bc:	e2833004 	add	r3, r3, #4
   115c0:	e5138004 	ldr	r8, [r3, #-4]
   115c4:	e58d3014 	str	r3, [sp, #20]
   115c8:	e59d301c 	ldr	r3, [sp, #28]
   115cc:	e3580000 	cmp	r8, #0
   115d0:	01a08003 	moveq	r8, r3
   115d4:	eaffff63 	b	11368 <_printf_engine+0x3d8>
   115d8:	e3190004 	tst	r9, #4
   115dc:	13899008 	orrne	r9, r9, #8
   115e0:	e3899004 	orr	r9, r9, #4
   115e4:	eafffe8f 	b	11028 <_printf_engine+0x98>
   115e8:	e28d7058 	add	r7, sp, #88	; 0x58
   115ec:	e3a03025 	mov	r3, #37	; 0x25
   115f0:	e1a0200a 	mov	r2, sl
   115f4:	e3a01001 	mov	r1, #1
   115f8:	e5673028 	strb	r3, [r7, #-40]!	; 0xffffffd8
   115fc:	e1a00007 	mov	r0, r7
   11600:	e12fff3b 	blx	fp
   11604:	e2505000 	subs	r5, r0, #0
   11608:	ba00008e 	blt	11848 <_printf_engine+0x8b8>
   1160c:	e1a00007 	mov	r0, r7
   11610:	e1a0200a 	mov	r2, sl
   11614:	e3a01001 	mov	r1, #1
   11618:	e5cd8030 	strb	r8, [sp, #48]	; 0x30
   1161c:	e12fff3b 	blx	fp
   11620:	e2503000 	subs	r3, r0, #0
   11624:	bafffee8 	blt	111cc <_printf_engine+0x23c>
   11628:	e0856006 	add	r6, r5, r6
   1162c:	eaffff9c 	b	114a4 <_printf_engine+0x514>
   11630:	e59d4024 	ldr	r4, [sp, #36]	; 0x24
   11634:	e59d3020 	ldr	r3, [sp, #32]
   11638:	e3530000 	cmp	r3, #0
   1163c:	1a00000b 	bne	11670 <_printf_engine+0x6e0>
   11640:	e5dd302f 	ldrb	r3, [sp, #47]	; 0x2f
   11644:	e3530000 	cmp	r3, #0
   11648:	0a000008 	beq	11670 <_printf_engine+0x6e0>
   1164c:	e28d7058 	add	r7, sp, #88	; 0x58
   11650:	e1a0200a 	mov	r2, sl
   11654:	e3a01001 	mov	r1, #1
   11658:	e5673028 	strb	r3, [r7, #-40]!	; 0xffffffd8
   1165c:	e1a00007 	mov	r0, r7
   11660:	e12fff3b 	blx	fp
   11664:	e2503000 	subs	r3, r0, #0
   11668:	bafffed7 	blt	111cc <_printf_engine+0x23c>
   1166c:	e0866003 	add	r6, r6, r3
   11670:	e1a00008 	mov	r0, r8
   11674:	e1a0200a 	mov	r2, sl
   11678:	e3e01000 	mvn	r1, #0
   1167c:	e12fff3b 	blx	fp
   11680:	e2503000 	subs	r3, r0, #0
   11684:	bafffed0 	blt	111cc <_printf_engine+0x23c>
   11688:	eaffff85 	b	114a4 <_printf_engine+0x514>
   1168c:	e59d3014 	ldr	r3, [sp, #20]
   11690:	e2833004 	add	r3, r3, #4
   11694:	e5132004 	ldr	r2, [r3, #-4]
   11698:	e58d3014 	str	r3, [sp, #20]
   1169c:	e3a03000 	mov	r3, #0
   116a0:	eafffeda 	b	11210 <_printf_engine+0x280>
   116a4:	e59d2020 	ldr	r2, [sp, #32]
   116a8:	e3520000 	cmp	r2, #0
   116ac:	1affff01 	bne	112b8 <_printf_engine+0x328>
   116b0:	eaffffe5 	b	1164c <_printf_engine+0x6bc>
   116b4:	e2833007 	add	r3, r3, #7
   116b8:	e3c33007 	bic	r3, r3, #7
   116bc:	e2832008 	add	r2, r3, #8
   116c0:	e58d2014 	str	r2, [sp, #20]
   116c4:	e1c320d0 	ldrd	r2, [r3]
   116c8:	e28d102f 	add	r1, sp, #47	; 0x2f
   116cc:	e58d9004 	str	r9, [sp, #4]
   116d0:	e28d0034 	add	r0, sp, #52	; 0x34
   116d4:	e58d1008 	str	r1, [sp, #8]
   116d8:	e3a01020 	mov	r1, #32
   116dc:	e58d1000 	str	r1, [sp]
   116e0:	ebfffb89 	bl	1050c <longlong_to_string>
   116e4:	e1a08000 	mov	r8, r0
   116e8:	eaffff1e 	b	11368 <_printf_engine+0x3d8>
   116ec:	e59d3014 	ldr	r3, [sp, #20]
   116f0:	e2833007 	add	r3, r3, #7
   116f4:	e3c33007 	bic	r3, r3, #7
   116f8:	e2832008 	add	r2, r3, #8
   116fc:	e58d2014 	str	r2, [sp, #20]
   11700:	e1c320d0 	ldrd	r2, [r3]
   11704:	e3899b01 	orr	r9, r9, #1024	; 0x400
   11708:	eaffffee 	b	116c8 <_printf_engine+0x738>
   1170c:	e3190001 	tst	r9, #1
   11710:	1a000007 	bne	11734 <_printf_engine+0x7a4>
   11714:	e3190008 	tst	r9, #8
   11718:	15c36000 	strbne	r6, [r3]
   1171c:	158d2014 	strne	r2, [sp, #20]
   11720:	1affff40 	bne	11428 <_printf_engine+0x498>
   11724:	e3190004 	tst	r9, #4
   11728:	11c360b0 	strhne	r6, [r3]
   1172c:	158d2014 	strne	r2, [sp, #20]
   11730:	1affff3c 	bne	11428 <_printf_engine+0x498>
   11734:	e5836000 	str	r6, [r3]
   11738:	e58d2014 	str	r2, [sp, #20]
   1173c:	eaffff39 	b	11428 <_printf_engine+0x498>
   11740:	e59d1014 	ldr	r1, [sp, #20]
   11744:	e3a03000 	mov	r3, #0
   11748:	e2811004 	add	r1, r1, #4
   1174c:	e5512004 	ldrb	r2, [r1, #-4]
   11750:	e58d1014 	str	r1, [sp, #20]
   11754:	eafffead 	b	11210 <_printf_engine+0x280>
   11758:	e59d3014 	ldr	r3, [sp, #20]
   1175c:	e2833004 	add	r3, r3, #4
   11760:	e5132004 	ldr	r2, [r3, #-4]
   11764:	e58d3014 	str	r3, [sp, #20]
   11768:	e1a03fc2 	asr	r3, r2, #31
   1176c:	eaffffe4 	b	11704 <_printf_engine+0x774>
   11770:	e59d3014 	ldr	r3, [sp, #20]
   11774:	e2833004 	add	r3, r3, #4
   11778:	e5130004 	ldr	r0, [r3, #-4]
   1177c:	e58d3014 	str	r3, [sp, #20]
   11780:	e3a03000 	mov	r3, #0
   11784:	e1a02000 	mov	r2, r0
   11788:	eaffffce 	b	116c8 <_printf_engine+0x738>
   1178c:	e3190010 	tst	r9, #16
   11790:	1affffbd 	bne	1168c <_printf_engine+0x6fc>
   11794:	e59d3014 	ldr	r3, [sp, #20]
   11798:	e3190020 	tst	r9, #32
   1179c:	1afffe96 	bne	111fc <_printf_engine+0x26c>
   117a0:	e4932004 	ldr	r2, [r3], #4
   117a4:	e58d3014 	str	r3, [sp, #20]
   117a8:	e3a03000 	mov	r3, #0
   117ac:	eafffe97 	b	11210 <_printf_engine+0x280>
   117b0:	e3190004 	tst	r9, #4
   117b4:	0a00000d 	beq	117f0 <_printf_engine+0x860>
   117b8:	e59d1014 	ldr	r1, [sp, #20]
   117bc:	e2811004 	add	r1, r1, #4
   117c0:	e15120f4 	ldrsh	r2, [r1, #-4]
   117c4:	e58d1014 	str	r1, [sp, #20]
   117c8:	e1a03fc2 	asr	r3, r2, #31
   117cc:	eaffffcc 	b	11704 <_printf_engine+0x774>
   117d0:	e3190004 	tst	r9, #4
   117d4:	0a000011 	beq	11820 <_printf_engine+0x890>
   117d8:	e59d1014 	ldr	r1, [sp, #20]
   117dc:	e3a03000 	mov	r3, #0
   117e0:	e2811004 	add	r1, r1, #4
   117e4:	e15120b4 	ldrh	r2, [r1, #-4]
   117e8:	e58d1014 	str	r1, [sp, #20]
   117ec:	eaffffb5 	b	116c8 <_printf_engine+0x738>
   117f0:	e3190010 	tst	r9, #16
   117f4:	1affffd7 	bne	11758 <_printf_engine+0x7c8>
   117f8:	e3190020 	tst	r9, #32
   117fc:	1affffba 	bne	116ec <_printf_engine+0x75c>
   11800:	e3190040 	tst	r9, #64	; 0x40
   11804:	e59d2014 	ldr	r2, [sp, #20]
   11808:	e2823004 	add	r3, r2, #4
   1180c:	059d2014 	ldreq	r2, [sp, #20]
   11810:	e5922000 	ldr	r2, [r2]
   11814:	e58d3014 	str	r3, [sp, #20]
   11818:	e1a03fc2 	asr	r3, r2, #31
   1181c:	eaffffb8 	b	11704 <_printf_engine+0x774>
   11820:	e3190010 	tst	r9, #16
   11824:	1affffd1 	bne	11770 <_printf_engine+0x7e0>
   11828:	e59d3014 	ldr	r3, [sp, #20]
   1182c:	e3190020 	tst	r9, #32
   11830:	1affff9f 	bne	116b4 <_printf_engine+0x724>
   11834:	e4930004 	ldr	r0, [r3], #4
   11838:	e58d3014 	str	r3, [sp, #20]
   1183c:	e3a03000 	mov	r3, #0
   11840:	e1a02000 	mov	r2, r0
   11844:	eaffff9f 	b	116c8 <_printf_engine+0x738>
   11848:	e1a03005 	mov	r3, r5
   1184c:	eafffe5e 	b	111cc <_printf_engine+0x23c>
   11850:	e1500005 	cmp	r0, r5
   11854:	3affff03 	bcc	11468 <_printf_engine+0x4d8>
   11858:	eaffff79 	b	11644 <_printf_engine+0x6b4>
   1185c:	eb00002c 	bl	11914 <__stack_chk_fail>
   11860:	000040cc 	.word	0x000040cc
   11864:	00000010 	.word	0x00000010
   11868:	00003e40 	.word	0x00003e40

0001186c <rand>:
   1186c:	e59f3020 	ldr	r3, [pc, #32]	; 11894 <rand+0x28>
   11870:	e306160d 	movw	r1, #26125	; 0x660d
   11874:	e3401019 	movt	r1, #25
   11878:	e08f3003 	add	r3, pc, r3
   1187c:	e30f235f 	movw	r2, #62303	; 0xf35f
   11880:	e3432c6e 	movt	r2, #15470	; 0x3c6e
   11884:	e5930000 	ldr	r0, [r3]
   11888:	e0202091 	mla	r0, r1, r0, r2
   1188c:	e5830000 	str	r0, [r3]
   11890:	e12fff1e 	bx	lr
   11894:	000038e0 	.word	0x000038e0

00011898 <vfprintf>:
   11898:	e5903010 	ldr	r3, [r0, #16]
   1189c:	e5900000 	ldr	r0, [r0]
   118a0:	e12fff13 	bx	r3

000118a4 <fprintf>:
   118a4:	e92d000e 	push	{r1, r2, r3}
   118a8:	e59f3058 	ldr	r3, [pc, #88]	; 11908 <fprintf+0x64>
   118ac:	e59fc058 	ldr	ip, [pc, #88]	; 1190c <fprintf+0x68>
   118b0:	e08f3003 	add	r3, pc, r3
   118b4:	e92d4010 	push	{r4, lr}
   118b8:	e24dd00c 	sub	sp, sp, #12
   118bc:	e793400c 	ldr	r4, [r3, ip]
   118c0:	e28de018 	add	lr, sp, #24
   118c4:	e5903010 	ldr	r3, [r0, #16]
   118c8:	e1a0200e 	mov	r2, lr
   118cc:	e59d1014 	ldr	r1, [sp, #20]
   118d0:	e594c000 	ldr	ip, [r4]
   118d4:	e5900000 	ldr	r0, [r0]
   118d8:	e58de000 	str	lr, [sp]
   118dc:	e58dc004 	str	ip, [sp, #4]
   118e0:	e12fff33 	blx	r3
   118e4:	e59d2004 	ldr	r2, [sp, #4]
   118e8:	e5943000 	ldr	r3, [r4]
   118ec:	e1520003 	cmp	r2, r3
   118f0:	1a000003 	bne	11904 <fprintf+0x60>
   118f4:	e28dd00c 	add	sp, sp, #12
   118f8:	e8bd4010 	pop	{r4, lr}
   118fc:	e28dd00c 	add	sp, sp, #12
   11900:	e12fff1e 	bx	lr
   11904:	eb000002 	bl	11914 <__stack_chk_fail>
   11908:	000037c8 	.word	0x000037c8
   1190c:	00000010 	.word	0x00000010

00011910 <raise>:
   11910:	e12fff1e 	bx	lr

00011914 <__stack_chk_fail>:
   11914:	e59f3030 	ldr	r3, [pc, #48]	; 1194c <__stack_chk_fail+0x38>
   11918:	e24dd008 	sub	sp, sp, #8
   1191c:	e59f202c 	ldr	r2, [pc, #44]	; 11950 <__stack_chk_fail+0x3c>
   11920:	e3a01030 	mov	r1, #48	; 0x30
   11924:	e08f3003 	add	r3, pc, r3
   11928:	e7933002 	ldr	r3, [r3, r2]
   1192c:	e5933000 	ldr	r3, [r3]
   11930:	e58d3004 	str	r3, [sp, #4]
   11934:	e58d1000 	str	r1, [sp]
   11938:	e59d2000 	ldr	r2, [sp]
   1193c:	e59d3000 	ldr	r3, [sp]
   11940:	e1520003 	cmp	r2, r3
   11944:	0afffffb 	beq	11938 <__stack_chk_fail+0x24>
   11948:	eafffff9 	b	11934 <__stack_chk_fail+0x20>
   1194c:	00003754 	.word	0x00003754
   11950:	00000010 	.word	0x00000010

00011954 <memcmp>:
   11954:	e3520000 	cmp	r2, #0
   11958:	0a000012 	beq	119a8 <memcmp+0x54>
   1195c:	e5d1c000 	ldrb	ip, [r1]
   11960:	e5d03000 	ldrb	r3, [r0]
   11964:	e043300c 	sub	r3, r3, ip
   11968:	e6af3073 	sxtb	r3, r3
   1196c:	e3530000 	cmp	r3, #0
   11970:	02422001 	subeq	r2, r2, #1
   11974:	0081c002 	addeq	ip, r1, r2
   11978:	0a000006 	beq	11998 <memcmp+0x44>
   1197c:	ea00000b 	b	119b0 <memcmp+0x5c>
   11980:	e5f02001 	ldrb	r2, [r0, #1]!
   11984:	e5f13001 	ldrb	r3, [r1, #1]!
   11988:	e0422003 	sub	r2, r2, r3
   1198c:	e6af2072 	sxtb	r2, r2
   11990:	e3520000 	cmp	r2, #0
   11994:	1a000003 	bne	119a8 <memcmp+0x54>
   11998:	e151000c 	cmp	r1, ip
   1199c:	1afffff7 	bne	11980 <memcmp+0x2c>
   119a0:	e3a00000 	mov	r0, #0
   119a4:	e12fff1e 	bx	lr
   119a8:	e1a00002 	mov	r0, r2
   119ac:	e12fff1e 	bx	lr
   119b0:	e1a00003 	mov	r0, r3
   119b4:	e12fff1e 	bx	lr

000119b8 <memcpy>:
   119b8:	e040c001 	sub	ip, r0, r1
   119bc:	e3520000 	cmp	r2, #0
   119c0:	e16fcf1c 	clz	ip, ip
   119c4:	e1a0c2ac 	lsr	ip, ip, #5
   119c8:	03a0c001 	moveq	ip, #1
   119cc:	e35c0000 	cmp	ip, #0
   119d0:	112fff1e 	bxne	lr
   119d4:	e1803001 	orr	r3, r0, r1
   119d8:	e92d4030 	push	{r4, r5, lr}
   119dc:	e3130003 	tst	r3, #3
   119e0:	1a000015 	bne	11a3c <memcpy+0x84>
   119e4:	e1a0c122 	lsr	ip, r2, #2
   119e8:	e1a03000 	mov	r3, r0
   119ec:	e2022003 	and	r2, r2, #3
   119f0:	e35c0000 	cmp	ip, #0
   119f4:	0a000028 	beq	11a9c <memcpy+0xe4>
   119f8:	e1a0e10c 	lsl	lr, ip, #2
   119fc:	e2414004 	sub	r4, r1, #4
   11a00:	e083c00e 	add	ip, r3, lr
   11a04:	e5b45004 	ldr	r5, [r4, #4]!
   11a08:	e4835004 	str	r5, [r3], #4
   11a0c:	e153000c 	cmp	r3, ip
   11a10:	1afffffb 	bne	11a04 <memcpy+0x4c>
   11a14:	e081100e 	add	r1, r1, lr
   11a18:	e3520000 	cmp	r2, #0
   11a1c:	08bd8030 	popeq	{r4, r5, pc}
   11a20:	e24cc001 	sub	ip, ip, #1
   11a24:	e0812002 	add	r2, r1, r2
   11a28:	e4d13001 	ldrb	r3, [r1], #1
   11a2c:	e5ec3001 	strb	r3, [ip, #1]!
   11a30:	e1520001 	cmp	r2, r1
   11a34:	1afffffb 	bne	11a28 <memcpy+0x70>
   11a38:	e8bd8030 	pop	{r4, r5, pc}
   11a3c:	e0203001 	eor	r3, r0, r1
   11a40:	e2133003 	ands	r3, r3, #3
   11a44:	13a03001 	movne	r3, #1
   11a48:	e3520003 	cmp	r2, #3
   11a4c:	93833001 	orrls	r3, r3, #1
   11a50:	e3530000 	cmp	r3, #0
   11a54:	0a00000a 	beq	11a84 <memcpy+0xcc>
   11a58:	e2523000 	subs	r3, r2, #0
   11a5c:	d8bd8030 	pople	{r4, r5, pc}
   11a60:	e1a0200c 	mov	r2, ip
   11a64:	e240e001 	sub	lr, r0, #1
   11a68:	e0815003 	add	r5, r1, r3
   11a6c:	e4d14001 	ldrb	r4, [r1], #1
   11a70:	e5ee4001 	strb	r4, [lr, #1]!
   11a74:	e1510005 	cmp	r1, r5
   11a78:	1afffffb 	bne	11a6c <memcpy+0xb4>
   11a7c:	e0803003 	add	r3, r0, r3
   11a80:	eaffffda 	b	119f0 <memcpy+0x38>
   11a84:	e2003003 	and	r3, r0, #3
   11a88:	e2633004 	rsb	r3, r3, #4
   11a8c:	e042c003 	sub	ip, r2, r3
   11a90:	e20c2003 	and	r2, ip, #3
   11a94:	e1a0c12c 	lsr	ip, ip, #2
   11a98:	eafffff1 	b	11a64 <memcpy+0xac>
   11a9c:	e1a0c003 	mov	ip, r3
   11aa0:	eaffffdc 	b	11a18 <memcpy+0x60>

00011aa4 <memset>:
   11aa4:	e2603000 	rsb	r3, r0, #0
   11aa8:	e2033003 	and	r3, r3, #3
   11aac:	e1530002 	cmp	r3, r2
   11ab0:	2a00001b 	bcs	11b24 <memset+0x80>
   11ab4:	e92d4010 	push	{r4, lr}
   11ab8:	e6ef4071 	uxtb	r4, r1
   11abc:	e3530000 	cmp	r3, #0
   11ac0:	e184e404 	orr	lr, r4, r4, lsl #8
   11ac4:	e0422003 	sub	r2, r2, r3
   11ac8:	01a03000 	moveq	r3, r0
   11acc:	e18ee80e 	orr	lr, lr, lr, lsl #16
   11ad0:	0a000004 	beq	11ae8 <memset+0x44>
   11ad4:	e080c003 	add	ip, r0, r3
   11ad8:	e1a03000 	mov	r3, r0
   11adc:	e4c34001 	strb	r4, [r3], #1
   11ae0:	e15c0003 	cmp	ip, r3
   11ae4:	1afffffc 	bne	11adc <memset+0x38>
   11ae8:	e1b0c122 	lsrs	ip, r2, #2
   11aec:	0a000003 	beq	11b00 <memset+0x5c>
   11af0:	e083c10c 	add	ip, r3, ip, lsl #2
   11af4:	e483e004 	str	lr, [r3], #4
   11af8:	e15c0003 	cmp	ip, r3
   11afc:	1afffffc 	bne	11af4 <memset+0x50>
   11b00:	e2022003 	and	r2, r2, #3
   11b04:	e3520000 	cmp	r2, #0
   11b08:	08bd8010 	popeq	{r4, pc}
   11b0c:	e6ef1071 	uxtb	r1, r1
   11b10:	e0832002 	add	r2, r3, r2
   11b14:	e4c31001 	strb	r1, [r3], #1
   11b18:	e1520003 	cmp	r2, r3
   11b1c:	1afffffc 	bne	11b14 <memset+0x70>
   11b20:	e8bd8010 	pop	{r4, pc}
   11b24:	e3520000 	cmp	r2, #0
   11b28:	e1a03000 	mov	r3, r0
   11b2c:	012fff1e 	bxeq	lr
   11b30:	e6ef1071 	uxtb	r1, r1
   11b34:	e0802002 	add	r2, r0, r2
   11b38:	e4c31001 	strb	r1, [r3], #1
   11b3c:	e1520003 	cmp	r2, r3
   11b40:	1afffffc 	bne	11b38 <memset+0x94>
   11b44:	e12fff1e 	bx	lr

00011b48 <strlen>:
   11b48:	e5d03000 	ldrb	r3, [r0]
   11b4c:	e3530000 	cmp	r3, #0
   11b50:	0a000006 	beq	11b70 <strlen+0x28>
   11b54:	e1a03000 	mov	r3, r0
   11b58:	e3a00000 	mov	r0, #0
   11b5c:	e5f32001 	ldrb	r2, [r3, #1]!
   11b60:	e2800001 	add	r0, r0, #1
   11b64:	e3520000 	cmp	r2, #0
   11b68:	1afffffb 	bne	11b5c <strlen+0x14>
   11b6c:	e12fff1e 	bx	lr
   11b70:	e1a00003 	mov	r0, r3
   11b74:	e12fff1e 	bx	lr

00011b78 <strnlen>:
   11b78:	e3510000 	cmp	r1, #0
   11b7c:	0a000010 	beq	11bc4 <strnlen+0x4c>
   11b80:	e5d03000 	ldrb	r3, [r0]
   11b84:	e3530000 	cmp	r3, #0
   11b88:	0a00000f 	beq	11bcc <strnlen+0x54>
   11b8c:	e0801001 	add	r1, r0, r1
   11b90:	e2803001 	add	r3, r0, #1
   11b94:	ea000004 	b	11bac <strnlen+0x34>
   11b98:	e5d32000 	ldrb	r2, [r3]
   11b9c:	e283c001 	add	ip, r3, #1
   11ba0:	e3520000 	cmp	r2, #0
   11ba4:	0a000004 	beq	11bbc <strnlen+0x44>
   11ba8:	e1a0300c 	mov	r3, ip
   11bac:	e1510003 	cmp	r1, r3
   11bb0:	1afffff8 	bne	11b98 <strnlen+0x20>
   11bb4:	e0410000 	sub	r0, r1, r0
   11bb8:	e12fff1e 	bx	lr
   11bbc:	e0430000 	sub	r0, r3, r0
   11bc0:	e12fff1e 	bx	lr
   11bc4:	e1a00001 	mov	r0, r1
   11bc8:	e12fff1e 	bx	lr
   11bcc:	e1a00003 	mov	r0, r3
   11bd0:	e12fff1e 	bx	lr

00011bd4 <__aeabi_drsub>:
   11bd4:	f081 4100 	eor.w	r1, r1, #2147483648	; 0x80000000
   11bd8:	e002      	b.n	11be0 <__adddf3>
   11bda:	bf00      	nop

00011bdc <__aeabi_dsub>:
   11bdc:	f083 4300 	eor.w	r3, r3, #2147483648	; 0x80000000

00011be0 <__adddf3>:
   11be0:	b530      	push	{r4, r5, lr}
   11be2:	ea4f 0441 	mov.w	r4, r1, lsl #1
   11be6:	ea4f 0543 	mov.w	r5, r3, lsl #1
   11bea:	ea94 0f05 	teq	r4, r5
   11bee:	bf08      	it	eq
   11bf0:	ea90 0f02 	teqeq	r0, r2
   11bf4:	bf1f      	itttt	ne
   11bf6:	ea54 0c00 	orrsne.w	ip, r4, r0
   11bfa:	ea55 0c02 	orrsne.w	ip, r5, r2
   11bfe:	ea7f 5c64 	mvnsne.w	ip, r4, asr #21
   11c02:	ea7f 5c65 	mvnsne.w	ip, r5, asr #21
   11c06:	f000 80e2 	beq.w	11dce <__adddf3+0x1ee>
   11c0a:	ea4f 5454 	mov.w	r4, r4, lsr #21
   11c0e:	ebd4 5555 	rsbs	r5, r4, r5, lsr #21
   11c12:	bfb8      	it	lt
   11c14:	426d      	neglt	r5, r5
   11c16:	dd0c      	ble.n	11c32 <__adddf3+0x52>
   11c18:	442c      	add	r4, r5
   11c1a:	ea80 0202 	eor.w	r2, r0, r2
   11c1e:	ea81 0303 	eor.w	r3, r1, r3
   11c22:	ea82 0000 	eor.w	r0, r2, r0
   11c26:	ea83 0101 	eor.w	r1, r3, r1
   11c2a:	ea80 0202 	eor.w	r2, r0, r2
   11c2e:	ea81 0303 	eor.w	r3, r1, r3
   11c32:	2d36      	cmp	r5, #54	; 0x36
   11c34:	bf88      	it	hi
   11c36:	bd30      	pophi	{r4, r5, pc}
   11c38:	f011 4f00 	tst.w	r1, #2147483648	; 0x80000000
   11c3c:	ea4f 3101 	mov.w	r1, r1, lsl #12
   11c40:	f44f 1c80 	mov.w	ip, #1048576	; 0x100000
   11c44:	ea4c 3111 	orr.w	r1, ip, r1, lsr #12
   11c48:	d002      	beq.n	11c50 <__adddf3+0x70>
   11c4a:	4240      	negs	r0, r0
   11c4c:	eb61 0141 	sbc.w	r1, r1, r1, lsl #1
   11c50:	f013 4f00 	tst.w	r3, #2147483648	; 0x80000000
   11c54:	ea4f 3303 	mov.w	r3, r3, lsl #12
   11c58:	ea4c 3313 	orr.w	r3, ip, r3, lsr #12
   11c5c:	d002      	beq.n	11c64 <__adddf3+0x84>
   11c5e:	4252      	negs	r2, r2
   11c60:	eb63 0343 	sbc.w	r3, r3, r3, lsl #1
   11c64:	ea94 0f05 	teq	r4, r5
   11c68:	f000 80a7 	beq.w	11dba <__adddf3+0x1da>
   11c6c:	f1a4 0401 	sub.w	r4, r4, #1
   11c70:	f1d5 0e20 	rsbs	lr, r5, #32
   11c74:	db0d      	blt.n	11c92 <__adddf3+0xb2>
   11c76:	fa02 fc0e 	lsl.w	ip, r2, lr
   11c7a:	fa22 f205 	lsr.w	r2, r2, r5
   11c7e:	1880      	adds	r0, r0, r2
   11c80:	f141 0100 	adc.w	r1, r1, #0
   11c84:	fa03 f20e 	lsl.w	r2, r3, lr
   11c88:	1880      	adds	r0, r0, r2
   11c8a:	fa43 f305 	asr.w	r3, r3, r5
   11c8e:	4159      	adcs	r1, r3
   11c90:	e00e      	b.n	11cb0 <__adddf3+0xd0>
   11c92:	f1a5 0520 	sub.w	r5, r5, #32
   11c96:	f10e 0e20 	add.w	lr, lr, #32
   11c9a:	2a01      	cmp	r2, #1
   11c9c:	fa03 fc0e 	lsl.w	ip, r3, lr
   11ca0:	bf28      	it	cs
   11ca2:	f04c 0c02 	orrcs.w	ip, ip, #2
   11ca6:	fa43 f305 	asr.w	r3, r3, r5
   11caa:	18c0      	adds	r0, r0, r3
   11cac:	eb51 71e3 	adcs.w	r1, r1, r3, asr #31
   11cb0:	f001 4500 	and.w	r5, r1, #2147483648	; 0x80000000
   11cb4:	d507      	bpl.n	11cc6 <__adddf3+0xe6>
   11cb6:	f04f 0e00 	mov.w	lr, #0
   11cba:	f1dc 0c00 	rsbs	ip, ip, #0
   11cbe:	eb7e 0000 	sbcs.w	r0, lr, r0
   11cc2:	eb6e 0101 	sbc.w	r1, lr, r1
   11cc6:	f5b1 1f80 	cmp.w	r1, #1048576	; 0x100000
   11cca:	d31b      	bcc.n	11d04 <__adddf3+0x124>
   11ccc:	f5b1 1f00 	cmp.w	r1, #2097152	; 0x200000
   11cd0:	d30c      	bcc.n	11cec <__adddf3+0x10c>
   11cd2:	0849      	lsrs	r1, r1, #1
   11cd4:	ea5f 0030 	movs.w	r0, r0, rrx
   11cd8:	ea4f 0c3c 	mov.w	ip, ip, rrx
   11cdc:	f104 0401 	add.w	r4, r4, #1
   11ce0:	ea4f 5244 	mov.w	r2, r4, lsl #21
   11ce4:	f512 0f80 	cmn.w	r2, #4194304	; 0x400000
   11ce8:	f080 809a 	bcs.w	11e20 <__adddf3+0x240>
   11cec:	f1bc 4f00 	cmp.w	ip, #2147483648	; 0x80000000
   11cf0:	bf08      	it	eq
   11cf2:	ea5f 0c50 	movseq.w	ip, r0, lsr #1
   11cf6:	f150 0000 	adcs.w	r0, r0, #0
   11cfa:	eb41 5104 	adc.w	r1, r1, r4, lsl #20
   11cfe:	ea41 0105 	orr.w	r1, r1, r5
   11d02:	bd30      	pop	{r4, r5, pc}
   11d04:	ea5f 0c4c 	movs.w	ip, ip, lsl #1
   11d08:	4140      	adcs	r0, r0
   11d0a:	eb41 0101 	adc.w	r1, r1, r1
   11d0e:	f411 1f80 	tst.w	r1, #1048576	; 0x100000
   11d12:	f1a4 0401 	sub.w	r4, r4, #1
   11d16:	d1e9      	bne.n	11cec <__adddf3+0x10c>
   11d18:	f091 0f00 	teq	r1, #0
   11d1c:	bf04      	itt	eq
   11d1e:	4601      	moveq	r1, r0
   11d20:	2000      	moveq	r0, #0
   11d22:	fab1 f381 	clz	r3, r1
   11d26:	bf08      	it	eq
   11d28:	3320      	addeq	r3, #32
   11d2a:	f1a3 030b 	sub.w	r3, r3, #11
   11d2e:	f1b3 0220 	subs.w	r2, r3, #32
   11d32:	da0c      	bge.n	11d4e <__adddf3+0x16e>
   11d34:	320c      	adds	r2, #12
   11d36:	dd08      	ble.n	11d4a <__adddf3+0x16a>
   11d38:	f102 0c14 	add.w	ip, r2, #20
   11d3c:	f1c2 020c 	rsb	r2, r2, #12
   11d40:	fa01 f00c 	lsl.w	r0, r1, ip
   11d44:	fa21 f102 	lsr.w	r1, r1, r2
   11d48:	e00c      	b.n	11d64 <__adddf3+0x184>
   11d4a:	f102 0214 	add.w	r2, r2, #20
   11d4e:	bfd8      	it	le
   11d50:	f1c2 0c20 	rsble	ip, r2, #32
   11d54:	fa01 f102 	lsl.w	r1, r1, r2
   11d58:	fa20 fc0c 	lsr.w	ip, r0, ip
   11d5c:	bfdc      	itt	le
   11d5e:	ea41 010c 	orrle.w	r1, r1, ip
   11d62:	4090      	lslle	r0, r2
   11d64:	1ae4      	subs	r4, r4, r3
   11d66:	bfa2      	ittt	ge
   11d68:	eb01 5104 	addge.w	r1, r1, r4, lsl #20
   11d6c:	4329      	orrge	r1, r5
   11d6e:	bd30      	popge	{r4, r5, pc}
   11d70:	ea6f 0404 	mvn.w	r4, r4
   11d74:	3c1f      	subs	r4, #31
   11d76:	da1c      	bge.n	11db2 <__adddf3+0x1d2>
   11d78:	340c      	adds	r4, #12
   11d7a:	dc0e      	bgt.n	11d9a <__adddf3+0x1ba>
   11d7c:	f104 0414 	add.w	r4, r4, #20
   11d80:	f1c4 0220 	rsb	r2, r4, #32
   11d84:	fa20 f004 	lsr.w	r0, r0, r4
   11d88:	fa01 f302 	lsl.w	r3, r1, r2
   11d8c:	ea40 0003 	orr.w	r0, r0, r3
   11d90:	fa21 f304 	lsr.w	r3, r1, r4
   11d94:	ea45 0103 	orr.w	r1, r5, r3
   11d98:	bd30      	pop	{r4, r5, pc}
   11d9a:	f1c4 040c 	rsb	r4, r4, #12
   11d9e:	f1c4 0220 	rsb	r2, r4, #32
   11da2:	fa20 f002 	lsr.w	r0, r0, r2
   11da6:	fa01 f304 	lsl.w	r3, r1, r4
   11daa:	ea40 0003 	orr.w	r0, r0, r3
   11dae:	4629      	mov	r1, r5
   11db0:	bd30      	pop	{r4, r5, pc}
   11db2:	fa21 f004 	lsr.w	r0, r1, r4
   11db6:	4629      	mov	r1, r5
   11db8:	bd30      	pop	{r4, r5, pc}
   11dba:	f094 0f00 	teq	r4, #0
   11dbe:	f483 1380 	eor.w	r3, r3, #1048576	; 0x100000
   11dc2:	bf06      	itte	eq
   11dc4:	f481 1180 	eoreq.w	r1, r1, #1048576	; 0x100000
   11dc8:	3401      	addeq	r4, #1
   11dca:	3d01      	subne	r5, #1
   11dcc:	e74e      	b.n	11c6c <__adddf3+0x8c>
   11dce:	ea7f 5c64 	mvns.w	ip, r4, asr #21
   11dd2:	bf18      	it	ne
   11dd4:	ea7f 5c65 	mvnsne.w	ip, r5, asr #21
   11dd8:	d029      	beq.n	11e2e <__adddf3+0x24e>
   11dda:	ea94 0f05 	teq	r4, r5
   11dde:	bf08      	it	eq
   11de0:	ea90 0f02 	teqeq	r0, r2
   11de4:	d005      	beq.n	11df2 <__adddf3+0x212>
   11de6:	ea54 0c00 	orrs.w	ip, r4, r0
   11dea:	bf04      	itt	eq
   11dec:	4619      	moveq	r1, r3
   11dee:	4610      	moveq	r0, r2
   11df0:	bd30      	pop	{r4, r5, pc}
   11df2:	ea91 0f03 	teq	r1, r3
   11df6:	bf1e      	ittt	ne
   11df8:	2100      	movne	r1, #0
   11dfa:	2000      	movne	r0, #0
   11dfc:	bd30      	popne	{r4, r5, pc}
   11dfe:	ea5f 5c54 	movs.w	ip, r4, lsr #21
   11e02:	d105      	bne.n	11e10 <__adddf3+0x230>
   11e04:	0040      	lsls	r0, r0, #1
   11e06:	4149      	adcs	r1, r1
   11e08:	bf28      	it	cs
   11e0a:	f041 4100 	orrcs.w	r1, r1, #2147483648	; 0x80000000
   11e0e:	bd30      	pop	{r4, r5, pc}
   11e10:	f514 0480 	adds.w	r4, r4, #4194304	; 0x400000
   11e14:	bf3c      	itt	cc
   11e16:	f501 1180 	addcc.w	r1, r1, #1048576	; 0x100000
   11e1a:	bd30      	popcc	{r4, r5, pc}
   11e1c:	f001 4500 	and.w	r5, r1, #2147483648	; 0x80000000
   11e20:	f045 41fe 	orr.w	r1, r5, #2130706432	; 0x7f000000
   11e24:	f441 0170 	orr.w	r1, r1, #15728640	; 0xf00000
   11e28:	f04f 0000 	mov.w	r0, #0
   11e2c:	bd30      	pop	{r4, r5, pc}
   11e2e:	ea7f 5c64 	mvns.w	ip, r4, asr #21
   11e32:	bf1a      	itte	ne
   11e34:	4619      	movne	r1, r3
   11e36:	4610      	movne	r0, r2
   11e38:	ea7f 5c65 	mvnseq.w	ip, r5, asr #21
   11e3c:	bf1c      	itt	ne
   11e3e:	460b      	movne	r3, r1
   11e40:	4602      	movne	r2, r0
   11e42:	ea50 3401 	orrs.w	r4, r0, r1, lsl #12
   11e46:	bf06      	itte	eq
   11e48:	ea52 3503 	orrseq.w	r5, r2, r3, lsl #12
   11e4c:	ea91 0f03 	teqeq	r1, r3
   11e50:	f441 2100 	orrne.w	r1, r1, #524288	; 0x80000
   11e54:	bd30      	pop	{r4, r5, pc}
   11e56:	bf00      	nop

00011e58 <__aeabi_ui2d>:
   11e58:	f090 0f00 	teq	r0, #0
   11e5c:	bf04      	itt	eq
   11e5e:	2100      	moveq	r1, #0
   11e60:	4770      	bxeq	lr
   11e62:	b530      	push	{r4, r5, lr}
   11e64:	f44f 6480 	mov.w	r4, #1024	; 0x400
   11e68:	f104 0432 	add.w	r4, r4, #50	; 0x32
   11e6c:	f04f 0500 	mov.w	r5, #0
   11e70:	f04f 0100 	mov.w	r1, #0
   11e74:	e750      	b.n	11d18 <__adddf3+0x138>
   11e76:	bf00      	nop

00011e78 <__aeabi_i2d>:
   11e78:	f090 0f00 	teq	r0, #0
   11e7c:	bf04      	itt	eq
   11e7e:	2100      	moveq	r1, #0
   11e80:	4770      	bxeq	lr
   11e82:	b530      	push	{r4, r5, lr}
   11e84:	f44f 6480 	mov.w	r4, #1024	; 0x400
   11e88:	f104 0432 	add.w	r4, r4, #50	; 0x32
   11e8c:	f010 4500 	ands.w	r5, r0, #2147483648	; 0x80000000
   11e90:	bf48      	it	mi
   11e92:	4240      	negmi	r0, r0
   11e94:	f04f 0100 	mov.w	r1, #0
   11e98:	e73e      	b.n	11d18 <__adddf3+0x138>
   11e9a:	bf00      	nop

00011e9c <__aeabi_f2d>:
   11e9c:	0042      	lsls	r2, r0, #1
   11e9e:	ea4f 01e2 	mov.w	r1, r2, asr #3
   11ea2:	ea4f 0131 	mov.w	r1, r1, rrx
   11ea6:	ea4f 7002 	mov.w	r0, r2, lsl #28
   11eaa:	bf1f      	itttt	ne
   11eac:	f012 437f 	andsne.w	r3, r2, #4278190080	; 0xff000000
   11eb0:	f093 4f7f 	teqne	r3, #4278190080	; 0xff000000
   11eb4:	f081 5160 	eorne.w	r1, r1, #939524096	; 0x38000000
   11eb8:	4770      	bxne	lr
   11eba:	f032 427f 	bics.w	r2, r2, #4278190080	; 0xff000000
   11ebe:	bf08      	it	eq
   11ec0:	4770      	bxeq	lr
   11ec2:	f093 4f7f 	teq	r3, #4278190080	; 0xff000000
   11ec6:	bf04      	itt	eq
   11ec8:	f441 2100 	orreq.w	r1, r1, #524288	; 0x80000
   11ecc:	4770      	bxeq	lr
   11ece:	b530      	push	{r4, r5, lr}
   11ed0:	f44f 7460 	mov.w	r4, #896	; 0x380
   11ed4:	f001 4500 	and.w	r5, r1, #2147483648	; 0x80000000
   11ed8:	f021 4100 	bic.w	r1, r1, #2147483648	; 0x80000000
   11edc:	e71c      	b.n	11d18 <__adddf3+0x138>
   11ede:	bf00      	nop

00011ee0 <__aeabi_ul2d>:
   11ee0:	ea50 0201 	orrs.w	r2, r0, r1
   11ee4:	bf08      	it	eq
   11ee6:	4770      	bxeq	lr
   11ee8:	b530      	push	{r4, r5, lr}
   11eea:	f04f 0500 	mov.w	r5, #0
   11eee:	e00a      	b.n	11f06 <__aeabi_l2d+0x16>

00011ef0 <__aeabi_l2d>:
   11ef0:	ea50 0201 	orrs.w	r2, r0, r1
   11ef4:	bf08      	it	eq
   11ef6:	4770      	bxeq	lr
   11ef8:	b530      	push	{r4, r5, lr}
   11efa:	f011 4500 	ands.w	r5, r1, #2147483648	; 0x80000000
   11efe:	d502      	bpl.n	11f06 <__aeabi_l2d+0x16>
   11f00:	4240      	negs	r0, r0
   11f02:	eb61 0141 	sbc.w	r1, r1, r1, lsl #1
   11f06:	f44f 6480 	mov.w	r4, #1024	; 0x400
   11f0a:	f104 0432 	add.w	r4, r4, #50	; 0x32
   11f0e:	ea5f 5c91 	movs.w	ip, r1, lsr #22
   11f12:	f43f aed8 	beq.w	11cc6 <__adddf3+0xe6>
   11f16:	f04f 0203 	mov.w	r2, #3
   11f1a:	ea5f 0cdc 	movs.w	ip, ip, lsr #3
   11f1e:	bf18      	it	ne
   11f20:	3203      	addne	r2, #3
   11f22:	ea5f 0cdc 	movs.w	ip, ip, lsr #3
   11f26:	bf18      	it	ne
   11f28:	3203      	addne	r2, #3
   11f2a:	eb02 02dc 	add.w	r2, r2, ip, lsr #3
   11f2e:	f1c2 0320 	rsb	r3, r2, #32
   11f32:	fa00 fc03 	lsl.w	ip, r0, r3
   11f36:	fa20 f002 	lsr.w	r0, r0, r2
   11f3a:	fa01 fe03 	lsl.w	lr, r1, r3
   11f3e:	ea40 000e 	orr.w	r0, r0, lr
   11f42:	fa21 f102 	lsr.w	r1, r1, r2
   11f46:	4414      	add	r4, r2
   11f48:	e6bd      	b.n	11cc6 <__adddf3+0xe6>
   11f4a:	bf00      	nop

00011f4c <__aeabi_uldivmod>:
   11f4c:	b953      	cbnz	r3, 11f64 <__aeabi_uldivmod+0x18>
   11f4e:	b94a      	cbnz	r2, 11f64 <__aeabi_uldivmod+0x18>
   11f50:	2900      	cmp	r1, #0
   11f52:	bf08      	it	eq
   11f54:	2800      	cmpeq	r0, #0
   11f56:	bf1c      	itt	ne
   11f58:	f04f 31ff 	movne.w	r1, #4294967295	; 0xffffffff
   11f5c:	f04f 30ff 	movne.w	r0, #4294967295	; 0xffffffff
   11f60:	f000 b80c 	b.w	11f7c <__aeabi_idiv0>
   11f64:	f1ad 0c08 	sub.w	ip, sp, #8
   11f68:	e96d ce04 	strd	ip, lr, [sp, #-16]!
   11f6c:	f000 f80c 	bl	11f88 <__udivmoddi4>
   11f70:	f8dd e004 	ldr.w	lr, [sp, #4]
   11f74:	e9dd 2302 	ldrd	r2, r3, [sp, #8]
   11f78:	b004      	add	sp, #16
   11f7a:	4770      	bx	lr

00011f7c <__aeabi_idiv0>:
   11f7c:	b502      	push	{r1, lr}
   11f7e:	f04f 0008 	mov.w	r0, #8
   11f82:	f7ff ecc6 	blx	11910 <raise>
   11f86:	bd02      	pop	{r1, pc}

00011f88 <__udivmoddi4>:
   11f88:	e92d 47f0 	stmdb	sp!, {r4, r5, r6, r7, r8, r9, sl, lr}
   11f8c:	460d      	mov	r5, r1
   11f8e:	429d      	cmp	r5, r3
   11f90:	4604      	mov	r4, r0
   11f92:	bf08      	it	eq
   11f94:	4290      	cmpeq	r0, r2
   11f96:	4611      	mov	r1, r2
   11f98:	f8dd e020 	ldr.w	lr, [sp, #32]
   11f9c:	bf3c      	itt	cc
   11f9e:	2000      	movcc	r0, #0
   11fa0:	4601      	movcc	r1, r0
   11fa2:	d368      	bcc.n	12076 <__udivmoddi4+0xee>
   11fa4:	461a      	mov	r2, r3
   11fa6:	fab3 fc83 	clz	ip, r3
   11faa:	2b00      	cmp	r3, #0
   11fac:	d06e      	beq.n	1208c <__udivmoddi4+0x104>
   11fae:	fab5 f085 	clz	r0, r5
   11fb2:	2d00      	cmp	r5, #0
   11fb4:	d066      	beq.n	12084 <__udivmoddi4+0xfc>
   11fb6:	ebac 0c00 	sub.w	ip, ip, r0
   11fba:	f1ac 0820 	sub.w	r8, ip, #32
   11fbe:	fa02 f70c 	lsl.w	r7, r2, ip
   11fc2:	fa01 f308 	lsl.w	r3, r1, r8
   11fc6:	f1cc 0920 	rsb	r9, ip, #32
   11fca:	431f      	orrs	r7, r3
   11fcc:	fa21 f309 	lsr.w	r3, r1, r9
   11fd0:	431f      	orrs	r7, r3
   11fd2:	fa01 f60c 	lsl.w	r6, r1, ip
   11fd6:	42bd      	cmp	r5, r7
   11fd8:	bf08      	it	eq
   11fda:	42b4      	cmpeq	r4, r6
   11fdc:	bf3c      	itt	cc
   11fde:	2000      	movcc	r0, #0
   11fe0:	4601      	movcc	r1, r0
   11fe2:	d30a      	bcc.n	11ffa <__udivmoddi4+0x72>
   11fe4:	2001      	movs	r0, #1
   11fe6:	1ba4      	subs	r4, r4, r6
   11fe8:	fa00 f108 	lsl.w	r1, r0, r8
   11fec:	fa20 f309 	lsr.w	r3, r0, r9
   11ff0:	eb65 0507 	sbc.w	r5, r5, r7
   11ff4:	4319      	orrs	r1, r3
   11ff6:	fa00 f00c 	lsl.w	r0, r0, ip
   11ffa:	f1bc 0f00 	cmp.w	ip, #0
   11ffe:	d03a      	beq.n	12076 <__udivmoddi4+0xee>
   12000:	087f      	lsrs	r7, r7, #1
   12002:	ea4f 0636 	mov.w	r6, r6, rrx
   12006:	4662      	mov	r2, ip
   12008:	e00a      	b.n	12020 <__udivmoddi4+0x98>
   1200a:	1ba3      	subs	r3, r4, r6
   1200c:	eb65 0a07 	sbc.w	sl, r5, r7
   12010:	18db      	adds	r3, r3, r3
   12012:	eb4a 0a0a 	adc.w	sl, sl, sl
   12016:	1c5c      	adds	r4, r3, #1
   12018:	f14a 0500 	adc.w	r5, sl, #0
   1201c:	3a01      	subs	r2, #1
   1201e:	d007      	beq.n	12030 <__udivmoddi4+0xa8>
   12020:	42bd      	cmp	r5, r7
   12022:	bf08      	it	eq
   12024:	42b4      	cmpeq	r4, r6
   12026:	d2f0      	bcs.n	1200a <__udivmoddi4+0x82>
   12028:	1924      	adds	r4, r4, r4
   1202a:	416d      	adcs	r5, r5
   1202c:	3a01      	subs	r2, #1
   1202e:	d1f7      	bne.n	12020 <__udivmoddi4+0x98>
   12030:	fa24 f30c 	lsr.w	r3, r4, ip
   12034:	fa05 f909 	lsl.w	r9, r5, r9
   12038:	fa25 f808 	lsr.w	r8, r5, r8
   1203c:	ea43 0309 	orr.w	r3, r3, r9
   12040:	1900      	adds	r0, r0, r4
   12042:	fa25 f70c 	lsr.w	r7, r5, ip
   12046:	ea43 0408 	orr.w	r4, r3, r8
   1204a:	f1ac 0620 	sub.w	r6, ip, #32
   1204e:	f1cc 0220 	rsb	r2, ip, #32
   12052:	fa07 f30c 	lsl.w	r3, r7, ip
   12056:	fa04 f606 	lsl.w	r6, r4, r6
   1205a:	fa04 fc0c 	lsl.w	ip, r4, ip
   1205e:	ea43 0306 	orr.w	r3, r3, r6
   12062:	fa24 f202 	lsr.w	r2, r4, r2
   12066:	eb45 0101 	adc.w	r1, r5, r1
   1206a:	4313      	orrs	r3, r2
   1206c:	ebb0 000c 	subs.w	r0, r0, ip
   12070:	463d      	mov	r5, r7
   12072:	eb61 0103 	sbc.w	r1, r1, r3
   12076:	f1be 0f00 	cmp.w	lr, #0
   1207a:	d001      	beq.n	12080 <__udivmoddi4+0xf8>
   1207c:	e9ce 4500 	strd	r4, r5, [lr]
   12080:	e8bd 87f0 	ldmia.w	sp!, {r4, r5, r6, r7, r8, r9, sl, pc}
   12084:	fab4 f084 	clz	r0, r4
   12088:	3020      	adds	r0, #32
   1208a:	e794      	b.n	11fb6 <__udivmoddi4+0x2e>
   1208c:	fab1 fc81 	clz	ip, r1
   12090:	fab5 f085 	clz	r0, r5
   12094:	f10c 0c20 	add.w	ip, ip, #32
   12098:	2d00      	cmp	r5, #0
   1209a:	d18c      	bne.n	11fb6 <__udivmoddi4+0x2e>
   1209c:	e7f2      	b.n	12084 <__udivmoddi4+0xfc>
   1209e:	bf00      	nop
