
t186ref/tegra/t186/release/bl31/bl31.elf:     file format elf64-littleaarch64
t186ref/tegra/t186/release/bl31/bl31.elf
architecture: aarch64, flags 0x00000112:
EXEC_P, HAS_SYMS, D_PAGED
start address 0x0000000030000000

Program Header:
    LOAD off    0x0000000000010000 vaddr 0x0000000030000000 paddr 0x0000000030000000 align 2**16
         filesz 0x0000000000014b90 memsz 0x0000000000036000 flags rwx
   STACK off    0x0000000000000000 vaddr 0x0000000000000000 paddr 0x0000000000000000 align 2**4
         filesz 0x0000000000000000 memsz 0x0000000000000000 flags rw-
private flags = 0:

Sections:
Idx Name          Size      VMA               LMA               File off  Algn
  0 .text         0000e000  0000000030000000  0000000030000000  00010000  2**11
                  CONTENTS, ALLOC, LOAD, READONLY, CODE
  1 .rodata       00004000  000000003000e000  000000003000e000  0001e000  2**3
                  CONTENTS, ALLOC, LOAD, DATA
  2 .data         00002b10  0000000030012000  0000000030012000  00022000  2**4
                  CONTENTS, ALLOC, LOAD, DATA
  3 .got          00000068  0000000030014b10  0000000030014b10  00024b10  2**3
                  CONTENTS, ALLOC, LOAD, DATA
  4 .got.plt      00000018  0000000030014b78  0000000030014b78  00024b78  2**3
                  CONTENTS, ALLOC, LOAD, DATA
  5 stacks        00002000  0000000030014bc0  0000000030014bc0  00024b90  2**6
                  ALLOC
  6 .bss          00005e80  0000000030016c00  0000000030016c00  00024b90  2**8
                  ALLOC
  7 xlat_table    00019000  000000003001d000  000000003001d000  00024b90  2**12
                  ALLOC
  8 .comment      00000030  0000000000000000  0000000000000000  00024b90  2**0
                  CONTENTS, READONLY
  9 .debug_frame  00001418  0000000000000000  0000000000000000  00024bc0  2**3
                  CONTENTS, READONLY, DEBUGGING
SYMBOL TABLE:
0000000030000000 l    d  .text	0000000000000000 .text
000000003000e000 l    d  .rodata	0000000000000000 .rodata
0000000030012000 l    d  .data	0000000000000000 .data
0000000030014b10 l    d  .got	0000000000000000 .got
0000000030014b78 l    d  .got.plt	0000000000000000 .got.plt
0000000030014bc0 l    d  stacks	0000000000000000 stacks
0000000030016c00 l    d  .bss	0000000000000000 .bss
000000003001d000 l    d  xlat_table	0000000000000000 xlat_table
0000000000000000 l    d  .comment	0000000000000000 .comment
0000000000000000 l    d  .debug_frame	0000000000000000 .debug_frame
0000000000000000 l    df *ABS*	0000000000000000 ./t186ref/tegra/t186/release/bl31/bl31_entrypoint.o
0000000000000000 l    df *ABS*	0000000000000000 delay_timer.c
0000000030016c00 l     O .bss	0000000000000008 ops
0000000000000000 l    df *ABS*	0000000000000000 profiler.c
0000000030016c08 l     O .bss	0000000000000008 cur
0000000030016c10 l     O .bss	0000000000000008 head
0000000030016c18 l     O .bss	0000000000000001 is_shmem_buf_mapped
0000000030016c20 l     O .bss	0000000000000008 shmem_base_addr
0000000030016c28 l     O .bss	0000000000000008 tail
0000000030016c30 l     O .bss	0000000000000004 tmr
0000000000000000 l    df *ABS*	0000000000000000 tegra_bl31_setup.c
0000000030016c38 l     O .bss	0000000000000058 bl32_image_ep_info
0000000030016c90 l     O .bss	0000000000000058 bl33_image_ep_info
0000000030012000 l     O .data	0000000000000038 plat_bl31_params_from_bl2
0000000000000000 l    df *ABS*	0000000000000000 tegra_common.c
0000000000000000 l    df *ABS*	0000000000000000 tegra_delay_timer.c
00000000300007d0 l     F .text	0000000000000014 tegra_timer_get_value
0000000030016ce8 l     O .bss	0000000000000010 tegra_timer_ops.2562
0000000000000000 l    df *ABS*	0000000000000000 tegra_fiq_glue.c
000000003000084c l     F .text	0000000000000090 tegra_fiq_interrupt_handler
0000000030016cf8 l     O .bss	0000000000000004 fiq_handler_active
0000000030016d00 l     O .bss	0000000000000080 fiq_state
0000000030016d80 l     O .bss	0000000000000008 ns_fiq_handler_addr
0000000000000000 l    df *ABS*	0000000000000000 tegra_platform.c
00000000300009b4 l     F .text	0000000000000070 tegra_get_platform
000000003000e2e5 l     O .rodata	0000000000000007 CSWTCH.8
000000003000e2ec l     O .rodata	0000000000000008 CSWTCH.9
0000000000000000 l    df *ABS*	0000000000000000 tegra_pm.c
0000000030012038 l     O .data	0000000000000078 tegra_plat_psci_ops
000000003000e2f4 l     O .rodata	0000000000000012 __func__.2750
0000000000000000 l    df *ABS*	0000000000000000 tegra_sip_calls.c
000000003000e350 l     O .rodata	0000000000000012 __func__.2520
0000000030010e48 l     O .rodata	0000000000000020 __svc_desc_tegra_sip_fast
0000000000000000 l    df *ABS*	0000000000000000 gic_v2.c
0000000000000000 l    df *ABS*	0000000000000000 intf.c
0000000030000f58 l     F .text	0000000000000014 tegra_bpmp_ivc_notify
0000000030000f6c l     F .text	0000000000000134 tegra_bpmp_ipc_send_req_atomic.constprop.0
0000000030016d88 l     O .bss	0000000000000028 ivc_ccplex_bpmp_channel
0000000030016db0 l     O .bss	0000000000000010 s_channel
000000003000e4ad l     O .rodata	000000000000001e __func__.1480
000000003000e4cb l     O .rodata	000000000000001f __func__.1527
000000003000e4ea l     O .rodata	0000000000000014 __func__.1538
000000003000e4fe l     O .rodata	000000000000001c __func__.1553
000000003000e51a l     O .rodata	000000000000001d __func__.1559
0000000000000000 l    df *ABS*	0000000000000000 ivc.c
00000000300012b0 l     F .text	000000000000002c ivc_advance_tx
00000000300012dc l     F .text	000000000000002c ivc_advance_rx
0000000030001308 l     F .text	0000000000000050 ivc_check_write
0000000030001358 l     F .text	0000000000000020 ivc_frame_pointer.part.4
0000000030001378 l     F .text	000000000000006c ivc_check_read
0000000000000000 l    df *ABS*	0000000000000000 gic.c
0000000030001754 l     F .text	0000000000000110 tegra_gic_pcpu_distif_init.constprop.1
0000000030016dc0 l     O .bss	0000000000000008 g_irq_sec_ptr
0000000030016dc8 l     O .bss	0000000000000004 g_num_irqs
0000000000000000 l    df *ABS*	0000000000000000 gpcdma.c
0000000030001bac l     F .text	0000000000000194 tegra_gpcdma_memcpy_priv
0000000030016dcc l     O .bss	0000000000000001 init_done
0000000000000000 l    df *ABS*	0000000000000000 memctrl_v2.c
0000000030001d58 l     F .text	0000000000000060 tegra_clear_videomem
0000000030016dd0 l     O .bss	0000000000000008 video_mem_base
0000000030016dd8 l     O .bss	0000000000000008 video_mem_size_mb
0000000000000000 l    df *ABS*	0000000000000000 smmu.c
0000000000000000 l    df *ABS*	0000000000000000 mce.c
000000003000232c l     F .text	0000000000000030 mce_get_curr_cpu_ari_base
000000003000235c l     F .text	0000000000000030 mce_get_curr_cpu_ops
000000003000238c l     F .text	000000000000002c mce_update_ccplex_gsc
00000000300120b0 l     O .data	0000000000000098 ari_mce_ops
0000000030012148 l     O .data	0000000000000098 nvg_mce_ops
00000000300121e0 l     O .data	0000000000000060 mce_cfg_table
000000003000ea93 l     O .rodata	0000000000000014 __func__.2968
0000000000000000 l    df *ABS*	0000000000000000 ari.c
00000000300028b0 l     F .text	0000000000000010 ari_clobber_response
00000000300028c0 l     F .text	00000000000000a0 ari_request_wait.constprop.1
000000003000ecbc l     O .rodata	0000000000000011 __func__.3093
000000003000eccd l     O .rodata	0000000000000013 __func__.3136
000000003000ece0 l     O .rodata	0000000000000013 __func__.3144
000000003000ecf3 l     O .rodata	0000000000000010 __func__.3153
000000003000ed03 l     O .rodata	0000000000000010 __func__.3209
0000000000000000 l    df *ABS*	0000000000000000 nvg.c
000000003000ee45 l     O .rodata	0000000000000011 __func__.3115
000000003000ee56 l     O .rodata	0000000000000013 __func__.3155
000000003000ee69 l     O .rodata	0000000000000010 __func__.3163
0000000000000000 l    df *ABS*	0000000000000000 se.c
000000003000ee79 l     O .rodata	000000000000001c __func__.2561
000000003000ee95 l     O .rodata	000000000000001a __func__.2610
0000000000000000 l    df *ABS*	0000000000000000 plat_memctrl.c
00000000300034e0 l     F .text	0000000000000458 tegra186_memctrl_reconfig_mss_clients
0000000030003938 l     F .text	00000000000000d0 tegra186_memctrl_set_overrides
0000000030012240 l     O .data	0000000000000040 tegra186_mc_settings
000000003000f2a8 l     O .rodata	0000000000000120 tegra186_streamid_override_regs
0000000030012280 l     O .data	00000000000006c0 tegra186_streamid_sec_cfgs
000000003000f3c8 l     O .rodata	00000000000000f8 tegra186_txn_override_cfgs
0000000000000000 l    df *ABS*	0000000000000000 plat_psci_handlers.c
0000000030016de0 l     O .bss	000000000000000c se_regs
0000000030016e00 l     O .bss	0000000000000200 tegra_percpu_data
000000003000f4c0 l     O .rodata	000000000000001f __func__.3380
000000003000f4df l     O .rodata	0000000000000018 __func__.3438
0000000000000000 l    df *ABS*	0000000000000000 plat_setup.c
000000003000f694 l     O .rodata	0000000000000018 tegra186_sec_irqs
000000003000f6ac l     O .rodata	0000000000000020 tegra186_uart_addresses
000000003000f6d0 l     O .rodata	00000000000002e0 tegra_mmap
000000003000f9b0 l     O .rodata	0000000000000004 tegra_power_domain_tree_desc
0000000000000000 l    df *ABS*	0000000000000000 plat_secondary.c
0000000000000000 l    df *ABS*	0000000000000000 plat_sip_calls.c
0000000000000000 l    df *ABS*	0000000000000000 plat_smmu.c
0000000030012940 l     O .data	00000000000020e0 tegra186_smmu_context
0000000000000000 l    df *ABS*	0000000000000000 bl31_main.c
0000000030017000 l     O .bss	0000000000000008 bl32_init
0000000030014a20 l     O .data	0000000000000004 next_image_type
0000000030014a28 l     O .data	0000000000000010 psci_args.2559
0000000000000000 l    df *ABS*	0000000000000000 interrupt_mgmt.c
0000000030004500 l     F .text	0000000000000084 set_scr_el3_from_rm
0000000030017008 l     O .bss	0000000000000048 intr_type_descs
0000000000000000 l    df *ABS*	0000000000000000 bl31_context_mgmt.c
0000000000000000 l    df *ABS*	0000000000000000 runtime_svc.c
0000000030017050 l     O .bss	0000000000000008 rt_svc_descs
0000000000000000 l    df *ABS*	0000000000000000 arm_arch_svc_setup.c
0000000030004964 l     F .text	00000000000000c8 arm_arch_svc_smc_handler
0000000030010e68 l     O .rodata	0000000000000020 __svc_desc_arm_arch_svc
0000000000000000 l    df *ABS*	0000000000000000 std_svc_setup.c
0000000030004ac4 l     F .text	0000000000000034 std_svc_setup
0000000030010e88 l     O .rodata	0000000000000020 __svc_desc_std_svc
0000000000000000 l    df *ABS*	0000000000000000 context_mgmt.c
0000000030004af8 l     F .text	0000000000000120 cm_init_context_common
0000000030004c18 l     F .text	0000000000000038 cm_set_next_context
0000000000000000 l    df *ABS*	0000000000000000 psci_off.c
0000000000000000 l    df *ABS*	0000000000000000 psci_on.c
0000000000000000 l    df *ABS*	0000000000000000 psci_suspend.c
0000000000000000 l    df *ABS*	0000000000000000 psci_common.c
0000000030017058 l     O .bss	0000000000000010 psci_req_local_pwr_states
0000000000000000 l    df *ABS*	0000000000000000 psci_main.c
0000000000000000 l    df *ABS*	0000000000000000 psci_setup.c
0000000030017070 l     O .bss	0000000000001180 psci_ns_context
0000000000000000 l    df *ABS*	0000000000000000 psci_system_off.c
0000000000000000 l    df *ABS*	0000000000000000 bakery_lock_normal.c
0000000000000000 l    df *ABS*	0000000000000000 trusty.c
0000000030006ba8 l     F .text	0000000000000148 trusty_context_switch
00000000300181f0 l     O .bss	0000000000003c00 trusty_cpu_ctx_array
0000000030006cf0 l     F .text	00000000000000e4 trusty_fiq_handler
0000000030006dd4 l     F .text	0000000000000030 trusty_cpu_resume
0000000030006e04 l     F .text	0000000000000004 trusty_cpu_suspend_finish_handler
0000000030006e08 l     F .text	0000000000000030 trusty_cpu_suspend
0000000030006e38 l     F .text	0000000000000004 trusty_cpu_suspend_handler
0000000030006e3c l     F .text	0000000000000018 trusty_cpu_off_handler
0000000030006e54 l     F .text	0000000000000090 trusty_setup
0000000030006ee4 l     F .text	0000000000000138 trusty_init
000000003000701c l     F .text	000000000000004c trusty_cpu_on_finish_handler
0000000030007068 l     F .text	0000000000000244 trusty_smc_handler
0000000030014a38 l     O .data	0000000000000048 trusty_pm
0000000030010584 l     O .rodata	0000000000000017 __func__.2572
000000003001059b l     O .rodata	0000000000000010 __func__.2586
0000000030010ea8 l     O .rodata	0000000000000020 __svc_desc_trusty_std
0000000030010ec8 l     O .rodata	0000000000000020 __svc_desc_trusty_fast
0000000000000000 l    df *ABS*	0000000000000000 bl_common.c
0000000000000000 l    df *ABS*	0000000000000000 tf_printf.c
00000000300072b0 l     F .text	0000000000000074 unsigned_num_print
0000000000000000 l    df *ABS*	0000000000000000 assert.c
0000000000000000 l    df *ABS*	0000000000000000 mem.c
0000000000000000 l    df *ABS*	0000000000000000 putchar.c
0000000000000000 l    df *ABS*	0000000000000000 strlen.c
0000000000000000 l    df *ABS*	0000000000000000 xlat_tables_arch.c
000000003001bdf0 l     O .bss	0000000000000008 tcr_ps_bits
000000003001079c l     O .rodata	0000000000000018 pa_range_bits_arr
0000000000000000 l    df *ABS*	0000000000000000 xlat_tables_common.c
000000003001be00 l     O .bss	0000000000000100 tf_base_xlat_table
000000003001bf00 l     O .bss	0000000000000380 tf_mmap
000000003001c280 l     O .bss	0000000000000064 xlat_tables_mapped_regions
0000000030014a80 l     O .data	0000000000000070 tf_xlat_ctx
000000003001d000 l     O xlat_table	0000000000019000 tf_xlat_tables
0000000000000000 l    df *ABS*	0000000000000000 xlat_tables_internal.c
0000000030007b0c l     F .text	0000000000000144 mmap_add_region_check
0000000030007c50 l     F .text	0000000000000054 xlat_table_get_index
0000000030007ca4 l     F .text	000000000000034c xlat_tables_map_region
0000000030007ff0 l     F .text	0000000000000228 xlat_tables_unmap_region
0000000000000000 l    df *ABS*	0000000000000000 ./t186ref/tegra/t186/release/bl31/console.o
0000000030014af0 l       .data	0000000000000000 console_base
000000003000884c l       .text	0000000000000000 init_fail
0000000000000000 l    df *ABS*	0000000000000000 ./t186ref/tegra/t186/release/bl31/tegra_globals.o
0000000000000000 l    df *ABS*	0000000000000000 ./t186ref/tegra/t186/release/bl31/tegra_helpers.o
0000000000000008 l       *ABS*	0000000000000000 CPU_MIDR_SIZE
0000000000000008 l       *ABS*	0000000000000000 CPU_EXTRA1_FUNC_SIZE
0000000000000008 l       *ABS*	0000000000000000 CPU_EXTRA2_FUNC_SIZE
0000000000000008 l       *ABS*	0000000000000000 CPU_RESET_FUNC_SIZE
0000000000000010 l       *ABS*	0000000000000000 CPU_PWR_DWN_OPS_SIZE
0000000000000000 l       *ABS*	0000000000000000 CPU_ERRATA_FUNC_SIZE
0000000000000000 l       *ABS*	0000000000000000 CPU_ERRATA_LOCK_SIZE
0000000000000000 l       *ABS*	0000000000000000 CPU_ERRATA_PRINTED_SIZE
0000000000000008 l       *ABS*	0000000000000000 CPU_REG_DUMP_SIZE
0000000000000000 l       *ABS*	0000000000000000 CPU_MIDR
0000000000000008 l       *ABS*	0000000000000000 CPU_RESET_FUNC
0000000000000010 l       *ABS*	0000000000000000 CPU_EXTRA1_FUNC
0000000000000018 l       *ABS*	0000000000000000 CPU_EXTRA2_FUNC
0000000000000020 l       *ABS*	0000000000000000 CPU_PWR_DWN_OPS
0000000000000030 l       *ABS*	0000000000000000 CPU_ERRATA_FUNC
0000000000000030 l       *ABS*	0000000000000000 CPU_ERRATA_LOCK
0000000000000030 l       *ABS*	0000000000000000 CPU_ERRATA_PRINTED
0000000000000030 l       *ABS*	0000000000000000 CPU_REG_DUMP
0000000000000038 l       *ABS*	0000000000000000 CPU_OPS_SIZE
000000003000895c l       .text	0000000000000000 _loop16
0000000030008974 l       .text	0000000000000000 _loop1
0000000030008988 l       .text	0000000000000000 _end
0000000030008a80 l       .text	0000000000000000 restore_oslock
0000000000000000 l    df *ABS*	0000000000000000 ./t186ref/tegra/t186/release/bl31/16550_console.o
0000000030008b0c l       .text	0000000000000000 init_fail
0000000030008b4c l       .text	0000000000000000 putc_error
0000000000000000 l    df *ABS*	0000000000000000 ./t186ref/tegra/t186/release/bl31/denver.o
0000000000000008 l       *ABS*	0000000000000000 CPU_MIDR_SIZE
0000000000000008 l       *ABS*	0000000000000000 CPU_EXTRA1_FUNC_SIZE
0000000000000008 l       *ABS*	0000000000000000 CPU_EXTRA2_FUNC_SIZE
0000000000000008 l       *ABS*	0000000000000000 CPU_RESET_FUNC_SIZE
0000000000000010 l       *ABS*	0000000000000000 CPU_PWR_DWN_OPS_SIZE
0000000000000000 l       *ABS*	0000000000000000 CPU_ERRATA_FUNC_SIZE
0000000000000000 l       *ABS*	0000000000000000 CPU_ERRATA_LOCK_SIZE
0000000000000000 l       *ABS*	0000000000000000 CPU_ERRATA_PRINTED_SIZE
0000000000000008 l       *ABS*	0000000000000000 CPU_REG_DUMP_SIZE
0000000000000000 l       *ABS*	0000000000000000 CPU_MIDR
0000000000000008 l       *ABS*	0000000000000000 CPU_RESET_FUNC
0000000000000010 l       *ABS*	0000000000000000 CPU_EXTRA1_FUNC
0000000000000018 l       *ABS*	0000000000000000 CPU_EXTRA2_FUNC
0000000000000020 l       *ABS*	0000000000000000 CPU_PWR_DWN_OPS
0000000000000030 l       *ABS*	0000000000000000 CPU_ERRATA_FUNC
0000000000000030 l       *ABS*	0000000000000000 CPU_ERRATA_LOCK
0000000000000030 l       *ABS*	0000000000000000 CPU_ERRATA_PRINTED
0000000000000030 l       *ABS*	0000000000000000 CPU_REG_DUMP
0000000000000038 l       *ABS*	0000000000000000 CPU_OPS_SIZE
000000003000c000 l     F .text	0000000000000000 workaround_bpflush_sync_exception_sp_el0
000000003000c080 l     F .text	0000000000000000 workaround_bpflush_irq_sp_el0
000000003000c100 l     F .text	0000000000000000 workaround_bpflush_fiq_sp_el0
000000003000c180 l     F .text	0000000000000000 workaround_bpflush_serror_sp_el0
000000003000c200 l     F .text	0000000000000000 workaround_bpflush_sync_exception_sp_elx
000000003000c280 l     F .text	0000000000000000 workaround_bpflush_irq_sp_elx
000000003000c300 l     F .text	0000000000000000 workaround_bpflush_fiq_sp_elx
000000003000c380 l     F .text	0000000000000000 workaround_bpflush_serror_sp_elx
000000003000c400 l     F .text	0000000000000000 workaround_bpflush_sync_exception_aarch64
000000003000c480 l     F .text	0000000000000000 workaround_bpflush_irq_aarch64
000000003000c500 l     F .text	0000000000000000 workaround_bpflush_fiq_aarch64
000000003000c580 l     F .text	0000000000000000 workaround_bpflush_serror_aarch64
000000003000c600 l     F .text	0000000000000000 workaround_bpflush_sync_exception_aarch32
000000003000c680 l     F .text	0000000000000000 workaround_bpflush_irq_aarch32
000000003000c700 l     F .text	0000000000000000 workaround_bpflush_fiq_aarch32
000000003000c780 l     F .text	0000000000000000 workaround_bpflush_serror_aarch32
0000000030008b5c l     F .text	0000000000000014 denver_disable_ext_debug
0000000030008b70 l     F .text	000000000000001c denver_enable_dco
0000000030008bc4 l     F .text	000000000000001c check_errata_cve_2017_5715
0000000030008be0 l     F .text	000000000000006c denver_reset_func
0000000030008c4c l     F .text	000000000000000c denver_core_pwr_dwn
0000000030008c58 l     F .text	0000000000000004 denver_cluster_pwr_dwn
0000000030010a9c l       .rodata	0000000000000000 denver_regs
0000000030008c5c l     F .text	000000000000000c denver_cpu_reg_dump
0000000000000000 l    df *ABS*	0000000000000000 ./t186ref/tegra/t186/release/bl31/cortex_a57.o
0000000000000008 l       *ABS*	0000000000000000 CPU_MIDR_SIZE
0000000000000008 l       *ABS*	0000000000000000 CPU_EXTRA1_FUNC_SIZE
0000000000000008 l       *ABS*	0000000000000000 CPU_EXTRA2_FUNC_SIZE
0000000000000008 l       *ABS*	0000000000000000 CPU_RESET_FUNC_SIZE
0000000000000010 l       *ABS*	0000000000000000 CPU_PWR_DWN_OPS_SIZE
0000000000000000 l       *ABS*	0000000000000000 CPU_ERRATA_FUNC_SIZE
0000000000000000 l       *ABS*	0000000000000000 CPU_ERRATA_LOCK_SIZE
0000000000000000 l       *ABS*	0000000000000000 CPU_ERRATA_PRINTED_SIZE
0000000000000008 l       *ABS*	0000000000000000 CPU_REG_DUMP_SIZE
0000000000000000 l       *ABS*	0000000000000000 CPU_MIDR
0000000000000008 l       *ABS*	0000000000000000 CPU_RESET_FUNC
0000000000000010 l       *ABS*	0000000000000000 CPU_EXTRA1_FUNC
0000000000000018 l       *ABS*	0000000000000000 CPU_EXTRA2_FUNC
0000000000000020 l       *ABS*	0000000000000000 CPU_PWR_DWN_OPS
0000000000000030 l       *ABS*	0000000000000000 CPU_ERRATA_FUNC
0000000000000030 l       *ABS*	0000000000000000 CPU_ERRATA_LOCK
0000000000000030 l       *ABS*	0000000000000000 CPU_ERRATA_PRINTED
0000000000000030 l       *ABS*	0000000000000000 CPU_REG_DUMP
0000000000000038 l       *ABS*	0000000000000000 CPU_OPS_SIZE
0000000030008c68 l     F .text	0000000000000014 cortex_a57_disable_dcache
0000000030008c7c l     F .text	0000000000000024 cortex_a57_disable_l2_prefetch
0000000030008ca0 l     F .text	0000000000000010 cortex_a57_disable_smp
0000000030008cb0 l     F .text	0000000000000014 cortex_a57_disable_ext_debug
0000000030008cc4 l     F .text	000000000000001c errata_a57_806969_wa
0000000030008ce0 l     F .text	0000000000000008 check_errata_806969
0000000030008ce8 l     F .text	000000000000001c errata_a57_813420_wa
0000000030008d04 l     F .text	0000000000000008 check_errata_813420
0000000030008d0c l     F .text	000000000000001c a57_disable_ldnp_overread
0000000030008d28 l     F .text	0000000000000008 check_errata_disable_ldnp_overread
0000000030008d30 l     F .text	000000000000001c errata_a57_826974_wa
0000000030008d4c l     F .text	0000000000000008 check_errata_826974
0000000030008d54 l     F .text	000000000000001c errata_a57_826977_wa
0000000030008d70 l     F .text	0000000000000008 check_errata_826977
0000000030008d78 l     F .text	0000000000000020 errata_a57_828024_wa
0000000030008d98 l     F .text	0000000000000008 check_errata_828024
0000000030008da0 l     F .text	000000000000001c errata_a57_829520_wa
0000000030008dbc l     F .text	0000000000000008 check_errata_829520
0000000030008dc4 l     F .text	000000000000001c errata_a57_833471_wa
0000000030008de0 l     F .text	0000000000000008 check_errata_833471
0000000030008de8 l     F .text	000000000000001c errata_a57_859972_wa
0000000030008e04 l     F .text	0000000000000008 check_errata_859972
0000000030008e0c l     F .text	0000000000000008 check_errata_cve_2017_5715
0000000030008e14 l     F .text	0000000000000090 cortex_a57_reset_func
0000000030008ea4 l     F .text	0000000000000020 cortex_a57_core_pwr_dwn
0000000030008ec4 l     F .text	000000000000002c cortex_a57_cluster_pwr_dwn
0000000030010aa7 l       .rodata	0000000000000000 cortex_a57_regs
0000000030008ef0 l     F .text	0000000000000014 cortex_a57_cpu_reg_dump
0000000000000000 l    df *ABS*	0000000000000000 ./t186ref/tegra/t186/release/bl31/nvg_helpers.o
0000000000000000 l    df *ABS*	0000000000000000 ./t186ref/tegra/t186/release/bl31/plat_trampoline.o
0000000030008f90 l       .text	0000000000000000 boot_cpu
0000000030008f64 l       .text	0000000000000000 m_loop16
0000000030008f7c l       .text	0000000000000000 m_loop1
0000000000000000 l    df *ABS*	0000000000000000 ./t186ref/tegra/t186/release/bl31/runtime_exceptions.o
000000003000b128 l       .text	0000000000000000 smc_handler32
000000003000b12c l       .text	0000000000000000 smc_handler64
000000003000ccd8 l       .text	0000000000000000 interrupt_exit_irq_aarch64
000000003000cd58 l       .text	0000000000000000 interrupt_exit_fiq_aarch64
000000003000ced8 l       .text	0000000000000000 interrupt_exit_irq_aarch32
000000003000cf58 l       .text	0000000000000000 interrupt_exit_fiq_aarch32
000000003000b128 l     F .text	0000000000000088 smc_handler
000000003000b194 l       .text	0000000000000000 smc_prohibited
000000003000b188 l       .text	0000000000000000 smc_unknown
000000003000b1a8 l       .text	0000000000000000 rt_svc_fw_critical_error
0000000000000000 l    df *ABS*	0000000000000000 ./t186ref/tegra/t186/release/bl31/crash_reporting.o
0000000030010ad0 l       .rodata	0000000000000000 gicc_regs
0000000030010af2 l       .rodata	0000000000000000 gicd_pend_reg
0000000030010b2e l       .rodata	0000000000000000 newline
0000000030010b30 l       .rodata	0000000000000000 spacer
0000000030010b36 l       .rodata	0000000000000000 print_spacer
0000000030010b3d l       .rodata	0000000000000000 gp_regs
0000000030010bac l       .rodata	0000000000000000 el3_sys_regs
0000000030010c09 l       .rodata	0000000000000000 non_el3_sys_regs
0000000030010d77 l       .rodata	0000000000000000 panic_msg
0000000030010d90 l       .rodata	0000000000000000 excpt_msg
0000000030010db6 l       .rodata	0000000000000000 intr_excpt_msg
000000003000b1b0 l     F .text	0000000000000008 print_newline
000000003000b1b8 l     F .text	000000000000004c size_controlled_print
000000003000b1c0 l       .text	0000000000000000 test_size_list
000000003000b1fc l       .text	0000000000000000 exit_size_print
000000003000b204 l     F .text	0000000000000018 str_in_crash_buf_print
000000003000b298 l     F .text	00000000000001bc do_crash_reporting
000000003000b454 l     F .text	0000000000000004 crash_panic
0000000000000000 l    df *ABS*	0000000000000000 ./t186ref/tegra/t186/release/bl31/platform_mp_stack.o
0000000030014bc0 l       stacks	0000000000000000 platform_normal_stacks
0000000000000006 l       *ABS*	0000000000000000 TZ_COUNT
0000000000000000 l    df *ABS*	0000000000000000 ./t186ref/tegra/t186/release/bl31/cpu_data.o
0000000000000000 l    df *ABS*	0000000000000000 ./t186ref/tegra/t186/release/bl31/cpu_helpers.o
0000000000000008 l       *ABS*	0000000000000000 CPU_MIDR_SIZE
0000000000000008 l       *ABS*	0000000000000000 CPU_EXTRA1_FUNC_SIZE
0000000000000008 l       *ABS*	0000000000000000 CPU_EXTRA2_FUNC_SIZE
0000000000000008 l       *ABS*	0000000000000000 CPU_RESET_FUNC_SIZE
0000000000000010 l       *ABS*	0000000000000000 CPU_PWR_DWN_OPS_SIZE
0000000000000000 l       *ABS*	0000000000000000 CPU_ERRATA_FUNC_SIZE
0000000000000000 l       *ABS*	0000000000000000 CPU_ERRATA_LOCK_SIZE
0000000000000000 l       *ABS*	0000000000000000 CPU_ERRATA_PRINTED_SIZE
0000000000000008 l       *ABS*	0000000000000000 CPU_REG_DUMP_SIZE
0000000000000000 l       *ABS*	0000000000000000 CPU_MIDR
0000000000000008 l       *ABS*	0000000000000000 CPU_RESET_FUNC
0000000000000010 l       *ABS*	0000000000000000 CPU_EXTRA1_FUNC
0000000000000018 l       *ABS*	0000000000000000 CPU_EXTRA2_FUNC
0000000000000020 l       *ABS*	0000000000000000 CPU_PWR_DWN_OPS
0000000000000030 l       *ABS*	0000000000000000 CPU_ERRATA_FUNC
0000000000000030 l       *ABS*	0000000000000000 CPU_ERRATA_LOCK
0000000000000030 l       *ABS*	0000000000000000 CPU_ERRATA_PRINTED
0000000000000030 l       *ABS*	0000000000000000 CPU_REG_DUMP
0000000000000038 l       *ABS*	0000000000000000 CPU_OPS_SIZE
000000003000b5a0 l       .text	0000000000000000 error_exit
0000000000000000 l    df *ABS*	0000000000000000 ./t186ref/tegra/t186/release/bl31/spinlock.o
000000003000b604 l       .text	0000000000000000 l1
000000003000b608 l       .text	0000000000000000 l2
0000000000000000 l    df *ABS*	0000000000000000 ./t186ref/tegra/t186/release/bl31/psci_helpers.o
0000000000000000 l    df *ABS*	0000000000000000 ./t186ref/tegra/t186/release/bl31/context.o
0000000000000000 l    df *ABS*	0000000000000000 ./t186ref/tegra/t186/release/bl31/trusty_helpers.o
0000000000000000 l    df *ABS*	0000000000000000 ./t186ref/tegra/t186/release/bl31/debug.o
0000000030010e05 l       .rodata	0000000000000000 assert_msg1
0000000030010e13 l       .rodata	0000000000000000 assert_msg2
000000003000b9a8 l       .text	0000000000000000 _assert_loop
000000003000b98c l       .text	0000000000000000 dec_print_loop
0000000030010e1a l       .rodata	0000000000000000 panic_msg
000000003000ba0c l       .text	0000000000000000 panic_common
000000003000ba30 l       .text	0000000000000000 _panic_handler
0000000000000000 l    df *ABS*	0000000000000000 ./t186ref/tegra/t186/release/bl31/cache_helpers.o
000000003000ba54 l       .text	0000000000000000 loop_civac
000000003000ba88 l       .text	0000000000000000 loop_cvac
000000003000babc l       .text	0000000000000000 loop_ivac
000000003000bad4 l     F .text	000000000000007c do_dcsw_op
000000003000bb4c l       .text	0000000000000000 exit
000000003000bb50 l       .text	0000000000000000 dcsw_loop_table
000000003000bae8 l       .text	0000000000000000 loop1
000000003000bb34 l       .text	0000000000000000 level_done
000000003000bb50 l       .text	0000000000000000 loop2_isw
000000003000bb54 l       .text	0000000000000000 loop3_isw
000000003000bb70 l       .text	0000000000000000 loop2_cisw
000000003000bb74 l       .text	0000000000000000 loop3_cisw
000000003000bb90 l       .text	0000000000000000 loop2_csw
000000003000bb94 l       .text	0000000000000000 loop3_csw
0000000000000000 l    df *ABS*	0000000000000000 ./t186ref/tegra/t186/release/bl31/misc_helpers.o
000000003000bbd8 l     F .text	0000000000000114 zeromem_dczva
000000003000bd04 l       .text	0000000000000000 m_loop16
000000003000bd1c l       .text	0000000000000000 m_loop1
000000003000bd30 l       .text	0000000000000000 m_end
0000000000000000 l    df *ABS*	0000000000000000 ./t186ref/tegra/t186/release/bl31/platform_helpers.o
0000000000000000 l    df *ABS*	0000000000000000 ./t186ref/tegra/t186/release/bl31/wa_cve_2017_5715_mmu.o
000000003000d000 l     F .text	0000000000000000 mmu_sync_exception_sp_el0
000000003000d080 l     F .text	0000000000000000 mmu_irq_sp_el0
000000003000d100 l     F .text	0000000000000000 mmu_fiq_sp_el0
000000003000d180 l     F .text	0000000000000000 mmu_serror_sp_el0
000000003000d200 l     F .text	0000000000000000 mmu_sync_exception_sp_elx
000000003000d280 l     F .text	0000000000000000 mmu_irq_sp_elx
000000003000d300 l     F .text	0000000000000000 mmu_fiq_sp_elx
000000003000d380 l     F .text	0000000000000000 mmu_serror_sp_elx
000000003000d400 l     F .text	0000000000000000 mmu_sync_exception_aarch64
000000003000d480 l     F .text	0000000000000000 mmu_irq_aarch64
000000003000d500 l     F .text	0000000000000000 mmu_fiq_aarch64
000000003000d580 l     F .text	0000000000000000 mmu_serror_aarch64
000000003000d600 l     F .text	0000000000000000 mmu_sync_exception_aarch32
000000003000d680 l     F .text	0000000000000000 mmu_irq_aarch32
000000003000d700 l     F .text	0000000000000000 mmu_fiq_aarch32
000000003000d780 l     F .text	0000000000000000 mmu_serror_aarch32
0000000000000000 l    df *ABS*	0000000000000000 
0000000000000000 l    df *ABS*	0000000000000000 
0000000030014b10 l     O .got	0000000000000000 _GLOBAL_OFFSET_TABLE_
0000000030002a74 g     F .text	0000000000000054 ari_read_cstate_stats
00000000300076f8 g     F .text	0000000000000028 putchar
0000000030001864 g     F .text	000000000000001c tegra_gic_cpuif_deactivate
0000000030004cac g     F .text	00000000000000e0 cm_prepare_el3_exit
0000000030001d48 g     F .text	0000000000000010 tegra_gpcdma_zeromem
000000003000783c g     F .text	0000000000000074 init_xlat_tables_arch
000000003000b0d8 g     F .text	0000000000000010 tegra186_get_smmu_ctx_offset
0000000030014b00 g       .data	0000000000000000 tegra_bl31_phys_base
0000000030000218 g     F .text	000000000000000c mdelay
0000000030001ad0 g     F .text	0000000000000068 plat_ic_get_pending_interrupt_type
0000000030004dc0 g     F .text	0000000000000034 cm_el1_sysregs_context_restore
0000000030006288 g     F .text	0000000000000028 psci_migrate_info_up_cpu
0000000030036000 g       xlat_table	0000000000000000 __BL31_END__
0000000030005f20 g     F .text	000000000000013c psci_cpu_suspend
0000000030004150 g     F .text	00000000000000ec plat_relocate_bl32_image
00000000000000a0 g       *ABS*	0000000000000000 __RT_SVC_DESCS_SIZE__
000000003000b4a8 g     F .text	0000000000000034 reset_handler
0000000030004e34 g     F .text	0000000000000044 cm_set_elr_spsr_el3
000000003000ce00 g     F .text	0000000000000000 sync_exception_aarch32
000000003000bbd0 g     F .text	0000000000000008 zeromem
000000003000e01e g     O .rodata	000000000000000f version_string
0000000030002b44 g     F .text	0000000000000060 ari_is_ccx_allowed
0000000030005c40 g     F .text	00000000000000fc psci_validate_entry_point
00000000300072ac g     F .text	0000000000000004 print_entry_point_info
000000003000470c g     F .text	0000000000000034 cm_get_context
000000003000b7e4 g     F .text	0000000000000048 save_gp_registers
0000000030008894 g     F .text	0000000000000010 tegra_set_console_base
00000000300083c8 g     F .text	0000000000000224 mmap_add_dynamic_region_ctx
0000000030008758 g     F .text	0000000000000004 xlat_tables_print
0000000030005bb4 g     F .text	000000000000006c psci_release_pwr_domain_locks
00000000300055b8 g     F .text	000000000000004c psci_validate_power_state
000000003000411c g     F .text	0000000000000034 plat_core_pos_by_mpidr
00000000300043b0 g     F .text	0000000000000008 plat_get_num_smmu_devices
0000000030012000 g       .rodata	0000000000000000 __RW_START__
0000000030007afc g     F .text	000000000000000c enable_mmu_el1
0000000030002154 g     F .text	0000000000000004 tegra_memctrl_clear_pending_interrupts
00000000300054e8 g     F .text	00000000000000d0 psci_cpu_suspend_finish
000000003000b8ac g     F .text	000000000000007c trusty_context_switch_helper
000000003000228c g     F .text	00000000000000a0 tegra_smmu_init
0000000030007a00 g     F .text	000000000000002c mmap_add_dynamic_region
000000003000b950 g     F .text	000000000000005c asm_assert
0000000030000414 g     F .text	0000000000000038 bl31_plat_get_next_image_ep_info
000000003000bbb0 g     F .text	0000000000000010 dcsw_op_level1
000000003000b9f4 g     F .text	0000000000000044 do_panic
000000003000123c g     F .text	0000000000000074 tegra_bpmp_ipc_disable_clock
00000000300040f4 g     F .text	0000000000000014 plat_get_bl31_params
00000000300076b0 g     F .text	0000000000000048 memmove
000000003001c2e4 g     O .bss	0000000000000080 rt_svc_descs_indices
0000000030000e14 g     F .text	0000000000000014 gicd_write_isenabler
0000000030000c50 g     F .text	0000000000000054 plat_setup_psci_ops
00000000300027d4 g     F .text	0000000000000008 mce_update_gsc_tzram
000000003000ca00 g     F .text	0000000000000000 sync_exception_sp_elx
000000003000c800 g     F .text	0000000000000000 sync_exception_sp_el0
0000000030003004 g     F .text	0000000000000068 nvg_update_cstate_info
000000003000b660 g     F .text	000000000000000c psci_power_down_wfi
0000000030001a30 g     F .text	0000000000000064 tegra_gic_setup
00000000300085ec g     F .text	000000000000016c mmap_remove_dynamic_region_ctx
00000000300030c8 g     F .text	0000000000000024 nvg_write_cstate_stats
0000000030006180 g     F .text	0000000000000038 psci_affinity_info
00000000300044f4 g     F .text	000000000000000c bl31_register_bl32_init
000000003000161c g     F .text	0000000000000038 tegra_ivc_total_queue_size
00000000300061b8 g     F .text	00000000000000b8 psci_migrate
0000000030001db8 g     F .text	00000000000000e8 tegra_memctrl_setup
00000000300027dc g     F .text	0000000000000030 mce_enter_ccplex_state
000000003000e000 g     O .rodata	000000000000001e build_message
00000000300003ac g     F .text	0000000000000064 boot_profiler_deinit
000000003000bcec g     F .text	0000000000000048 memcpy16
000000003000b888 g     F .text	0000000000000024 el3_exit
0000000030000b64 g     F .text	0000000000000014 tegra_pwr_domain_power_down_wfi
000000003000651c g     F .text	0000000000000398 psci_setup
0000000030004740 g     F .text	0000000000000034 cm_set_context
0000000030007a40 g     F .text	00000000000000bc init_xlat_tables
0000000030000498 g     F .text	0000000000000024 bl31_plat_runtime_setup
0000000030012000 g       .data	0000000000000000 __DATA_START__
000000003001c880 g     O .bss	000000000000000c psci_locks
00000000300013e4 g     F .text	000000000000004c tegra_ivc_read_get_next_frame
0000000030003f2c g     F .text	0000000000000010 tegra_soc_prepare_system_reset
0000000030000a98 g     F .text	000000000000001c tegra_platform_is_virt_dev_kit
0000000030001550 g     F .text	00000000000000c0 tegra_ivc_channel_notified
000000003000bd38  w    F .text	0000000000000004 plat_disable_acp
0000000030001430 g     F .text	0000000000000064 tegra_ivc_read_advance
0000000030005a5c g     F .text	0000000000000034 psci_find_target_suspend_lvl
0000000030002af0 g     F .text	0000000000000054 ari_enumeration_misc
00000000300027a0 g     F .text	0000000000000024 mce_update_reset_vector
00000000300088d0 g     F .text	0000000000000008 tegra_get_bl31_rodata_start
0000000030000eb0 g     F .text	000000000000000c gicd_set_isenabler
0000000030002e88 g     F .text	0000000000000028 ari_enter_ccplex_state
0000000030006500 g     F .text	000000000000001c psci_arch_setup
000000003000b5c8 g     F .text	0000000000000034 check_wa_cve_2017_5715
000000003000c000 g       .text	0000000000000000 workaround_bpflush_runtime_exceptions
000000003000439c g     F .text	0000000000000014 plat_get_smmu_ctx
0000000030008f18 g     F .text	0000000000000008 nvg_get_result
0000000030006924 g     F .text	0000000000000070 psci_system_reset
0000000030000ebc g     F .text	0000000000000064 gicd_set_ipriorityr
0000000030007690 g     F .text	0000000000000020 memcpy
00000000300014dc g     F .text	0000000000000060 tegra_ivc_write_advance
0000000030005c20 g     F .text	0000000000000020 psci_validate_mpidr
000000003000605c g     F .text	00000000000000ec psci_system_suspend
000000003000cb80 g     F .text	0000000000000000 serror_sp_elx
0000000030004c54 g     F .text	000000000000002c cm_init_context_by_index
0000000030000a7c g     F .text	000000000000001c tegra_platform_is_fpga
0000000030002ba4 g     F .text	0000000000000094 ari_is_sc7_allowed
00000000300088a4 g     F .text	000000000000000c tegra_get_bl31_phys_base
000000003000c880 g     F .text	0000000000000000 irq_sp_el0
000000003000bbd8 g     F .text	0000000000000114 zero_normalmem
0000000030005780 g     F .text	0000000000000048 psci_get_parent_pwr_domain_nodes
0000000030003c9c g     F .text	0000000000000118 tegra_soc_get_target_pwr_state
0000000030008b10 g     F .text	0000000000000044 console_core_putc
0000000030008850 g     F .text	0000000000000010 console_uninit
000000003000b82c g     F .text	0000000000000048 restore_gp_registers
00000000300068b4 g     F .text	0000000000000070 psci_system_off
00000000300088fc g     F .text	0000000000000008 platform_mem_init
0000000030002f48 g     F .text	0000000000000050 ari_misc_ccplex
00000000300088c8 g     F .text	0000000000000008 tegra_get_bl31_rw_end
0000000030003e0c g     F .text	00000000000000d4 tegra_soc_pwr_domain_on_finish
0000000030000e28 g     F .text	0000000000000014 gicd_write_icenabler
0000000030004108 g     F .text	0000000000000014 plat_get_bl31_plat_params
00000000300079c0 g     F .text	0000000000000040 mmap_add
00000000300000d8 g     F .text	000000000000008c bl31_warm_entrypoint
0000000030004040 g     F .text	000000000000000c plat_get_syscnt_freq2
000000003000bd3c  w    F .text	0000000000000008 plat_panic_handler
0000000030010e48 g       .rodata	0000000000000000 __RT_SVC_DESCS_START__
0000000030016bc0 g       stacks	0000000000000000 __STACKS_END__
000000003000ba6c g     F .text	0000000000000034 clean_dcache_range
000000003000b4dc g     F .text	0000000000000038 prepare_cpu_pwr_dwn
0000000030003a08 g     F .text	000000000000000c tegra_get_mc_settings
0000000030008f04 g     F .text	000000000000000c nvg_set_request_data
0000000030000a24 g     F .text	000000000000001c tegra_chipid_is_t186
0000000030000ca8 g     F .text	0000000000000130 tegra_sip_handler
0000000030005d3c g     F .text	00000000000000b8 psci_warmboot_entrypoint
00000000300023b8 g     F .text	00000000000003e8 mce_command_handler
000000003000b478  w    F .text	0000000000000010 plat_set_my_stack
0000000030002f98 g     F .text	000000000000006c nvg_enter_cstate
00000000300047b8 g     F .text	0000000000000048 cm_set_context_by_index
00000000300042b4 g     F .text	00000000000000e8 plat_sip_handler
0000000030010ee8 g       .rodata	0000000000000000 __RT_SVC_DESCS_END__
0000000030002150 g     F .text	0000000000000004 tegra_memctrl_disable_ahb_redirection
0000000030001b58 g     F .text	0000000000000054 plat_interrupt_type_to_line
00000000300005a8 g     F .text	0000000000000098 bl31_check_ns_address
000000003000b0c0 g       .text	0000000000000000 __tegra186_cpu_reset_handler_end
0000000030004d8c g     F .text	0000000000000034 cm_el1_sysregs_context_save
000000003000b9c4 g     F .text	0000000000000030 asm_print_hex
00000000300004bc g     F .text	00000000000000ec bl31_plat_arch_setup
0000000030004490 g     F .text	0000000000000064 bl31_main
0000000030008218 g     F .text	0000000000000004 print_mmap
000000003000b0e8 g     F .text	0000000000000040 tegra186_set_system_suspend_entry
000000003001c780 g     O .bss	0000000000000080 psci_cpu_pd_nodes
0000000000005e80 g       *ABS*	0000000000000000 __BSS_SIZE__
000000003000b9ac g     F .text	0000000000000018 asm_print_str
000000003000423c g     F .text	0000000000000008 plat_supports_system_suspend
0000000030008aa8 g     F .text	0000000000000068 console_core_init
0000000030000410 g     F .text	0000000000000004 bl31_plat_enable_mmu
0000000030008888 g     F .text	000000000000000c tegra_get_console_base
0000000030000c18 g     F .text	0000000000000010 tegra_system_reset
0000000030004c50 g     F .text	0000000000000004 cm_init
000000003000bd34  w    F .text	0000000000000004 plat_crash_console_flush
000000003000c800 g       .text	0000000000000000 runtime_exceptions
0000000030002e48 g     F .text	0000000000000040 ari_update_ccplex_gsc
0000000030004df4 g     F .text	0000000000000040 cm_set_elr_el3
00000000300009a0 g     F .text	0000000000000014 tegra_get_chipid_minor
000000003000883c g     F .text	0000000000000014 console_init
0000000030005e60 g     F .text	0000000000000058 psci_spd_migrate_info
000000003000b49c g     F .text	000000000000000c _cpu_data_by_index
0000000030005eb8 g     F .text	0000000000000004 psci_print_power_domain_map
0000000030000ca4 g     F .text	0000000000000004 plat_get_target_pwr_state
0000000030002018 g     F .text	0000000000000138 tegra_memctrl_videomem_setup
0000000030008860 g     F .text	000000000000000c console_putc
0000000030000e4c g     F .text	0000000000000014 gicd_write_icfgr
0000000030014b08 g       .data	0000000000000000 tegra_console_base
000000003000026c g     F .text	000000000000006c boot_profiler_init
0000000030002d78 g     F .text	0000000000000028 ari_roc_flush_cache
000000003000563c g     F .text	000000000000007c psci_is_last_on_cpu
0000000030008904 g     F .text	0000000000000018 plat_crash_console_init
0000000030001654 g     F .text	0000000000000100 tegra_ivc_init
000000003000ce80 g     F .text	0000000000000000 irq_aarch32
000000003000ba38 g     F .text	0000000000000034 flush_dcache_range
000000003000406c g     F .text	000000000000004c plat_early_platform_setup
0000000030008a9c g     F .text	000000000000000c tegra_memcpy16
0000000030000224 g     F .text	0000000000000048 timer_init
0000000030001a04 g     F .text	000000000000002c tegra_gic_pcpu_init
0000000030001880 g     F .text	0000000000000184 tegra_gic_init
00000000300029c8 g     F .text	0000000000000070 ari_update_cstate_info
0000000030008b8c g     F .text	0000000000000038 denver_disable_dco
0000000030000ae4 g     F .text	0000000000000048 tegra_cpu_standby
000000003000c980 g     F .text	0000000000000000 serror_sp_el0
0000000030000b2c g     F .text	0000000000000004 tegra_pwr_domain_on
000000003000b928 g     F .text	0000000000000028 trusty_init_context_stack
00000000300045dc g     F .text	0000000000000098 set_routing_model
000000003000306c g     F .text	0000000000000034 nvg_update_crossover_time
000000003000b21c g     F .text	0000000000000028 report_unhandled_exception
0000000030005288 g     F .text	00000000000000c8 psci_cpu_on_finish
0000000030006148 g     F .text	0000000000000038 psci_cpu_off
00000000300031d8 g     F .text	0000000000000038 nvg_cc3_ctrl
0000000030008940 g     F .text	0000000000000114 plat_reset_handler
000000003000b568 g     F .text	000000000000003c get_cpu_ops_ptr
0000000030000000 g     F .text	00000000000000c4 bl31_entrypoint
0000000030004774 g     F .text	0000000000000044 cm_get_context_by_index
0000000030003b60 g     F .text	000000000000013c tegra_soc_pwr_domain_suspend
000000003000d000 g       .text	0000000000000000 wa_cve_2017_5715_mmu_vbar
0000000030008878 g     F .text	0000000000000010 tegra_set_sec_entry_point
0000000030004c80 g     F .text	000000000000002c cm_init_my_context
000000003000cd80 g     F .text	0000000000000000 serror_aarch64
0000000030003db4 g     F .text	0000000000000058 tegra_soc_pwr_domain_on
0000000030001b38 g     F .text	0000000000000010 plat_ic_acknowledge_interrupt
000000003000b488 g     F .text	0000000000000014 init_cpu_data_ptr
0000000030004034 g     F .text	000000000000000c plat_get_mmio_map
0000000030012000 g       .rodata	0000000000000000 __RODATA_END__
00000000300030a0 g     F .text	0000000000000028 nvg_read_cstate_stats
0000000030002dc8 g     F .text	0000000000000080 ari_read_write_mca
00000000300077cc g     F .text	0000000000000030 xlat_arch_current_el
0000000030001d40 g     F .text	0000000000000008 tegra_gpcdma_memcpy
000000003000b0c0 g     F .text	0000000000000010 tegra186_get_cpu_reset_handler_size
0000000000000040 g       *ABS*	0000000000000000 __PERCPU_BAKERY_LOCK_SIZE__
0000000030003210 g     F .text	00000000000002d0 tegra_se_save_sha256_hash
0000000030000dec g     F .text	0000000000000014 gicd_read_icfgr
0000000030004f38 g     F .text	0000000000000134 psci_do_cpu_off
000000003001c840 g     O .bss	0000000000000004 psci_caps
000000003000b548 g     F .text	0000000000000020 do_cpu_reg_dump
0000000030003f3c g     F .text	00000000000000ec tegra_soc_pwr_domain_power_down_wfi
0000000030001494 g     F .text	0000000000000048 tegra_ivc_write_get_next_frame
000000003000ca80 g     F .text	0000000000000000 irq_sp_elx
000000003000c900 g     F .text	0000000000000000 fiq_sp_el0
000000003000e000 g       .rodata	0000000000000000 __RODATA_START__
0000000030014b10 g       .data	0000000000000000 __DATA_END__
0000000030010ee8 g       .rodata	0000000000000000 __CPU_OPS_START__
0000000030000164 g     F .text	00000000000000b4 udelay
0000000030000f20 g     F .text	0000000000000014 gicd_set_itargetsr
000000003000baa0 g     F .text	0000000000000034 inv_dcache_range
00000000300040b8 g     F .text	0000000000000004 plat_late_platform_setup
000000003000b874 g     F .text	0000000000000014 restore_gp_registers_eret
00000000300063c4 g     F .text	000000000000013c psci_smc_handler
0000000030005350 g     F .text	0000000000000198 psci_cpu_suspend_start
0000000030002d50 g     F .text	0000000000000028 ari_roc_flush_cache_trbits
00000000300056b8 g     F .text	0000000000000014 psci_init_req_local_pwr_states
00000000300030f4 g     F .text	000000000000005c nvg_is_sc7_allowed
000000003000b0d0 g     F .text	0000000000000008 tegra186_get_cpu_reset_handler_base
000000003001ca80 g       .bss	0000000000000000 __BAKERY_LOCK_END__
000000003000b5a4 g     F .text	0000000000000010 cpu_get_rev_var
000000003000506c g     F .text	000000000000021c psci_cpu_on_start
0000000030005a04 g     F .text	0000000000000058 psci_find_max_off_lvl
000000003001c800 g     O .bss	0000000000000030 psci_non_cpu_pd_nodes
000000003001ca80 g       .bss	0000000000000000 __BSS_END__
0000000030011038 g       .rodata	0000000000000000 __CPU_OPS_END__
0000000030003a14 g     F .text	00000000000000bc plat_memctrl_tzdram_setup
0000000030005ebc g     F .text	0000000000000004 psci_do_pwrdown_sequence
000000003000b624 g     F .text	000000000000003c psci_do_pwrdown_cache_maintenance
000000003000044c g     F .text	000000000000000c bl31_get_plat_params
00000000300088f0 g     F .text	000000000000000c plat_get_my_entrypoint
0000000030004244 g     F .text	0000000000000070 plat_secondary_setup
0000000030004f08 g     F .text	0000000000000030 cm_set_next_eret_context
0000000030014af8 g       .data	0000000000000000 tegra_sec_entry_point
0000000030005ec0 g     F .text	0000000000000060 psci_cpu_on
000000003000875c g     F .text	00000000000000e0 init_xlation_table
00000000300043f0 g     F .text	00000000000000a0 bl31_prepare_next_image_entry
0000000030005a90 g     F .text	00000000000000a8 psci_validate_suspend_req
0000000030006340 g     F .text	0000000000000084 psci_features
0000000030007674 g     F .text	000000000000001c memset
0000000030000a5c g     F .text	0000000000000020 tegra_platform_is_linsim
000000003001c880 g       .bss	0000000000000000 __BAKERY_LOCK_START__
0000000030004a2c g     F .text	0000000000000098 std_svc_smc_handler
00000000300056cc g     F .text	00000000000000b4 psci_get_target_local_pwr_states
0000000030004e78 g     F .text	0000000000000090 cm_write_scr_el3_bit
0000000030000640 g     F .text	0000000000000188 bl31_early_platform_setup
0000000030000b34 g     F .text	0000000000000030 tegra_pwr_domain_suspend
0000000030002cdc g     F .text	0000000000000044 ari_cc3_ctrl
0000000030008fb0 g       .text	0000000000000000 __tegra186_system_suspend_state
000000003001c830 g     O .bss	0000000000000008 psci_plat_pm_ops
00000000300007e4 g     F .text	0000000000000068 tegra_delay_timer_init
0000000030000a40 g     F .text	000000000000001c tegra_platform_is_silicon
0000000030000e60 g     F .text	0000000000000020 gicd_get_igroupr
0000000030001b48 g     F .text	0000000000000010 plat_ic_end_of_interrupt
0000000030000ab4 g     F .text	0000000000000014 tegra_get_sys_suspend_power_state
0000000030001f3c g     F .text	00000000000000dc tegra_memctrl_tzram_setup
00000000300043b8 g     F .text	0000000000000038 get_arm_std_svc_args
0000000030002960 g     F .text	0000000000000068 ari_enter_cstate
0000000030006994 g     F .text	000000000000018c bakery_lock_get
000000003000e000 g       .text	0000000000000000 __TEXT_END__
0000000030000924 g     F .text	000000000000000c tegra_fiq_set_ns_entrypoint
00000000300030ec g     F .text	0000000000000008 nvg_is_ccx_allowed
0000000030006b20 g     F .text	0000000000000088 bakery_lock_release
00000000300002d8 g     F .text	00000000000000d4 boot_profiler_add_record
00000000300046e0 g     F .text	000000000000002c get_interrupt_type_handler
0000000030004028 g     F .text	000000000000000c plat_get_power_domain_tree_desc
000000003000280c g     F .text	0000000000000034 mce_update_cstate_info
0000000030000e3c g     F .text	0000000000000010 gicd_write_ipriorityr
0000000030007324 g     F .text	0000000000000328 tf_printf
0000000030008b54 g     F .text	0000000000000008 console_core_flush
0000000030000c08 g     F .text	0000000000000004 tegra_pwr_domain_suspend_finish
00000000300027c4 g     F .text	0000000000000008 mce_update_gsc_videomem
00000000300062b0 g     F .text	0000000000000090 psci_node_hw_state
000000003000b66c g     F .text	00000000000000bc el1_sysregs_context_save
000000003000bbc0 g     F .text	0000000000000010 dcsw_op_level2
000000003000b514 g     F .text	0000000000000034 init_cpu_ops
0000000030008fa0 g     O .text	0000000000002120 __tegra186_cpu_reset_handler_data
000000003000886c g     F .text	000000000000000c console_flush
000000003000cb00 g     F .text	0000000000000000 fiq_sp_elx
00000000300077c0 g     F .text	000000000000000c xlat_arch_tlbi_va_sync
0000000030002a38 g     F .text	000000000000003c ari_update_crossover_time
000000003000cc00 g     F .text	0000000000000000 sync_exception_aarch64
000000003000cd00 g     F .text	0000000000000000 fiq_aarch64
0000000030002158 g     F .text	0000000000000134 tegra_smmu_save_context
0000000030000dd8 g     F .text	0000000000000014 gicd_read_igroupr
000000003000b61c g     F .text	0000000000000008 spin_unlock
000000003000098c g     F .text	0000000000000014 tegra_get_chipid_major
0000000030001a94 g     F .text	000000000000003c plat_ic_get_pending_interrupt_id
0000000030016c00 g       .bss	0000000000000000 __BSS_START__
000000003000821c g     F .text	00000000000001ac mmap_add_region_ctx
000000003000891c g     F .text	000000000000000c plat_crash_console_putc
00000000300078b0 g     F .text	00000000000000e4 enable_mmu_arch
000000003001c380 g     O .bss	0000000000000400 percpu_data
0000000030005df4 g     F .text	000000000000006c psci_register_spd_pm_hook
0000000030008f10 g     F .text	0000000000000008 nvg_set_request
0000000030008a80 g     F .text	0000000000000010 tegra_secure_entrypoint
0000000030003ad0 g     F .text	0000000000000088 tegra_soc_validate_power_state
0000000030002c38 g     F .text	00000000000000a4 ari_online_core
000000003000153c g     F .text	0000000000000014 tegra_ivc_channel_reset
000000003000b5fc g     F .text	0000000000000020 spin_lock
0000000030008f20 g     F .text	000000000000007c tegra186_cpu_reset_handler
0000000030008a90 g     F .text	000000000000000c tegra_zeromem16
00000000300007cc g     F .text	0000000000000004 tegra_zeromem
0000000030005604 g     F .text	0000000000000038 psci_query_sys_suspend_pwrstate
0000000030000b30 g     F .text	0000000000000004 tegra_pwr_domain_off
00000000300027cc g     F .text	0000000000000008 mce_update_gsc_tzdram
0000000030003f1c g     F .text	0000000000000010 tegra_soc_prepare_system_off
00000000300088b8 g     F .text	0000000000000008 tegra_get_bl31_text_end
000000003000b5b4 g     F .text	0000000000000014 cpu_rev_var_ls
0000000030004584 g     F .text	0000000000000058 get_scr_el3_from_routing_model
0000000030000ac8 g     F .text	000000000000001c tegra_validate_ns_entrypoint
0000000030036000 g       xlat_table	0000000000000000 __RW_END__
0000000030001f34 g     F .text	0000000000000008 tegra_memctrl_tzdram_setup
00000000300077fc g     F .text	0000000000000040 xlat_arch_get_xn_desc
0000000030000458 g     F .text	0000000000000040 bl31_platform_setup
00000000300011c8 g     F .text	0000000000000074 tegra_bpmp_ipc_enable_clock
0000000030014bc0 g       stacks	0000000000000000 __STACKS_START__
0000000030005868 g     F .text	000000000000019c psci_do_state_coordination
0000000030007b08 g     F .text	0000000000000004 enable_mmu_el3
0000000030003150 g     F .text	0000000000000088 nvg_online_core
00000000300008dc g     F .text	0000000000000048 tegra_fiq_handler_setup
000000003000cf80 g     F .text	0000000000000000 serror_aarch32
0000000030000b78 g     F .text	0000000000000090 tegra_pwr_domain_on_finish
0000000030008fc0 g       .text	0000000000000000 __tegra186_smmu_context
0000000030002d20 g     F .text	0000000000000030 ari_reset_vector_update
00000000300040bc g     F .text	0000000000000038 plat_gic_setup
00000000300088e0 g     F .text	0000000000000010 plat_my_core_pos
0000000030000c28 g     F .text	0000000000000028 tegra_validate_power_state
0000000030003b58 g     F .text	0000000000000008 tegra_soc_cpu_standby
0000000030002840 g     F .text	0000000000000070 mce_verify_firmware_version
0000000030004800 g     F .text	0000000000000164 runtime_svc_init
00000000300088c0 g     F .text	0000000000000008 tegra_get_bl31_rw_start
000000003000773c g     F .text	000000000000003c is_mmu_enabled
0000000030001ea0 g     F .text	0000000000000094 tegra_memctrl_restore_settings
0000000030007720 g     F .text	000000000000001c strlen
000000003000cc80 g     F .text	0000000000000000 irq_aarch64
0000000030003ee0 g     F .text	000000000000003c tegra_soc_pwr_domain_off
0000000030006270 g     F .text	0000000000000018 psci_migrate_info_type
0000000030007778 g     F .text	0000000000000048 xlat_arch_tlbi_va
0000000030002da0 g     F .text	0000000000000028 ari_roc_clean_cache
000000003000764c g     F .text	0000000000000028 __assert
000000003000b26c g     F .text	000000000000002c el3_panic
0000000030000f34 g     F .text	0000000000000024 gicv2_interrupt_type_to_line
0000000030000e80 g     F .text	0000000000000030 gicd_clr_igroupr
0000000030004674 g     F .text	000000000000006c register_interrupt_type_handler
0000000030001610 g     F .text	000000000000000c tegra_ivc_align
0000000030002ac8 g     F .text	0000000000000028 ari_write_cstate_stats
00000000300010a0 g     F .text	0000000000000128 tegra_bpmp_ipc_init
00000000300007c8 g     F .text	0000000000000004 tegra_memcpy
0000000030000930 g     F .text	000000000000005c tegra_fiq_get_intr_context
0000000030005b38 g     F .text	000000000000007c psci_acquire_pwr_domain_locks
000000003000404c g     F .text	0000000000000020 plat_get_console_from_id
000000003000b728 g     F .text	00000000000000bc el1_sysregs_context_restore
0000000030000c0c g     F .text	000000000000000c tegra_system_off
0000000030007a2c g     F .text	0000000000000014 mmap_remove_dynamic_region
00000000300088d8 g     F .text	0000000000000008 tegra_get_bl31_rodata_end
000000003000bbd0 g     F .text	0000000000000008 zeromem16
00000000300088b0 g     F .text	0000000000000008 tegra_get_bl31_text_start
00000000300057c8 g     F .text	00000000000000a0 psci_set_pwr_domains_to_run
0000000030002eb0 g     F .text	0000000000000098 ari_read_write_uncore_perfmon
0000000030000e00 g     F .text	0000000000000014 gicd_write_igroupr
000000003000b244 g     F .text	0000000000000028 report_unhandled_interrupt
000000003000cf00 g     F .text	0000000000000000 fiq_aarch32
000000003000b458  w    F .text	0000000000000018 plat_get_my_stack
0000000030007994 g     F .text	000000000000002c mmap_add_region
0000000030000000 g       .text	0000000000000000 __TEXT_START__
000000003001c838 g     O .bss	0000000000000008 psci_spd_pm



Disassembly of section .text:

0000000030000000 <bl31_entrypoint>:
    30000000:	d53e1000 	mrs	x0, sctlr_el3
    30000004:	9266f800 	and	x0, x0, #0xfffffffffdffffff
    30000008:	d51e1000 	msr	sctlr_el3, x0
    3000000c:	d5033fdf 	isb
    30000010:	10063f80 	adr	x0, 3000c800 <sync_exception_sp_el0>
    30000014:	d51ec000 	msr	vbar_el3, x0
    30000018:	d5033fdf 	isb
    3000001c:	94002d23 	bl	3000b4a8 <reset_handler>
    30000020:	d2820141 	mov	x1, #0x100a                	// #4106
    30000024:	d53e1000 	mrs	x0, sctlr_el3
    30000028:	aa010000 	orr	x0, x0, x1
    3000002c:	d51e1000 	msr	sctlr_el3, x0
    30000030:	d5033fdf 	isb
    30000034:	94002d15 	bl	3000b488 <init_cpu_data_ptr>
    30000038:	d2804700 	mov	x0, #0x238                 	// #568
    3000003c:	d51e1100 	msr	scr_el3, x0
    30000040:	d2900000 	mov	x0, #0x8000                	// #32768
    30000044:	f2a00020 	movk	x0, #0x1, lsl #16
    30000048:	d51e1320 	msr	mdcr_el3, x0
    3000004c:	d50344ff 	msr	daifclr, #0x4
    30000050:	d53e1140 	mrs	x0, cptr_el3
    30000054:	12007800 	and	w0, w0, #0x7fffffff
    30000058:	120b7800 	and	w0, w0, #0xffefffff
    3000005c:	12157800 	and	w0, w0, #0xfffffbff
    30000060:	d51e1140 	msr	cptr_el3, x0
    30000064:	94002226 	bl	300088fc <platform_mem_init>
    30000068:	1008fcc0 	adr	x0, 30012000 <__RODATA_END__>
    3000006c:	101afca1 	adr	x1, 30036000 <__BL31_END__>
    30000070:	cb000021 	sub	x1, x1, x0
    30000074:	94002e8b 	bl	3000baa0 <inv_dcache_range>
    30000078:	58000280 	ldr	x0, 300000c8 <bl31_entrypoint+0xc8>
    3000007c:	580002a1 	ldr	x1, 300000d0 <bl31_entrypoint+0xd0>
    30000080:	94002ed4 	bl	3000bbd0 <zeromem>
    30000084:	d50040bf 	msr	spsel, #0x0
    30000088:	94002cfc 	bl	3000b478 <plat_set_my_stack>
    3000008c:	d2800000 	mov	x0, #0x0                   	// #0
    30000090:	d2800001 	mov	x1, #0x0                   	// #0
    30000094:	9400016b 	bl	30000640 <bl31_early_platform_setup>
    30000098:	94000109 	bl	300004bc <bl31_plat_arch_setup>
    3000009c:	940010fd 	bl	30004490 <bl31_main>
    300000a0:	1008fb00 	adr	x0, 30012000 <__RODATA_END__>
    300000a4:	100a5361 	adr	x1, 30014b10 <__DATA_END__>
    300000a8:	cb000021 	sub	x1, x1, x0
    300000ac:	94002e70 	bl	3000ba6c <clean_dcache_range>
    300000b0:	100b5a80 	adr	x0, 30016c00 <__BSS_START__>
    300000b4:	100e4e61 	adr	x1, 3001ca80 <__BAKERY_LOCK_END__>
    300000b8:	cb000021 	sub	x1, x1, x0
    300000bc:	94002e6c 	bl	3000ba6c <clean_dcache_range>
    300000c0:	14002df2 	b	3000b888 <el3_exit>
    300000c4:	00000000 	.inst	0x00000000 ; undefined
    300000c8:	30016c00 	.word	0x30016c00
    300000cc:	00000000 	.word	0x00000000
    300000d0:	00005e80 	.word	0x00005e80
    300000d4:	00000000 	.word	0x00000000

00000000300000d8 <bl31_warm_entrypoint>:
    300000d8:	d53e1000 	mrs	x0, sctlr_el3
    300000dc:	9266f800 	and	x0, x0, #0xfffffffffdffffff
    300000e0:	d51e1000 	msr	sctlr_el3, x0
    300000e4:	d5033fdf 	isb
    300000e8:	100638c0 	adr	x0, 3000c800 <sync_exception_sp_el0>
    300000ec:	d51ec000 	msr	vbar_el3, x0
    300000f0:	d5033fdf 	isb
    300000f4:	94002ced 	bl	3000b4a8 <reset_handler>
    300000f8:	d2820141 	mov	x1, #0x100a                	// #4106
    300000fc:	d53e1000 	mrs	x0, sctlr_el3
    30000100:	aa010000 	orr	x0, x0, x1
    30000104:	d51e1000 	msr	sctlr_el3, x0
    30000108:	d5033fdf 	isb
    3000010c:	94002cdf 	bl	3000b488 <init_cpu_data_ptr>
    30000110:	d2804700 	mov	x0, #0x238                 	// #568
    30000114:	d51e1100 	msr	scr_el3, x0
    30000118:	d2900000 	mov	x0, #0x8000                	// #32768
    3000011c:	f2a00020 	movk	x0, #0x1, lsl #16
    30000120:	d51e1320 	msr	mdcr_el3, x0
    30000124:	d50344ff 	msr	daifclr, #0x4
    30000128:	d53e1140 	mrs	x0, cptr_el3
    3000012c:	12007800 	and	w0, w0, #0x7fffffff
    30000130:	120b7800 	and	w0, w0, #0xffefffff
    30000134:	12157800 	and	w0, w0, #0xfffffbff
    30000138:	d51e1140 	msr	cptr_el3, x0
    3000013c:	d50040bf 	msr	spsel, #0x0
    30000140:	94002cce 	bl	3000b478 <plat_set_my_stack>
    30000144:	d2800020 	mov	x0, #0x1                   	// #1
    30000148:	940000b2 	bl	30000410 <bl31_plat_enable_mmu>
    3000014c:	d53e1000 	mrs	x0, sctlr_el3
    30000150:	b27e0000 	orr	x0, x0, #0x4
    30000154:	d51e1000 	msr	sctlr_el3, x0
    30000158:	d5033fdf 	isb
    3000015c:	940016f8 	bl	30005d3c <psci_warmboot_entrypoint>
    30000160:	14002dca 	b	3000b888 <el3_exit>

0000000030000164 <udelay>:
    30000164:	a9bd7bfd 	stp	x29, x30, [sp, #-48]!
    30000168:	910003fd 	mov	x29, sp
    3000016c:	a90153f3 	stp	x19, x20, [sp, #16]
    30000170:	d00000b4 	adrp	x20, 30016000 <__STACKS_START__+0x1440>
    30000174:	2a0003f3 	mov	w19, w0
    30000178:	f90013f5 	str	x21, [sp, #32]
    3000017c:	f9460280 	ldr	x0, [x20, #3072]
    30000180:	b40000e0 	cbz	x0, 3000019c <udelay+0x38>
    30000184:	b9400801 	ldr	w1, [x0, #8]
    30000188:	340000a1 	cbz	w1, 3000019c <udelay+0x38>
    3000018c:	b9400c02 	ldr	w2, [x0, #12]
    30000190:	34000062 	cbz	w2, 3000019c <udelay+0x38>
    30000194:	f9400001 	ldr	x1, [x0]
    30000198:	b50000e1 	cbnz	x1, 300001b4 <udelay+0x50>
    3000019c:	d0000062 	adrp	x2, 3000e000 <__TEXT_END__>
    300001a0:	91027842 	add	x2, x2, #0x9e
    300001a4:	52800321 	mov	w1, #0x19                  	// #25
    300001a8:	d0000060 	adrp	x0, 3000e000 <__TEXT_END__>
    300001ac:	9103fc00 	add	x0, x0, #0xff
    300001b0:	94001d27 	bl	3000764c <__assert>
    300001b4:	12800000 	mov	w0, #0xffffffff            	// #-1
    300001b8:	1ac20800 	udiv	w0, w0, w2
    300001bc:	6b13001f 	cmp	w0, w19
    300001c0:	540000a8 	b.hi	300001d4 <udelay+0x70>  // b.pmore
    300001c4:	d0000062 	adrp	x2, 3000e000 <__TEXT_END__>
    300001c8:	528003a1 	mov	w1, #0x1d                  	// #29
    300001cc:	91048442 	add	x2, x2, #0x121
    300001d0:	17fffff6 	b	300001a8 <udelay+0x44>
    300001d4:	d63f0020 	blr	x1
    300001d8:	2a0003f5 	mov	w21, w0
    300001dc:	f9460280 	ldr	x0, [x20, #3072]
    300001e0:	b9400c01 	ldr	w1, [x0, #12]
    300001e4:	b9400800 	ldr	w0, [x0, #8]
    300001e8:	1b017e73 	mul	w19, w19, w1
    300001ec:	1ac00a73 	udiv	w19, w19, w0
    300001f0:	f9460280 	ldr	x0, [x20, #3072]
    300001f4:	f9400000 	ldr	x0, [x0]
    300001f8:	d63f0000 	blr	x0
    300001fc:	4b150000 	sub	w0, w0, w21
    30000200:	6b00027f 	cmp	w19, w0
    30000204:	54ffff68 	b.hi	300001f0 <udelay+0x8c>  // b.pmore
    30000208:	a94153f3 	ldp	x19, x20, [sp, #16]
    3000020c:	f94013f5 	ldr	x21, [sp, #32]
    30000210:	a8c37bfd 	ldp	x29, x30, [sp], #48
    30000214:	d65f03c0 	ret

0000000030000218 <mdelay>:
    30000218:	52807d01 	mov	w1, #0x3e8                 	// #1000
    3000021c:	1b017c00 	mul	w0, w0, w1
    30000220:	17ffffd1 	b	30000164 <udelay>

0000000030000224 <timer_init>:
    30000224:	b40000e0 	cbz	x0, 30000240 <timer_init+0x1c>
    30000228:	b9400801 	ldr	w1, [x0, #8]
    3000022c:	340000a1 	cbz	w1, 30000240 <timer_init+0x1c>
    30000230:	b9400c01 	ldr	w1, [x0, #12]
    30000234:	34000061 	cbz	w1, 30000240 <timer_init+0x1c>
    30000238:	f9400001 	ldr	x1, [x0]
    3000023c:	b5000121 	cbnz	x1, 30000260 <timer_init+0x3c>
    30000240:	a9bf7bfd 	stp	x29, x30, [sp, #-16]!
    30000244:	d0000062 	adrp	x2, 3000e000 <__TEXT_END__>
    30000248:	d0000060 	adrp	x0, 3000e000 <__TEXT_END__>
    3000024c:	9100b442 	add	x2, x2, #0x2d
    30000250:	910003fd 	mov	x29, sp
    30000254:	528007e1 	mov	w1, #0x3f                  	// #63
    30000258:	9103fc00 	add	x0, x0, #0xff
    3000025c:	94001cfc 	bl	3000764c <__assert>
    30000260:	d00000a1 	adrp	x1, 30016000 <__STACKS_START__+0x1440>
    30000264:	f9060020 	str	x0, [x1, #3072]
    30000268:	d65f03c0 	ret

000000003000026c <boot_profiler_init>:
    3000026c:	a9bf7bfd 	stp	x29, x30, [sp, #-16]!
    30000270:	910003fd 	mov	x29, sp
    30000274:	b50000e0 	cbnz	x0, 30000290 <boot_profiler_init+0x24>
    30000278:	d0000062 	adrp	x2, 3000e000 <__TEXT_END__>
    3000027c:	91050842 	add	x2, x2, #0x142
    30000280:	52800761 	mov	w1, #0x3b                  	// #59
    30000284:	d0000060 	adrp	x0, 3000e000 <__TEXT_END__>
    30000288:	91055c00 	add	x0, x0, #0x157
    3000028c:	94001cf0 	bl	3000764c <__assert>
    30000290:	350000a1 	cbnz	w1, 300002a4 <boot_profiler_init+0x38>
    30000294:	d0000062 	adrp	x2, 3000e000 <__TEXT_END__>
    30000298:	52800781 	mov	w1, #0x3c                  	// #60
    3000029c:	91061442 	add	x2, x2, #0x185
    300002a0:	17fffff9 	b	30000284 <boot_profiler_init+0x18>
    300002a4:	d00000a2 	adrp	x2, 30016000 <__STACKS_START__+0x1440>
    300002a8:	910f0003 	add	x3, x0, #0x3c0
    300002ac:	a8c17bfd 	ldp	x29, x30, [sp], #16
    300002b0:	f9061040 	str	x0, [x2, #3104]
    300002b4:	d00000a2 	adrp	x2, 30016000 <__STACKS_START__+0x1440>
    300002b8:	f9060840 	str	x0, [x2, #3088]
    300002bc:	d00000a2 	adrp	x2, 30016000 <__STACKS_START__+0x1440>
    300002c0:	f9061443 	str	x3, [x2, #3112]
    300002c4:	d00000a2 	adrp	x2, 30016000 <__STACKS_START__+0x1440>
    300002c8:	f9060440 	str	x0, [x2, #3080]
    300002cc:	d00000a0 	adrp	x0, 30016000 <__STACKS_START__+0x1440>
    300002d0:	b90c3001 	str	w1, [x0, #3120]
    300002d4:	d65f03c0 	ret

00000000300002d8 <boot_profiler_add_record>:
    300002d8:	a9bd7bfd 	stp	x29, x30, [sp, #-48]!
    300002dc:	910003fd 	mov	x29, sp
    300002e0:	a90153f3 	stp	x19, x20, [sp, #16]
    300002e4:	a9025bf5 	stp	x21, x22, [sp, #32]
    300002e8:	aa0003f6 	mov	x22, x0
    300002ec:	94001d0d 	bl	30007720 <strlen>
    300002f0:	aa0003f3 	mov	x19, x0
    300002f4:	d00000a0 	adrp	x0, 30016000 <__STACKS_START__+0x1440>
    300002f8:	f9460801 	ldr	x1, [x0, #3088]
    300002fc:	b40004c1 	cbz	x1, 30000394 <boot_profiler_add_record+0xbc>
    30000300:	d00000b4 	adrp	x20, 30016000 <__STACKS_START__+0x1440>
    30000304:	aa0003f5 	mov	x21, x0
    30000308:	39706280 	ldrb	w0, [x20, #3096]
    3000030c:	35000160 	cbnz	w0, 30000338 <boot_profiler_add_record+0x60>
    30000310:	d53e1000 	mrs	x0, sctlr_el3
    30000314:	36000120 	tbz	w0, #0, 30000338 <boot_profiler_add_record+0x60>
    30000318:	d00000a0 	adrp	x0, 30016000 <__STACKS_START__+0x1440>
    3000031c:	52800703 	mov	w3, #0x38                  	// #56
    30000320:	d2820002 	mov	x2, #0x1000                	// #4096
    30000324:	f9461001 	ldr	x1, [x0, #3104]
    30000328:	aa0103e0 	mov	x0, x1
    3000032c:	94001db5 	bl	30007a00 <mmap_add_dynamic_region>
    30000330:	52800020 	mov	w0, #0x1                   	// #1
    30000334:	39306280 	strb	w0, [x20, #3096]
    30000338:	11000673 	add	w19, w19, #0x1
    3000033c:	d00000b4 	adrp	x20, 30016000 <__STACKS_START__+0x1440>
    30000340:	7100e27f 	cmp	w19, #0x38
    30000344:	52800700 	mov	w0, #0x38                  	// #56
    30000348:	1a809273 	csel	w19, w19, w0, ls  // ls = plast
    3000034c:	f9460680 	ldr	x0, [x20, #3080]
    30000350:	aa1603e1 	mov	x1, x22
    30000354:	2a1303e2 	mov	w2, w19
    30000358:	51000673 	sub	w19, w19, #0x1
    3000035c:	94001ccd 	bl	30007690 <memcpy>
    30000360:	d00000a1 	adrp	x1, 30016000 <__STACKS_START__+0x1440>
    30000364:	f9460680 	ldr	x0, [x20, #3080]
    30000368:	b94c3021 	ldr	w1, [x1, #3120]
    3000036c:	3833681f 	strb	wzr, [x0, x19]
    30000370:	b9400021 	ldr	w1, [x1]
    30000374:	2a0103e1 	mov	w1, w1
    30000378:	f9001c01 	str	x1, [x0, #56]
    3000037c:	d00000a1 	adrp	x1, 30016000 <__STACKS_START__+0x1440>
    30000380:	f9461421 	ldr	x1, [x1, #3112]
    30000384:	eb01001f 	cmp	x0, x1
    30000388:	540000e1 	b.ne	300003a4 <boot_profiler_add_record+0xcc>  // b.any
    3000038c:	f9460aa0 	ldr	x0, [x21, #3088]
    30000390:	f9060680 	str	x0, [x20, #3080]
    30000394:	a94153f3 	ldp	x19, x20, [sp, #16]
    30000398:	a9425bf5 	ldp	x21, x22, [sp, #32]
    3000039c:	a8c37bfd 	ldp	x29, x30, [sp], #48
    300003a0:	d65f03c0 	ret
    300003a4:	91010000 	add	x0, x0, #0x40
    300003a8:	17fffffa 	b	30000390 <boot_profiler_add_record+0xb8>

00000000300003ac <boot_profiler_deinit>:
    300003ac:	a9be7bfd 	stp	x29, x30, [sp, #-32]!
    300003b0:	910003fd 	mov	x29, sp
    300003b4:	f9000bf3 	str	x19, [sp, #16]
    300003b8:	d00000b3 	adrp	x19, 30016000 <__STACKS_START__+0x1440>
    300003bc:	f9461260 	ldr	x0, [x19, #3104]
    300003c0:	b4000220 	cbz	x0, 30000404 <boot_profiler_deinit+0x58>
    300003c4:	d00000a1 	adrp	x1, 30016000 <__STACKS_START__+0x1440>
    300003c8:	f906043f 	str	xzr, [x1, #3080]
    300003cc:	d00000a1 	adrp	x1, 30016000 <__STACKS_START__+0x1440>
    300003d0:	f906083f 	str	xzr, [x1, #3088]
    300003d4:	d00000a1 	adrp	x1, 30016000 <__STACKS_START__+0x1440>
    300003d8:	f906143f 	str	xzr, [x1, #3112]
    300003dc:	d2820001 	mov	x1, #0x1000                	// #4096
    300003e0:	94002d96 	bl	3000ba38 <flush_dcache_range>
    300003e4:	d00000a0 	adrp	x0, 30016000 <__STACKS_START__+0x1440>
    300003e8:	39706000 	ldrb	w0, [x0, #3096]
    300003ec:	340000c0 	cbz	w0, 30000404 <boot_profiler_deinit+0x58>
    300003f0:	f9461260 	ldr	x0, [x19, #3104]
    300003f4:	d2820001 	mov	x1, #0x1000                	// #4096
    300003f8:	f9400bf3 	ldr	x19, [sp, #16]
    300003fc:	a8c27bfd 	ldp	x29, x30, [sp], #32
    30000400:	14001d8b 	b	30007a2c <mmap_remove_dynamic_region>
    30000404:	f9400bf3 	ldr	x19, [sp, #16]
    30000408:	a8c27bfd 	ldp	x29, x30, [sp], #32
    3000040c:	d65f03c0 	ret

0000000030000410 <bl31_plat_enable_mmu>:
    30000410:	14001dbe 	b	30007b08 <enable_mmu_el3>

0000000030000414 <bl31_plat_get_next_image_ep_info>:
    30000414:	7100041f 	cmp	w0, #0x1
    30000418:	54000100 	b.eq	30000438 <bl31_plat_get_next_image_ep_info+0x24>  // b.none
    3000041c:	35000140 	cbnz	w0, 30000444 <bl31_plat_get_next_image_ep_info+0x30>
    30000420:	d00000a0 	adrp	x0, 30016000 <__STACKS_START__+0x1440>
    30000424:	9130e000 	add	x0, x0, #0xc38
    30000428:	f9400401 	ldr	x1, [x0, #8]
    3000042c:	f100003f 	cmp	x1, #0x0
    30000430:	9a9f1000 	csel	x0, x0, xzr, ne  // ne = any
    30000434:	d65f03c0 	ret
    30000438:	d00000a0 	adrp	x0, 30016000 <__STACKS_START__+0x1440>
    3000043c:	91324000 	add	x0, x0, #0xc90
    30000440:	17fffffd 	b	30000434 <bl31_plat_get_next_image_ep_info+0x20>
    30000444:	d2800000 	mov	x0, #0x0                   	// #0
    30000448:	17fffffb 	b	30000434 <bl31_plat_get_next_image_ep_info+0x20>

000000003000044c <bl31_get_plat_params>:
    3000044c:	d0000080 	adrp	x0, 30012000 <__RODATA_END__>
    30000450:	91000000 	add	x0, x0, #0x0
    30000454:	d65f03c0 	ret

0000000030000458 <bl31_platform_setup>:
    30000458:	d0000060 	adrp	x0, 3000e000 <__TEXT_END__>
    3000045c:	910ae800 	add	x0, x0, #0x2ba
    30000460:	a9bf7bfd 	stp	x29, x30, [sp, #-16]!
    30000464:	910003fd 	mov	x29, sp
    30000468:	97ffff9c 	bl	300002d8 <boot_profiler_add_record>
    3000046c:	94000f14 	bl	300040bc <plat_gic_setup>
    30000470:	94000f75 	bl	30004244 <plat_secondary_setup>
    30000474:	94000651 	bl	30001db8 <tegra_memctrl_setup>
    30000478:	52a00081 	mov	w1, #0x40000               	// #262144
    3000047c:	d2a60000 	mov	x0, #0x30000000            	// #805306368
    30000480:	940006af 	bl	30001f3c <tegra_memctrl_tzram_setup>
    30000484:	94000f0d 	bl	300040b8 <plat_late_platform_setup>
    30000488:	a8c17bfd 	ldp	x29, x30, [sp], #16
    3000048c:	d0000060 	adrp	x0, 3000e000 <__TEXT_END__>
    30000490:	910b4000 	add	x0, x0, #0x2d0
    30000494:	17ffff91 	b	300002d8 <boot_profiler_add_record>

0000000030000498 <bl31_plat_runtime_setup>:
    30000498:	a9bf7bfd 	stp	x29, x30, [sp, #-16]!
    3000049c:	910003fd 	mov	x29, sp
    300004a0:	9400072d 	bl	30002154 <tegra_memctrl_clear_pending_interrupts>
    300004a4:	9400072b 	bl	30002150 <tegra_memctrl_disable_ahb_redirection>
    300004a8:	d0000060 	adrp	x0, 3000e000 <__TEXT_END__>
    300004ac:	910aac00 	add	x0, x0, #0x2ab
    300004b0:	97ffff8a 	bl	300002d8 <boot_profiler_add_record>
    300004b4:	a8c17bfd 	ldp	x29, x30, [sp], #16
    300004b8:	17ffffbd 	b	300003ac <boot_profiler_deinit>

00000000300004bc <bl31_plat_arch_setup>:
    300004bc:	a9bc7bfd 	stp	x29, x30, [sp, #-64]!
    300004c0:	910003fd 	mov	x29, sp
    300004c4:	a90153f3 	stp	x19, x20, [sp, #16]
    300004c8:	a9025bf5 	stp	x21, x22, [sp, #32]
    300004cc:	a90363f7 	stp	x23, x24, [sp, #48]
    300004d0:	940020fc 	bl	300088c0 <tegra_get_bl31_rw_start>
    300004d4:	aa0003f6 	mov	x22, x0
    300004d8:	940020fc 	bl	300088c8 <tegra_get_bl31_rw_end>
    300004dc:	aa0003f8 	mov	x24, x0
    300004e0:	940020fc 	bl	300088d0 <tegra_get_bl31_rodata_start>
    300004e4:	aa0003f5 	mov	x21, x0
    300004e8:	940020fc 	bl	300088d8 <tegra_get_bl31_rodata_end>
    300004ec:	aa0003f3 	mov	x19, x0
    300004f0:	940020f0 	bl	300088b0 <tegra_get_bl31_text_start>
    300004f4:	aa0003f4 	mov	x20, x0
    300004f8:	940020f0 	bl	300088b8 <tegra_get_bl31_text_end>
    300004fc:	cb140017 	sub	x23, x0, x20
    30000500:	d0000060 	adrp	x0, 3000e000 <__TEXT_END__>
    30000504:	910a0000 	add	x0, x0, #0x280
    30000508:	97ffff74 	bl	300002d8 <boot_profiler_add_record>
    3000050c:	94000eca 	bl	30004034 <plat_get_mmio_map>
    30000510:	b4000040 	cbz	x0, 30000518 <bl31_plat_arch_setup+0x5c>
    30000514:	94001d2b 	bl	300079c0 <mmap_add>
    30000518:	52800143 	mov	w3, #0xa                   	// #10
    3000051c:	cb160302 	sub	x2, x24, x22
    30000520:	aa1603e1 	mov	x1, x22
    30000524:	aa1603e0 	mov	x0, x22
    30000528:	cb150273 	sub	x19, x19, x21
    3000052c:	94001d1a 	bl	30007994 <mmap_add_region>
    30000530:	52800443 	mov	w3, #0x22                  	// #34
    30000534:	aa1303e2 	mov	x2, x19
    30000538:	aa1503e1 	mov	x1, x21
    3000053c:	aa1503e0 	mov	x0, x21
    30000540:	94001d15 	bl	30007994 <mmap_add_region>
    30000544:	aa1403e1 	mov	x1, x20
    30000548:	aa1703e2 	mov	x2, x23
    3000054c:	aa1403e0 	mov	x0, x20
    30000550:	52800043 	mov	w3, #0x2                   	// #2
    30000554:	94001d10 	bl	30007994 <mmap_add_region>
    30000558:	940020d3 	bl	300088a4 <tegra_get_bl31_phys_base>
    3000055c:	d2a60001 	mov	x1, #0x30000000            	// #805306368
    30000560:	eb01001f 	cmp	x0, x1
    30000564:	540000e1 	b.ne	30000580 <bl31_plat_arch_setup+0xc4>  // b.any
    30000568:	d0000080 	adrp	x0, 30012000 <__RODATA_END__>
    3000056c:	52800103 	mov	w3, #0x8                   	// #8
    30000570:	d2a00082 	mov	x2, #0x40000               	// #262144
    30000574:	f9400401 	ldr	x1, [x0, #8]
    30000578:	aa0103e0 	mov	x0, x1
    3000057c:	94001d06 	bl	30007994 <mmap_add_region>
    30000580:	94001d30 	bl	30007a40 <init_xlat_tables>
    30000584:	52800000 	mov	w0, #0x0                   	// #0
    30000588:	94001d60 	bl	30007b08 <enable_mmu_el3>
    3000058c:	a94153f3 	ldp	x19, x20, [sp, #16]
    30000590:	d0000060 	adrp	x0, 3000e000 <__TEXT_END__>
    30000594:	a9425bf5 	ldp	x21, x22, [sp, #32]
    30000598:	910a5800 	add	x0, x0, #0x296
    3000059c:	a94363f7 	ldp	x23, x24, [sp, #48]
    300005a0:	a8c47bfd 	ldp	x29, x30, [sp], #64
    300005a4:	17ffff4d 	b	300002d8 <boot_profiler_add_record>

00000000300005a8 <bl31_check_ns_address>:
    300005a8:	a9bd7bfd 	stp	x29, x30, [sp, #-48]!
    300005ac:	d1000421 	sub	x1, x1, #0x1
    300005b0:	910003fd 	mov	x29, sp
    300005b4:	a90153f3 	stp	x19, x20, [sp, #16]
    300005b8:	aa0003f4 	mov	x20, x0
    300005bc:	8b000033 	add	x19, x1, x0
    300005c0:	f90013f5 	str	x21, [sp, #32]
    300005c4:	940020b8 	bl	300088a4 <tegra_get_bl31_phys_base>
    300005c8:	aa0003f5 	mov	x21, x0
    300005cc:	b26183e0 	mov	x0, #0xffffffff80000000    	// #-2147483648
    300005d0:	8b000280 	add	x0, x20, x0
    300005d4:	b27f7fe1 	mov	x1, #0x1fffffffe           	// #8589934590
    300005d8:	eb01001f 	cmp	x0, x1
    300005dc:	540000a8 	b.hi	300005f0 <bl31_check_ns_address+0x48>  // b.pmore
    300005e0:	b2407be0 	mov	x0, #0x7fffffff            	// #2147483647
    300005e4:	f2c00040 	movk	x0, #0x2, lsl #32
    300005e8:	eb00027f 	cmp	x19, x0
    300005ec:	54000269 	b.ls	30000638 <bl31_check_ns_address+0x90>  // b.plast
    300005f0:	d0000060 	adrp	x0, 3000e000 <__TEXT_END__>
    300005f4:	91065800 	add	x0, x0, #0x196
    300005f8:	94001b4b 	bl	30007324 <tf_printf>
    300005fc:	128001a0 	mov	w0, #0xfffffff2            	// #-14
    30000600:	eb13029f 	cmp	x20, x19
    30000604:	540000a2 	b.cs	30000618 <bl31_check_ns_address+0x70>  // b.hs, b.nlast
    30000608:	d2a60801 	mov	x1, #0x30400000            	// #809500672
    3000060c:	eb01029f 	cmp	x20, x1
    30000610:	fa559260 	ccmp	x19, x21, #0x0, ls  // ls = plast
    30000614:	540000a3 	b.cc	30000628 <bl31_check_ns_address+0x80>  // b.lo, b.ul, b.last
    30000618:	d0000060 	adrp	x0, 3000e000 <__TEXT_END__>
    3000061c:	9106f400 	add	x0, x0, #0x1bd
    30000620:	94001b41 	bl	30007324 <tf_printf>
    30000624:	12800580 	mov	w0, #0xffffffd3            	// #-45
    30000628:	a94153f3 	ldp	x19, x20, [sp, #16]
    3000062c:	f94013f5 	ldr	x21, [sp, #32]
    30000630:	a8c37bfd 	ldp	x29, x30, [sp], #48
    30000634:	d65f03c0 	ret
    30000638:	52800000 	mov	w0, #0x0                   	// #0
    3000063c:	17fffff1 	b	30000600 <bl31_check_ns_address+0x58>

0000000030000640 <bl31_early_platform_setup>:
    30000640:	a9bd7bfd 	stp	x29, x30, [sp, #-48]!
    30000644:	910003fd 	mov	x29, sp
    30000648:	a90153f3 	stp	x19, x20, [sp, #16]
    3000064c:	aa0103f3 	mov	x19, x1
    30000650:	a9025bf5 	stp	x21, x22, [sp, #32]
    30000654:	b5000aa0 	cbnz	x0, 300007a8 <bl31_early_platform_setup+0x168>
    30000658:	94000ea7 	bl	300040f4 <plat_get_bl31_params>
    3000065c:	aa0003f4 	mov	x20, x0
    30000660:	b5000073 	cbnz	x19, 3000066c <bl31_early_platform_setup+0x2c>
    30000664:	94000ea9 	bl	30004108 <plat_get_bl31_plat_params>
    30000668:	aa0003f3 	mov	x19, x0
    3000066c:	b5000a34 	cbnz	x20, 300007b0 <bl31_early_platform_setup+0x170>
    30000670:	d0000062 	adrp	x2, 3000e000 <__TEXT_END__>
    30000674:	91078c42 	add	x2, x2, #0x1e3
    30000678:	52800d41 	mov	w1, #0x6a                  	// #106
    3000067c:	d0000060 	adrp	x0, 3000e000 <__TEXT_END__>
    30000680:	9107d000 	add	x0, x0, #0x1f4
    30000684:	94001bf2 	bl	3000764c <__assert>
    30000688:	d2800b02 	mov	x2, #0x58                  	// #88
    3000068c:	d00000a0 	adrp	x0, 30016000 <__STACKS_START__+0x1440>
    30000690:	91324000 	add	x0, x0, #0xc90
    30000694:	94001bff 	bl	30007690 <memcpy>
    30000698:	f9400a81 	ldr	x1, [x20, #16]
    3000069c:	b40000a1 	cbz	x1, 300006b0 <bl31_early_platform_setup+0x70>
    300006a0:	d00000a0 	adrp	x0, 30016000 <__STACKS_START__+0x1440>
    300006a4:	d2800b02 	mov	x2, #0x58                  	// #88
    300006a8:	9130e000 	add	x0, x0, #0xc38
    300006ac:	94001bf9 	bl	30007690 <memcpy>
    300006b0:	b50000b3 	cbnz	x19, 300006c4 <bl31_early_platform_setup+0x84>
    300006b4:	d0000062 	adrp	x2, 3000e000 <__TEXT_END__>
    300006b8:	52800ea1 	mov	w1, #0x75                  	// #117
    300006bc:	9108fc42 	add	x2, x2, #0x23f
    300006c0:	17ffffef 	b	3000067c <bl31_early_platform_setup+0x3c>
    300006c4:	d0000096 	adrp	x22, 30012000 <__RODATA_END__>
    300006c8:	910002d5 	add	x21, x22, #0x0
    300006cc:	f9400660 	ldr	x0, [x19, #8]
    300006d0:	d2820001 	mov	x1, #0x1000                	// #4096
    300006d4:	f90006a0 	str	x0, [x21, #8]
    300006d8:	f9400260 	ldr	x0, [x19]
    300006dc:	f90002c0 	str	x0, [x22]
    300006e0:	b9401260 	ldr	w0, [x19, #16]
    300006e4:	b90012a0 	str	w0, [x21, #16]
    300006e8:	b9401660 	ldr	w0, [x19, #20]
    300006ec:	b90016a0 	str	w0, [x21, #20]
    300006f0:	f9401260 	ldr	x0, [x19, #32]
    300006f4:	f90012a0 	str	x0, [x21, #32]
    300006f8:	f9401660 	ldr	x0, [x19, #40]
    300006fc:	f90016a0 	str	x0, [x21, #40]
    30000700:	f9400e60 	ldr	x0, [x19, #24]
    30000704:	97ffffa9 	bl	300005a8 <bl31_check_ns_address>
    30000708:	350000c0 	cbnz	w0, 30000720 <bl31_early_platform_setup+0xe0>
    3000070c:	f9400e60 	ldr	x0, [x19, #24]
    30000710:	52a185c1 	mov	w1, #0xc2e0000             	// #204341248
    30000714:	f9000ea0 	str	x0, [x21, #24]
    30000718:	f9400e60 	ldr	x0, [x19, #24]
    3000071c:	97fffed4 	bl	3000026c <boot_profiler_init>
    30000720:	d0000060 	adrp	x0, 3000e000 <__TEXT_END__>
    30000724:	91094c00 	add	x0, x0, #0x253
    30000728:	97fffeec 	bl	300002d8 <boot_profiler_add_record>
    3000072c:	528ba815 	mov	w21, #0x5d40                	// #23872
    30000730:	72a018d5 	movk	w21, #0xc6, lsl #16
    30000734:	9400002c 	bl	300007e4 <tegra_delay_timer_init>
    30000738:	940000d1 	bl	30000a7c <tegra_platform_is_fpga>
    3000073c:	72001c1f 	tst	w0, #0xff
    30000740:	b9401260 	ldr	w0, [x19, #16]
    30000744:	5292c001 	mov	w1, #0x9600                	// #38400
    30000748:	72a30a21 	movk	w1, #0x1851, lsl #16
    3000074c:	1a8112b5 	csel	w21, w21, w1, ne  // ne = any
    30000750:	94000e3f 	bl	3000404c <plat_get_console_from_id>
    30000754:	2a0003f3 	mov	w19, w0
    30000758:	aa1303e0 	mov	x0, x19
    3000075c:	9400204e 	bl	30008894 <tegra_set_console_base>
    30000760:	2a1503e1 	mov	w1, w21
    30000764:	52984002 	mov	w2, #0xc200                	// #49664
    30000768:	72a00022 	movk	w2, #0x1, lsl #16
    3000076c:	aa1303e0 	mov	x0, x19
    30000770:	94002033 	bl	3000883c <console_init>
    30000774:	94000e3e 	bl	3000406c <plat_early_platform_setup>
    30000778:	910002c0 	add	x0, x22, #0x0
    3000077c:	b94002c1 	ldr	w1, [x22]
    30000780:	f9400400 	ldr	x0, [x0, #8]
    30000784:	940005ec 	bl	30001f34 <tegra_memctrl_tzdram_setup>
    30000788:	f9400e80 	ldr	x0, [x20, #24]
    3000078c:	94000e71 	bl	30004150 <plat_relocate_bl32_image>
    30000790:	a94153f3 	ldp	x19, x20, [sp, #16]
    30000794:	d0000060 	adrp	x0, 3000e000 <__TEXT_END__>
    30000798:	a9425bf5 	ldp	x21, x22, [sp, #32]
    3000079c:	9109a800 	add	x0, x0, #0x26a
    300007a0:	a8c37bfd 	ldp	x29, x30, [sp], #48
    300007a4:	17fffecd 	b	300002d8 <boot_profiler_add_record>
    300007a8:	aa0003f4 	mov	x20, x0
    300007ac:	b4fff5c1 	cbz	x1, 30000664 <bl31_early_platform_setup+0x24>
    300007b0:	f9401281 	ldr	x1, [x20, #32]
    300007b4:	b5fff6a1 	cbnz	x1, 30000688 <bl31_early_platform_setup+0x48>
    300007b8:	d0000062 	adrp	x2, 3000e000 <__TEXT_END__>
    300007bc:	52800d61 	mov	w1, #0x6b                  	// #107
    300007c0:	91088042 	add	x2, x2, #0x220
    300007c4:	17ffffae 	b	3000067c <bl31_early_platform_setup+0x3c>

00000000300007c8 <tegra_memcpy>:
    300007c8:	1400055e 	b	30001d40 <tegra_gpcdma_memcpy>

00000000300007cc <tegra_zeromem>:
    300007cc:	1400055f 	b	30001d48 <tegra_gpcdma_zeromem>

00000000300007d0 <tegra_timer_get_value>:
    300007d0:	d2800060 	mov	x0, #0x3                   	// #3
    300007d4:	d51fe220 	msr	cntps_ctl_el1, x0
    300007d8:	d53fe200 	mrs	x0, cntps_tval_el1
    300007dc:	2a2003e0 	mvn	w0, w0
    300007e0:	d65f03c0 	ret

00000000300007e4 <tegra_delay_timer_init>:
    300007e4:	a9bf7bfd 	stp	x29, x30, [sp, #-16]!
    300007e8:	910003fd 	mov	x29, sp
    300007ec:	94000e15 	bl	30004040 <plat_get_syscnt_freq2>
    300007f0:	52884801 	mov	w1, #0x4240                	// #16960
    300007f4:	528000e3 	mov	w3, #0x7                   	// #7
    300007f8:	72a001e1 	movk	w1, #0xf, lsl #16
    300007fc:	52800142 	mov	w2, #0xa                   	// #10
    30000800:	71000463 	subs	w3, w3, #0x1
    30000804:	54000181 	b.ne	30000834 <tegra_delay_timer_init+0x50>  // b.any
    30000808:	d2800062 	mov	x2, #0x3                   	// #3
    3000080c:	d51fe222 	msr	cntps_ctl_el1, x2
    30000810:	d00000a4 	adrp	x4, 30016000 <__STACKS_START__+0x1440>
    30000814:	9133a082 	add	x2, x4, #0xce8
    30000818:	90000003 	adrp	x3, 30000000 <bl31_entrypoint>
    3000081c:	911f4063 	add	x3, x3, #0x7d0
    30000820:	f9067483 	str	x3, [x4, #3304]
    30000824:	29010041 	stp	w1, w0, [x2, #8]
    30000828:	aa0203e0 	mov	x0, x2
    3000082c:	a8c17bfd 	ldp	x29, x30, [sp], #16
    30000830:	17fffe7d 	b	30000224 <timer_init>
    30000834:	1ac20804 	udiv	w4, w0, w2
    30000838:	1b028085 	msub	w5, w4, w2, w0
    3000083c:	35fffe65 	cbnz	w5, 30000808 <tegra_delay_timer_init+0x24>
    30000840:	1ac20821 	udiv	w1, w1, w2
    30000844:	2a0403e0 	mov	w0, w4
    30000848:	17ffffee 	b	30000800 <tegra_delay_timer_init+0x1c>

000000003000084c <tegra_fiq_interrupt_handler>:
    3000084c:	a9bd7bfd 	stp	x29, x30, [sp, #-48]!
    30000850:	52800020 	mov	w0, #0x1                   	// #1
    30000854:	910003fd 	mov	x29, sp
    30000858:	a90153f3 	stp	x19, x20, [sp, #16]
    3000085c:	a9025bf5 	stp	x21, x22, [sp, #32]
    30000860:	94000fab 	bl	3000470c <cm_get_context>
    30000864:	d00000b6 	adrp	x22, 30016000 <__STACKS_START__+0x1440>
    30000868:	aa0003f3 	mov	x19, x0
    3000086c:	9400201d 	bl	300088e0 <plat_my_core_pos>
    30000870:	2a0003f4 	mov	w20, w0
    30000874:	94000488 	bl	30001a94 <plat_ic_get_pending_interrupt_id>
    30000878:	2a0003f5 	mov	w21, w0
    3000087c:	f946c2c0 	ldr	x0, [x22, #3456]
    30000880:	b40001a0 	cbz	x0, 300008b4 <tegra_fiq_interrupt_handler+0x68>
    30000884:	52800020 	mov	w0, #0x1                   	// #1
    30000888:	94001141 	bl	30004d8c <cm_el1_sysregs_context_save>
    3000088c:	d37c7e81 	ubfiz	x1, x20, #4, #32
    30000890:	d00000a2 	adrp	x2, 30016000 <__STACKS_START__+0x1440>
    30000894:	91340042 	add	x2, x2, #0xd00
    30000898:	a9511260 	ldp	x0, x4, [x19, #272]
    3000089c:	8b010043 	add	x3, x2, x1
    300008a0:	f8216844 	str	x4, [x2, x1]
    300008a4:	f946c2c1 	ldr	x1, [x22, #3456]
    300008a8:	f9000460 	str	x0, [x3, #8]
    300008ac:	52800020 	mov	w0, #0x1                   	// #1
    300008b0:	94001151 	bl	30004df4 <cm_set_elr_el3>
    300008b4:	710ff6bf 	cmp	w21, #0x3fd
    300008b8:	54000088 	b.hi	300008c8 <tegra_fiq_interrupt_handler+0x7c>  // b.pmore
    300008bc:	9400049f 	bl	30001b38 <plat_ic_acknowledge_interrupt>
    300008c0:	2a1503e0 	mov	w0, w21
    300008c4:	940004a1 	bl	30001b48 <plat_ic_end_of_interrupt>
    300008c8:	d2800000 	mov	x0, #0x0                   	// #0
    300008cc:	a94153f3 	ldp	x19, x20, [sp, #16]
    300008d0:	a9425bf5 	ldp	x21, x22, [sp, #32]
    300008d4:	a8c37bfd 	ldp	x29, x30, [sp], #48
    300008d8:	d65f03c0 	ret

00000000300008dc <tegra_fiq_handler_setup>:
    300008dc:	a9be7bfd 	stp	x29, x30, [sp, #-32]!
    300008e0:	910003fd 	mov	x29, sp
    300008e4:	f9000bf3 	str	x19, [sp, #16]
    300008e8:	d00000b3 	adrp	x19, 30016000 <__STACKS_START__+0x1440>
    300008ec:	b94cfa60 	ldr	w0, [x19, #3320]
    300008f0:	35000140 	cbnz	w0, 30000918 <tegra_fiq_handler_setup+0x3c>
    300008f4:	90000001 	adrp	x1, 30000000 <bl31_entrypoint>
    300008f8:	52800042 	mov	w2, #0x2                   	// #2
    300008fc:	91213021 	add	x1, x1, #0x84c
    30000900:	52800020 	mov	w0, #0x1                   	// #1
    30000904:	94000f5c 	bl	30004674 <register_interrupt_type_handler>
    30000908:	34000040 	cbz	w0, 30000910 <tegra_fiq_handler_setup+0x34>
    3000090c:	94002c3a 	bl	3000b9f4 <do_panic>
    30000910:	52800020 	mov	w0, #0x1                   	// #1
    30000914:	b90cfa60 	str	w0, [x19, #3320]
    30000918:	f9400bf3 	ldr	x19, [sp, #16]
    3000091c:	a8c27bfd 	ldp	x29, x30, [sp], #32
    30000920:	d65f03c0 	ret

0000000030000924 <tegra_fiq_set_ns_entrypoint>:
    30000924:	d00000a1 	adrp	x1, 30016000 <__STACKS_START__+0x1440>
    30000928:	f906c020 	str	x0, [x1, #3456]
    3000092c:	d65f03c0 	ret

0000000030000930 <tegra_fiq_get_intr_context>:
    30000930:	a9be7bfd 	stp	x29, x30, [sp, #-32]!
    30000934:	52800020 	mov	w0, #0x1                   	// #1
    30000938:	910003fd 	mov	x29, sp
    3000093c:	f9000bf3 	str	x19, [sp, #16]
    30000940:	94000f73 	bl	3000470c <cm_get_context>
    30000944:	aa0003f3 	mov	x19, x0
    30000948:	94001fe6 	bl	300088e0 <plat_my_core_pos>
    3000094c:	d00000a1 	adrp	x1, 30016000 <__STACKS_START__+0x1440>
    30000950:	d37c7c00 	ubfiz	x0, x0, #4, #32
    30000954:	91340021 	add	x1, x1, #0xd00
    30000958:	8b000022 	add	x2, x1, x0
    3000095c:	f8606820 	ldr	x0, [x1, x0]
    30000960:	f9000260 	str	x0, [x19]
    30000964:	f9400440 	ldr	x0, [x2, #8]
    30000968:	f9000660 	str	x0, [x19, #8]
    3000096c:	f9407e60 	ldr	x0, [x19, #248]
    30000970:	f9000a60 	str	x0, [x19, #16]
    30000974:	f940aa60 	ldr	x0, [x19, #336]
    30000978:	f9000e60 	str	x0, [x19, #24]
    3000097c:	52800000 	mov	w0, #0x0                   	// #0
    30000980:	f9400bf3 	ldr	x19, [sp, #16]
    30000984:	a8c27bfd 	ldp	x29, x30, [sp], #32
    30000988:	d65f03c0 	ret

000000003000098c <tegra_get_chipid_major>:
    3000098c:	d2800080 	mov	x0, #0x4                   	// #4
    30000990:	f2a00200 	movk	x0, #0x10, lsl #16
    30000994:	b9400000 	ldr	w0, [x0]
    30000998:	d3441c00 	ubfx	x0, x0, #4, #4
    3000099c:	d65f03c0 	ret

00000000300009a0 <tegra_get_chipid_minor>:
    300009a0:	d2800080 	mov	x0, #0x4                   	// #4
    300009a4:	f2a00200 	movk	x0, #0x10, lsl #16
    300009a8:	b9400000 	ldr	w0, [x0]
    300009ac:	d3504c00 	ubfx	x0, x0, #16, #4
    300009b0:	d65f03c0 	ret

00000000300009b4 <tegra_get_platform>:
    300009b4:	a9bf7bfd 	stp	x29, x30, [sp, #-16]!
    300009b8:	910003fd 	mov	x29, sp
    300009bc:	97fffff4 	bl	3000098c <tegra_get_chipid_major>
    300009c0:	2a0003e2 	mov	w2, w0
    300009c4:	97fffff7 	bl	300009a0 <tegra_get_chipid_minor>
    300009c8:	d2800081 	mov	x1, #0x4                   	// #4
    300009cc:	f2a00201 	movk	x1, #0x10, lsl #16
    300009d0:	b9400021 	ldr	w1, [x1]
    300009d4:	35000102 	cbnz	w2, 300009f4 <tegra_get_platform+0x40>
    300009d8:	7100181f 	cmp	w0, #0x6
    300009dc:	54000208 	b.hi	30000a1c <tegra_get_platform+0x68>  // b.pmore
    300009e0:	d0000061 	adrp	x1, 3000e000 <__TEXT_END__>
    300009e4:	910b9421 	add	x1, x1, #0x2e5
    300009e8:	38604820 	ldrb	w0, [x1, w0, uxtw]
    300009ec:	a8c17bfd 	ldp	x29, x30, [sp], #16
    300009f0:	d65f03c0 	ret
    300009f4:	d3545c20 	ubfx	x0, x1, #20, #4
    300009f8:	340000e0 	cbz	w0, 30000a14 <tegra_get_platform+0x60>
    300009fc:	51000400 	sub	w0, w0, #0x1
    30000a00:	71001c1f 	cmp	w0, #0x7
    30000a04:	540000c8 	b.hi	30000a1c <tegra_get_platform+0x68>  // b.pmore
    30000a08:	d0000061 	adrp	x1, 3000e000 <__TEXT_END__>
    30000a0c:	910bb021 	add	x1, x1, #0x2ec
    30000a10:	17fffff6 	b	300009e8 <tegra_get_platform+0x34>
    30000a14:	52800000 	mov	w0, #0x0                   	// #0
    30000a18:	17fffff5 	b	300009ec <tegra_get_platform+0x38>
    30000a1c:	528000e0 	mov	w0, #0x7                   	// #7
    30000a20:	17fffff3 	b	300009ec <tegra_get_platform+0x38>

0000000030000a24 <tegra_chipid_is_t186>:
    30000a24:	d2800080 	mov	x0, #0x4                   	// #4
    30000a28:	f2a00200 	movk	x0, #0x10, lsl #16
    30000a2c:	b9400000 	ldr	w0, [x0]
    30000a30:	d3483c00 	ubfx	x0, x0, #8, #8
    30000a34:	7100601f 	cmp	w0, #0x18
    30000a38:	1a9f17e0 	cset	w0, eq  // eq = none
    30000a3c:	d65f03c0 	ret

0000000030000a40 <tegra_platform_is_silicon>:
    30000a40:	a9bf7bfd 	stp	x29, x30, [sp, #-16]!
    30000a44:	910003fd 	mov	x29, sp
    30000a48:	97ffffdb 	bl	300009b4 <tegra_get_platform>
    30000a4c:	7100001f 	cmp	w0, #0x0
    30000a50:	1a9f17e0 	cset	w0, eq  // eq = none
    30000a54:	a8c17bfd 	ldp	x29, x30, [sp], #16
    30000a58:	d65f03c0 	ret

0000000030000a5c <tegra_platform_is_linsim>:
    30000a5c:	a9bf7bfd 	stp	x29, x30, [sp, #-16]!
    30000a60:	910003fd 	mov	x29, sp
    30000a64:	97ffffd4 	bl	300009b4 <tegra_get_platform>
    30000a68:	51001000 	sub	w0, w0, #0x4
    30000a6c:	7100041f 	cmp	w0, #0x1
    30000a70:	1a9f87e0 	cset	w0, ls  // ls = plast
    30000a74:	a8c17bfd 	ldp	x29, x30, [sp], #16
    30000a78:	d65f03c0 	ret

0000000030000a7c <tegra_platform_is_fpga>:
    30000a7c:	a9bf7bfd 	stp	x29, x30, [sp, #-16]!
    30000a80:	910003fd 	mov	x29, sp
    30000a84:	97ffffcc 	bl	300009b4 <tegra_get_platform>
    30000a88:	7100081f 	cmp	w0, #0x2
    30000a8c:	1a9f17e0 	cset	w0, eq  // eq = none
    30000a90:	a8c17bfd 	ldp	x29, x30, [sp], #16
    30000a94:	d65f03c0 	ret

0000000030000a98 <tegra_platform_is_virt_dev_kit>:
    30000a98:	a9bf7bfd 	stp	x29, x30, [sp, #-16]!
    30000a9c:	910003fd 	mov	x29, sp
    30000aa0:	97ffffc5 	bl	300009b4 <tegra_get_platform>
    30000aa4:	7100181f 	cmp	w0, #0x6
    30000aa8:	1a9f17e0 	cset	w0, eq  // eq = none
    30000aac:	a8c17bfd 	ldp	x29, x30, [sp], #16
    30000ab0:	d65f03c0 	ret

0000000030000ab4 <tegra_get_sys_suspend_power_state>:
    30000ab4:	52800041 	mov	w1, #0x2                   	// #2
    30000ab8:	39000001 	strb	w1, [x0]
    30000abc:	39000401 	strb	w1, [x0, #1]
    30000ac0:	39000801 	strb	w1, [x0, #2]
    30000ac4:	d65f03c0 	ret

0000000030000ac8 <tegra_validate_ns_entrypoint>:
    30000ac8:	b26183e1 	mov	x1, #0xffffffff80000000    	// #-2147483648
    30000acc:	8b010000 	add	x0, x0, x1
    30000ad0:	b24083e1 	mov	x1, #0x1ffffffff           	// #8589934591
    30000ad4:	eb01001f 	cmp	x0, x1
    30000ad8:	12800100 	mov	w0, #0xfffffff7            	// #-9
    30000adc:	1a9f8000 	csel	w0, w0, wzr, hi  // hi = pmore
    30000ae0:	d65f03c0 	ret

0000000030000ae4 <tegra_cpu_standby>:
    30000ae4:	a9bf7bfd 	stp	x29, x30, [sp, #-16]!
    30000ae8:	910003fd 	mov	x29, sp
    30000aec:	94000c1b 	bl	30003b58 <tegra_soc_cpu_standby>
    30000af0:	340000c0 	cbz	w0, 30000b08 <tegra_cpu_standby+0x24>
    30000af4:	d0000061 	adrp	x1, 3000e000 <__TEXT_END__>
    30000af8:	d0000060 	adrp	x0, 3000e000 <__TEXT_END__>
    30000afc:	910bd021 	add	x1, x1, #0x2f4
    30000b00:	910c1800 	add	x0, x0, #0x306
    30000b04:	94001a08 	bl	30007324 <tf_printf>
    30000b08:	d53e1100 	mrs	x0, scr_el3
    30000b0c:	b27f0001 	orr	x1, x0, #0x2
    30000b10:	d51e1101 	msr	scr_el3, x1
    30000b14:	d5033fdf 	isb
    30000b18:	d5033f9f 	dsb	sy
    30000b1c:	d503207f 	wfi
    30000b20:	d51e1100 	msr	scr_el3, x0
    30000b24:	a8c17bfd 	ldp	x29, x30, [sp], #16
    30000b28:	d65f03c0 	ret

0000000030000b2c <tegra_pwr_domain_on>:
    30000b2c:	14000ca2 	b	30003db4 <tegra_soc_pwr_domain_on>

0000000030000b30 <tegra_pwr_domain_off>:
    30000b30:	14000cec 	b	30003ee0 <tegra_soc_pwr_domain_off>

0000000030000b34 <tegra_pwr_domain_suspend>:
    30000b34:	a9be7bfd 	stp	x29, x30, [sp, #-32]!
    30000b38:	910003fd 	mov	x29, sp
    30000b3c:	f9000bf3 	str	x19, [sp, #16]
    30000b40:	aa0003f3 	mov	x19, x0
    30000b44:	94000c07 	bl	30003b60 <tegra_soc_pwr_domain_suspend>
    30000b48:	39400a60 	ldrb	w0, [x19, #2]
    30000b4c:	7100081f 	cmp	w0, #0x2
    30000b50:	54000041 	b.ne	30000b58 <tegra_pwr_domain_suspend+0x24>  // b.any
    30000b54:	94001f3f 	bl	30008850 <console_uninit>
    30000b58:	f9400bf3 	ldr	x19, [sp, #16]
    30000b5c:	a8c27bfd 	ldp	x29, x30, [sp], #32
    30000b60:	14000341 	b	30001864 <tegra_gic_cpuif_deactivate>

0000000030000b64 <tegra_pwr_domain_power_down_wfi>:
    30000b64:	a9bf7bfd 	stp	x29, x30, [sp, #-16]!
    30000b68:	910003fd 	mov	x29, sp
    30000b6c:	94000cf4 	bl	30003f3c <tegra_soc_pwr_domain_power_down_wfi>
    30000b70:	d503207f 	wfi
    30000b74:	94002ba0 	bl	3000b9f4 <do_panic>

0000000030000b78 <tegra_pwr_domain_on_finish>:
    30000b78:	a9be7bfd 	stp	x29, x30, [sp, #-32]!
    30000b7c:	910003fd 	mov	x29, sp
    30000b80:	a90153f3 	stp	x19, x20, [sp, #16]
    30000b84:	aa0003f3 	mov	x19, x0
    30000b88:	94001f40 	bl	30008888 <tegra_get_console_base>
    30000b8c:	aa0003f4 	mov	x20, x0
    30000b90:	39400a60 	ldrb	w0, [x19, #2]
    30000b94:	7100081f 	cmp	w0, #0x2
    30000b98:	54000341 	b.ne	30000c00 <tegra_pwr_domain_on_finish+0x88>  // b.any
    30000b9c:	94000339 	bl	30001880 <tegra_gic_init>
    30000ba0:	97ffffb7 	bl	30000a7c <tegra_platform_is_fpga>
    30000ba4:	72001c1f 	tst	w0, #0xff
    30000ba8:	528ba801 	mov	w1, #0x5d40                	// #23872
    30000bac:	5292c000 	mov	w0, #0x9600                	// #38400
    30000bb0:	72a018c1 	movk	w1, #0xc6, lsl #16
    30000bb4:	72a30a20 	movk	w0, #0x1851, lsl #16
    30000bb8:	1a801021 	csel	w1, w1, w0, ne  // ne = any
    30000bbc:	b40000b4 	cbz	x20, 30000bd0 <tegra_pwr_domain_on_finish+0x58>
    30000bc0:	52984002 	mov	w2, #0xc200                	// #49664
    30000bc4:	aa1403e0 	mov	x0, x20
    30000bc8:	72a00022 	movk	w2, #0x1, lsl #16
    30000bcc:	94001f1c 	bl	3000883c <console_init>
    30000bd0:	940004b4 	bl	30001ea0 <tegra_memctrl_restore_settings>
    30000bd4:	97fffe1e 	bl	3000044c <bl31_get_plat_params>
    30000bd8:	b9400001 	ldr	w1, [x0]
    30000bdc:	f9400400 	ldr	x0, [x0, #8]
    30000be0:	940004d5 	bl	30001f34 <tegra_memctrl_tzdram_setup>
    30000be4:	52a00081 	mov	w1, #0x40000               	// #262144
    30000be8:	d2a60000 	mov	x0, #0x30000000            	// #805306368
    30000bec:	940004d4 	bl	30001f3c <tegra_memctrl_tzram_setup>
    30000bf0:	aa1303e0 	mov	x0, x19
    30000bf4:	a94153f3 	ldp	x19, x20, [sp, #16]
    30000bf8:	a8c27bfd 	ldp	x29, x30, [sp], #32
    30000bfc:	14000c84 	b	30003e0c <tegra_soc_pwr_domain_on_finish>
    30000c00:	94000381 	bl	30001a04 <tegra_gic_pcpu_init>
    30000c04:	17fffffb 	b	30000bf0 <tegra_pwr_domain_on_finish+0x78>

0000000030000c08 <tegra_pwr_domain_suspend_finish>:
    30000c08:	17ffffdc 	b	30000b78 <tegra_pwr_domain_on_finish>

0000000030000c0c <tegra_system_off>:
    30000c0c:	a9bf7bfd 	stp	x29, x30, [sp, #-16]!
    30000c10:	910003fd 	mov	x29, sp
    30000c14:	94000cc2 	bl	30003f1c <tegra_soc_prepare_system_off>

0000000030000c18 <tegra_system_reset>:
    30000c18:	a9bf7bfd 	stp	x29, x30, [sp, #-16]!
    30000c1c:	910003fd 	mov	x29, sp
    30000c20:	94000cc3 	bl	30003f2c <tegra_soc_prepare_system_reset>
    30000c24:	14000000 	b	30000c24 <tegra_system_reset+0xc>

0000000030000c28 <tegra_validate_power_state>:
    30000c28:	b5000121 	cbnz	x1, 30000c4c <tegra_validate_power_state+0x24>
    30000c2c:	a9bf7bfd 	stp	x29, x30, [sp, #-16]!
    30000c30:	d0000062 	adrp	x2, 3000e000 <__TEXT_END__>
    30000c34:	d0000060 	adrp	x0, 3000e000 <__TEXT_END__>
    30000c38:	910c6842 	add	x2, x2, #0x31a
    30000c3c:	910003fd 	mov	x29, sp
    30000c40:	52801d81 	mov	w1, #0xec                  	// #236
    30000c44:	910cb000 	add	x0, x0, #0x32c
    30000c48:	94001a81 	bl	3000764c <__assert>
    30000c4c:	14000ba1 	b	30003ad0 <tegra_soc_validate_power_state>

0000000030000c50 <plat_setup_psci_ops>:
    30000c50:	a9bd7bfd 	stp	x29, x30, [sp, #-48]!
    30000c54:	910003fd 	mov	x29, sp
    30000c58:	f9000bf3 	str	x19, [sp, #16]
    30000c5c:	aa0103f3 	mov	x19, x1
    30000c60:	790053bf 	strh	wzr, [x29, #40]
    30000c64:	3900abbf 	strb	wzr, [x29, #42]
    30000c68:	94001f04 	bl	30008878 <tegra_set_sec_entry_point>
    30000c6c:	9100a3a0 	add	x0, x29, #0x28
    30000c70:	94000c67 	bl	30003e0c <tegra_soc_pwr_domain_on_finish>
    30000c74:	94000d72 	bl	3000423c <plat_supports_system_suspend>
    30000c78:	72001c1f 	tst	w0, #0xff
    30000c7c:	d0000080 	adrp	x0, 30012000 <__RODATA_END__>
    30000c80:	54000061 	b.ne	30000c8c <plat_setup_psci_ops+0x3c>  // b.any
    30000c84:	9100e001 	add	x1, x0, #0x38
    30000c88:	f9002c3f 	str	xzr, [x1, #88]
    30000c8c:	9100e000 	add	x0, x0, #0x38
    30000c90:	f9000260 	str	x0, [x19]
    30000c94:	f9400bf3 	ldr	x19, [sp, #16]
    30000c98:	52800000 	mov	w0, #0x0                   	// #0
    30000c9c:	a8c37bfd 	ldp	x29, x30, [sp], #48
    30000ca0:	d65f03c0 	ret

0000000030000ca4 <plat_get_target_pwr_state>:
    30000ca4:	14000bfe 	b	30003c9c <tegra_soc_get_target_pwr_state>

0000000030000ca8 <tegra_sip_handler>:
    30000ca8:	a9bd7bfd 	stp	x29, x30, [sp, #-48]!
    30000cac:	910003fd 	mov	x29, sp
    30000cb0:	a90153f3 	stp	x19, x20, [sp, #16]
    30000cb4:	aa0103f4 	mov	x20, x1
    30000cb8:	a9025bf5 	stp	x21, x22, [sp, #32]
    30000cbc:	aa0603f3 	mov	x19, x6
    30000cc0:	2a0003f5 	mov	w21, w0
    30000cc4:	aa0203f6 	mov	x22, x2
    30000cc8:	94000d7b 	bl	300042b4 <plat_sip_handler>
    30000ccc:	350000e0 	cbnz	w0, 30000ce8 <tegra_sip_handler+0x40>
    30000cd0:	f900027f 	str	xzr, [x19]
    30000cd4:	d2800000 	mov	x0, #0x0                   	// #0
    30000cd8:	a94153f3 	ldp	x19, x20, [sp, #16]
    30000cdc:	a9425bf5 	ldp	x21, x22, [sp, #32]
    30000ce0:	a8c37bfd 	ldp	x29, x30, [sp], #48
    30000ce4:	d65f03c0 	ret
    30000ce8:	528000a0 	mov	w0, #0x5                   	// #5
    30000cec:	72b04000 	movk	w0, #0x8200, lsl #16
    30000cf0:	6b0002bf 	cmp	w21, w0
    30000cf4:	54000520 	b.eq	30000d98 <tegra_sip_handler+0xf0>  // b.none
    30000cf8:	11000400 	add	w0, w0, #0x1
    30000cfc:	6b0002bf 	cmp	w21, w0
    30000d00:	54000580 	b.eq	30000db0 <tegra_sip_handler+0x108>  // b.none
    30000d04:	52800060 	mov	w0, #0x3                   	// #3
    30000d08:	72b04000 	movk	w0, #0x8200, lsl #16
    30000d0c:	6b0002bf 	cmp	w21, w0
    30000d10:	54000541 	b.ne	30000db8 <tegra_sip_handler+0x110>  // b.any
    30000d14:	2a1603e1 	mov	w1, w22
    30000d18:	aa1403e0 	mov	x0, x20
    30000d1c:	97fffe23 	bl	300005a8 <bl31_check_ns_address>
    30000d20:	34000080 	cbz	w0, 30000d30 <tegra_sip_handler+0x88>
    30000d24:	93407c00 	sxtw	x0, w0
    30000d28:	f9000260 	str	x0, [x19]
    30000d2c:	17ffffea 	b	30000cd4 <tegra_sip_handler+0x2c>
    30000d30:	f2404e9f 	tst	x20, #0xfffff
    30000d34:	54000061 	b.ne	30000d40 <tegra_sip_handler+0x98>  // b.any
    30000d38:	f2404edf 	tst	x22, #0xfffff
    30000d3c:	540000c0 	b.eq	30000d54 <tegra_sip_handler+0xac>  // b.none
    30000d40:	d0000060 	adrp	x0, 3000e000 <__TEXT_END__>
    30000d44:	910dc400 	add	x0, x0, #0x371
    30000d48:	94001977 	bl	30007324 <tf_printf>
    30000d4c:	92800580 	mov	x0, #0xffffffffffffffd3    	// #-45
    30000d50:	17fffff6 	b	30000d28 <tegra_sip_handler+0x80>
    30000d54:	d2800615 	mov	x21, #0x30                  	// #48
    30000d58:	f2a0a015 	movk	x21, #0x500, lsl #16
    30000d5c:	b94002a0 	ldr	w0, [x21]
    30000d60:	37000080 	tbnz	w0, #0, 30000d70 <tegra_sip_handler+0xc8>
    30000d64:	d0000060 	adrp	x0, 3000e000 <__TEXT_END__>
    30000d68:	910e8000 	add	x0, x0, #0x3a0
    30000d6c:	17fffff7 	b	30000d48 <tegra_sip_handler+0xa0>
    30000d70:	aa1403e0 	mov	x0, x20
    30000d74:	2a1603e1 	mov	w1, w22
    30000d78:	940004a8 	bl	30002018 <tegra_memctrl_videomem_setup>
    30000d7c:	b94002a0 	ldr	w0, [x21]
    30000d80:	3707fa80 	tbnz	w0, #0, 30000cd0 <tegra_sip_handler+0x28>
    30000d84:	d2800680 	mov	x0, #0x34                  	// #52
    30000d88:	52800021 	mov	w1, #0x1                   	// #1
    30000d8c:	f2a0a000 	movk	x0, #0x500, lsl #16
    30000d90:	b9000001 	str	w1, [x0]
    30000d94:	17ffffcf 	b	30000cd0 <tegra_sip_handler+0x28>
    30000d98:	b5000074 	cbnz	x20, 30000da4 <tegra_sip_handler+0xfc>
    30000d9c:	b2407fe0 	mov	x0, #0xffffffff            	// #4294967295
    30000da0:	17ffffe2 	b	30000d28 <tegra_sip_handler+0x80>
    30000da4:	aa1403e0 	mov	x0, x20
    30000da8:	97fffedf 	bl	30000924 <tegra_fiq_set_ns_entrypoint>
    30000dac:	17ffffc9 	b	30000cd0 <tegra_sip_handler+0x28>
    30000db0:	97fffee0 	bl	30000930 <tegra_fiq_get_intr_context>
    30000db4:	17ffffc8 	b	30000cd4 <tegra_sip_handler+0x2c>
    30000db8:	2a1503e2 	mov	w2, w21
    30000dbc:	d0000061 	adrp	x1, 3000e000 <__TEXT_END__>
    30000dc0:	d0000060 	adrp	x0, 3000e000 <__TEXT_END__>
    30000dc4:	910d4021 	add	x1, x1, #0x350
    30000dc8:	910f5800 	add	x0, x0, #0x3d6
    30000dcc:	94001956 	bl	30007324 <tf_printf>
    30000dd0:	92800000 	mov	x0, #0xffffffffffffffff    	// #-1
    30000dd4:	17ffffd5 	b	30000d28 <tegra_sip_handler+0x80>

0000000030000dd8 <gicd_read_igroupr>:
    30000dd8:	53057c21 	lsr	w1, w1, #5
    30000ddc:	91020000 	add	x0, x0, #0x80
    30000de0:	d37ef421 	lsl	x1, x1, #2
    30000de4:	b8606820 	ldr	w0, [x1, x0]
    30000de8:	d65f03c0 	ret

0000000030000dec <gicd_read_icfgr>:
    30000dec:	53047c21 	lsr	w1, w1, #4
    30000df0:	91300000 	add	x0, x0, #0xc00
    30000df4:	d37ef421 	lsl	x1, x1, #2
    30000df8:	b8606820 	ldr	w0, [x1, x0]
    30000dfc:	d65f03c0 	ret

0000000030000e00 <gicd_write_igroupr>:
    30000e00:	53057c21 	lsr	w1, w1, #5
    30000e04:	91020000 	add	x0, x0, #0x80
    30000e08:	d37ef421 	lsl	x1, x1, #2
    30000e0c:	b8206822 	str	w2, [x1, x0]
    30000e10:	d65f03c0 	ret

0000000030000e14 <gicd_write_isenabler>:
    30000e14:	53057c21 	lsr	w1, w1, #5
    30000e18:	91040000 	add	x0, x0, #0x100
    30000e1c:	d37ef421 	lsl	x1, x1, #2
    30000e20:	b8206822 	str	w2, [x1, x0]
    30000e24:	d65f03c0 	ret

0000000030000e28 <gicd_write_icenabler>:
    30000e28:	53057c21 	lsr	w1, w1, #5
    30000e2c:	91060000 	add	x0, x0, #0x180
    30000e30:	d37ef421 	lsl	x1, x1, #2
    30000e34:	b8206822 	str	w2, [x1, x0]
    30000e38:	d65f03c0 	ret

0000000030000e3c <gicd_write_ipriorityr>:
    30000e3c:	927e7421 	and	x1, x1, #0xfffffffc
    30000e40:	91100000 	add	x0, x0, #0x400
    30000e44:	b8206822 	str	w2, [x1, x0]
    30000e48:	d65f03c0 	ret

0000000030000e4c <gicd_write_icfgr>:
    30000e4c:	53047c21 	lsr	w1, w1, #4
    30000e50:	91300000 	add	x0, x0, #0xc00
    30000e54:	d37ef421 	lsl	x1, x1, #2
    30000e58:	b8206822 	str	w2, [x1, x0]
    30000e5c:	d65f03c0 	ret

0000000030000e60 <gicd_get_igroupr>:
    30000e60:	2a0103e2 	mov	w2, w1
    30000e64:	a9bf7bfd 	stp	x29, x30, [sp, #-16]!
    30000e68:	910003fd 	mov	x29, sp
    30000e6c:	97ffffdb 	bl	30000dd8 <gicd_read_igroupr>
    30000e70:	1ac22400 	lsr	w0, w0, w2
    30000e74:	a8c17bfd 	ldp	x29, x30, [sp], #16
    30000e78:	12000000 	and	w0, w0, #0x1
    30000e7c:	d65f03c0 	ret

0000000030000e80 <gicd_clr_igroupr>:
    30000e80:	2a0103e3 	mov	w3, w1
    30000e84:	aa0003e4 	mov	x4, x0
    30000e88:	a9bf7bfd 	stp	x29, x30, [sp, #-16]!
    30000e8c:	910003fd 	mov	x29, sp
    30000e90:	97ffffd2 	bl	30000dd8 <gicd_read_igroupr>
    30000e94:	2a0303e1 	mov	w1, w3
    30000e98:	a8c17bfd 	ldp	x29, x30, [sp], #16
    30000e9c:	52800022 	mov	w2, #0x1                   	// #1
    30000ea0:	1ac32042 	lsl	w2, w2, w3
    30000ea4:	0a220002 	bic	w2, w0, w2
    30000ea8:	aa0403e0 	mov	x0, x4
    30000eac:	17ffffd5 	b	30000e00 <gicd_write_igroupr>

0000000030000eb0 <gicd_set_isenabler>:
    30000eb0:	52800022 	mov	w2, #0x1                   	// #1
    30000eb4:	1ac12042 	lsl	w2, w2, w1
    30000eb8:	17ffffd7 	b	30000e14 <gicd_write_isenabler>

0000000030000ebc <gicd_set_ipriorityr>:
    30000ebc:	aa0003e5 	mov	x5, x0
    30000ec0:	2a0103e4 	mov	w4, w1
    30000ec4:	2a0203e3 	mov	w3, w2
    30000ec8:	a9bf7bfd 	stp	x29, x30, [sp, #-16]!
    30000ecc:	910003fd 	mov	x29, sp
    30000ed0:	97ffffe4 	bl	30000e60 <gicd_get_igroupr>
    30000ed4:	7100041f 	cmp	w0, #0x1
    30000ed8:	54000161 	b.ne	30000f04 <gicd_set_ipriorityr+0x48>  // b.any
    30000edc:	51020060 	sub	w0, w3, #0x80
    30000ee0:	7101f81f 	cmp	w0, #0x7e
    30000ee4:	1a9f87e0 	cset	w0, ls  // ls = plast
    30000ee8:	35000120 	cbnz	w0, 30000f0c <gicd_set_ipriorityr+0x50>
    30000eec:	d0000062 	adrp	x2, 3000e000 <__TEXT_END__>
    30000ef0:	d0000060 	adrp	x0, 3000e000 <__TEXT_END__>
    30000ef4:	910fe442 	add	x2, x2, #0x3f9
    30000ef8:	52801f61 	mov	w1, #0xfb                  	// #251
    30000efc:	91125000 	add	x0, x0, #0x494
    30000f00:	940019d3 	bl	3000764c <__assert>
    30000f04:	7101fc7f 	cmp	w3, #0x7f
    30000f08:	17fffff7 	b	30000ee4 <gicd_set_ipriorityr+0x28>
    30000f0c:	8b2440a4 	add	x4, x5, w4, uxtw
    30000f10:	12001c63 	and	w3, w3, #0xff
    30000f14:	39100083 	strb	w3, [x4, #1024]
    30000f18:	a8c17bfd 	ldp	x29, x30, [sp], #16
    30000f1c:	d65f03c0 	ret

0000000030000f20 <gicd_set_itargetsr>:
    30000f20:	91200000 	add	x0, x0, #0x800
    30000f24:	2a0103e1 	mov	w1, w1
    30000f28:	12001c42 	and	w2, w2, #0xff
    30000f2c:	38216802 	strb	w2, [x0, x1]
    30000f30:	d65f03c0 	ret

0000000030000f34 <gicv2_interrupt_type_to_line>:
    30000f34:	7100083f 	cmp	w1, #0x2
    30000f38:	540000c0 	b.eq	30000f50 <gicv2_interrupt_type_to_line+0x1c>  // b.none
    30000f3c:	2a0003e0 	mov	w0, w0
    30000f40:	b9400000 	ldr	w0, [x0]
    30000f44:	d3430c00 	ubfx	x0, x0, #3, #1
    30000f48:	11000400 	add	w0, w0, #0x1
    30000f4c:	d65f03c0 	ret
    30000f50:	52800020 	mov	w0, #0x1                   	// #1
    30000f54:	17fffffe 	b	30000f4c <gicv2_interrupt_type_to_line+0x18>

0000000030000f58 <tegra_bpmp_ivc_notify>:
    30000f58:	d2806000 	mov	x0, #0x300                 	// #768
    30000f5c:	52800041 	mov	w1, #0x2                   	// #2
    30000f60:	f2a07920 	movk	x0, #0x3c9, lsl #16
    30000f64:	b9000001 	str	w1, [x0]
    30000f68:	d65f03c0 	ret

0000000030000f6c <tegra_bpmp_ipc_send_req_atomic.constprop.0>:
    30000f6c:	a9bc7bfd 	stp	x29, x30, [sp, #-64]!
    30000f70:	910003fd 	mov	x29, sp
    30000f74:	a90153f3 	stp	x19, x20, [sp, #16]
    30000f78:	d00000b3 	adrp	x19, 30016000 <__STACKS_START__+0x1440>
    30000f7c:	91362273 	add	x19, x19, #0xd88
    30000f80:	a9025bf5 	stp	x21, x22, [sp, #32]
    30000f84:	f9001bf7 	str	x23, [sp, #48]
    30000f88:	aa0103f4 	mov	x20, x1
    30000f8c:	2a0003f7 	mov	w23, w0
    30000f90:	2a0203f6 	mov	w22, w2
    30000f94:	aa1303e0 	mov	x0, x19
    30000f98:	9400013f 	bl	30001494 <tegra_ivc_write_get_next_frame>
    30000f9c:	b5000240 	cbnz	x0, 30000fe4 <tegra_bpmp_ipc_send_req_atomic.constprop.0+0x78>
    30000fa0:	128002b3 	mov	w19, #0xffffffea            	// #-22
    30000fa4:	d0000061 	adrp	x1, 3000e000 <__TEXT_END__>
    30000fa8:	d0000060 	adrp	x0, 3000e000 <__TEXT_END__>
    30000fac:	9112b421 	add	x1, x1, #0x4ad
    30000fb0:	91197c00 	add	x0, x0, #0x65f
    30000fb4:	940018dc 	bl	30007324 <tf_printf>
    30000fb8:	d0000061 	adrp	x1, 3000e000 <__TEXT_END__>
    30000fbc:	d0000060 	adrp	x0, 3000e000 <__TEXT_END__>
    30000fc0:	91132c21 	add	x1, x1, #0x4cb
    30000fc4:	911a4800 	add	x0, x0, #0x692
    30000fc8:	940018d7 	bl	30007324 <tf_printf>
    30000fcc:	2a1303e0 	mov	w0, w19
    30000fd0:	f9401bf7 	ldr	x23, [sp, #48]
    30000fd4:	a94153f3 	ldp	x19, x20, [sp, #16]
    30000fd8:	a9425bf5 	ldp	x21, x22, [sp, #32]
    30000fdc:	a8c47bfd 	ldp	x29, x30, [sp], #64
    30000fe0:	d65f03c0 	ret
    30000fe4:	d00000b5 	adrp	x21, 30016000 <__STACKS_START__+0x1440>
    30000fe8:	9136c2a1 	add	x1, x21, #0xdb0
    30000fec:	2a1603e2 	mov	w2, w22
    30000ff0:	b9000017 	str	w23, [x0]
    30000ff4:	f9000420 	str	x0, [x1, #8]
    30000ff8:	52800021 	mov	w1, #0x1                   	// #1
    30000ffc:	b9000401 	str	w1, [x0, #4]
    30001000:	aa1403e1 	mov	x1, x20
    30001004:	91002000 	add	x0, x0, #0x8
    30001008:	52884814 	mov	w20, #0x4240                	// #16960
    3000100c:	940019a1 	bl	30007690 <memcpy>
    30001010:	72a001f4 	movk	w20, #0xf, lsl #16
    30001014:	aa1303e0 	mov	x0, x19
    30001018:	94000131 	bl	300014dc <tegra_ivc_write_advance>
    3000101c:	d2806000 	mov	x0, #0x300                 	// #768
    30001020:	52800041 	mov	w1, #0x2                   	// #2
    30001024:	f2a07920 	movk	x0, #0x3c9, lsl #16
    30001028:	b9000001 	str	w1, [x0]
    3000102c:	aa1303e0 	mov	x0, x19
    30001030:	940000ed 	bl	300013e4 <tegra_ivc_read_get_next_frame>
    30001034:	b50001c0 	cbnz	x0, 3000106c <tegra_bpmp_ipc_send_req_atomic.constprop.0+0x100>
    30001038:	35000134 	cbnz	w20, 3000105c <tegra_bpmp_ipc_send_req_atomic.constprop.0+0xf0>
    3000103c:	12800762 	mov	w2, #0xffffffc4            	// #-60
    30001040:	b0000061 	adrp	x1, 3000e000 <__TEXT_END__>
    30001044:	b0000060 	adrp	x0, 3000e000 <__TEXT_END__>
    30001048:	91132c21 	add	x1, x1, #0x4cb
    3000104c:	911af000 	add	x0, x0, #0x6bc
    30001050:	12800773 	mov	w19, #0xffffffc4            	// #-60
    30001054:	940018b4 	bl	30007324 <tf_printf>
    30001058:	17ffffdd 	b	30000fcc <tegra_bpmp_ipc_send_req_atomic.constprop.0+0x60>
    3000105c:	52800020 	mov	w0, #0x1                   	// #1
    30001060:	51000694 	sub	w20, w20, #0x1
    30001064:	97fffc40 	bl	30000164 <udelay>
    30001068:	17fffff1 	b	3000102c <tegra_bpmp_ipc_send_req_atomic.constprop.0+0xc0>
    3000106c:	f906daa0 	str	x0, [x21, #3504]
    30001070:	34fffe74 	cbz	w20, 3000103c <tegra_bpmp_ipc_send_req_atomic.constprop.0+0xd0>
    30001074:	aa1303e0 	mov	x0, x19
    30001078:	940000ee 	bl	30001430 <tegra_ivc_read_advance>
    3000107c:	2a0003f3 	mov	w19, w0
    30001080:	36fffa60 	tbz	w0, #31, 30000fcc <tegra_bpmp_ipc_send_req_atomic.constprop.0+0x60>
    30001084:	2a0003e2 	mov	w2, w0
    30001088:	b0000061 	adrp	x1, 3000e000 <__TEXT_END__>
    3000108c:	b0000060 	adrp	x0, 3000e000 <__TEXT_END__>
    30001090:	91132c21 	add	x1, x1, #0x4cb
    30001094:	911b9400 	add	x0, x0, #0x6e5
    30001098:	940018a3 	bl	30007324 <tf_printf>
    3000109c:	17ffffcc 	b	30000fcc <tegra_bpmp_ipc_send_req_atomic.constprop.0+0x60>

00000000300010a0 <tegra_bpmp_ipc_init>:
    300010a0:	d2802081 	mov	x1, #0x104                 	// #260
    300010a4:	a9bd7bfd 	stp	x29, x30, [sp, #-48]!
    300010a8:	f2a07921 	movk	x1, #0x3c9, lsl #16
    300010ac:	910003fd 	mov	x29, sp
    300010b0:	b9400020 	ldr	w0, [x1]
    300010b4:	a90153f3 	stp	x19, x20, [sp, #16]
    300010b8:	52884813 	mov	w19, #0x4240                	// #16960
    300010bc:	a9025bf5 	stp	x21, x22, [sp, #32]
    300010c0:	d2806094 	mov	x20, #0x304                 	// #772
    300010c4:	320d0000 	orr	w0, w0, #0x80000
    300010c8:	72a001f3 	movk	w19, #0xf, lsl #16
    300010cc:	f2a07934 	movk	x20, #0x3c9, lsl #16
    300010d0:	b9000020 	str	w0, [x1]
    300010d4:	b9400280 	ldr	w0, [x20]
    300010d8:	36080220 	tbz	w0, #1, 3000111c <tegra_bpmp_ipc_init+0x7c>
    300010dc:	d2801000 	mov	x0, #0x80                  	// #128
    300010e0:	9400014c 	bl	30001610 <tegra_ivc_align>
    300010e4:	9400014e 	bl	3000161c <tegra_ivc_total_queue_size>
    300010e8:	7140041f 	cmp	w0, #0x1, lsl #12
    300010ec:	540002e9 	b.ls	30001148 <tegra_bpmp_ipc_init+0xa8>  // b.plast
    300010f0:	128002b3 	mov	w19, #0xffffffea            	// #-22
    300010f4:	b0000061 	adrp	x1, 3000e000 <__TEXT_END__>
    300010f8:	b0000060 	adrp	x0, 3000e000 <__TEXT_END__>
    300010fc:	9113a821 	add	x1, x1, #0x4ea
    30001100:	9114dc00 	add	x0, x0, #0x537
    30001104:	94001888 	bl	30007324 <tf_printf>
    30001108:	2a1303e0 	mov	w0, w19
    3000110c:	a94153f3 	ldp	x19, x20, [sp, #16]
    30001110:	a9425bf5 	ldp	x21, x22, [sp, #32]
    30001114:	a8c37bfd 	ldp	x29, x30, [sp], #48
    30001118:	d65f03c0 	ret
    3000111c:	52800020 	mov	w0, #0x1                   	// #1
    30001120:	97fffc11 	bl	30000164 <udelay>
    30001124:	71000673 	subs	w19, w19, #0x1
    30001128:	54fffd61 	b.ne	300010d4 <tegra_bpmp_ipc_init+0x34>  // b.any
    3000112c:	b0000061 	adrp	x1, 3000e000 <__TEXT_END__>
    30001130:	b0000060 	adrp	x0, 3000e000 <__TEXT_END__>
    30001134:	9113a821 	add	x1, x1, #0x4ea
    30001138:	91162000 	add	x0, x0, #0x588
    3000113c:	12800593 	mov	w19, #0xffffffd3            	// #-45
    30001140:	94001879 	bl	30007324 <tf_printf>
    30001144:	17fffff1 	b	30001108 <tegra_bpmp_ipc_init+0x68>
    30001148:	b00000b4 	adrp	x20, 30016000 <__STACKS_START__+0x1440>
    3000114c:	d2980002 	mov	x2, #0xc000                	// #49152
    30001150:	91362294 	add	x20, x20, #0xd88
    30001154:	d29a0001 	mov	x1, #0xd000                	// #53248
    30001158:	2a0003e4 	mov	w4, w0
    3000115c:	f0ffffe5 	adrp	x5, 30000000 <bl31_entrypoint>
    30001160:	52800023 	mov	w3, #0x1                   	// #1
    30001164:	913d60a5 	add	x5, x5, #0xf58
    30001168:	f2a60082 	movk	x2, #0x3004, lsl #16
    3000116c:	f2a60081 	movk	x1, #0x3004, lsl #16
    30001170:	aa1403e0 	mov	x0, x20
    30001174:	94000138 	bl	30001654 <tegra_ivc_init>
    30001178:	2a0003f3 	mov	w19, w0
    3000117c:	34000100 	cbz	w0, 3000119c <tegra_bpmp_ipc_init+0xfc>
    30001180:	2a0003e2 	mov	w2, w0
    30001184:	b0000061 	adrp	x1, 3000e000 <__TEXT_END__>
    30001188:	b0000060 	adrp	x0, 3000e000 <__TEXT_END__>
    3000118c:	9113a821 	add	x1, x1, #0x4ea
    30001190:	91159400 	add	x0, x0, #0x565
    30001194:	94001864 	bl	30007324 <tf_printf>
    30001198:	17ffffdc 	b	30001108 <tegra_bpmp_ipc_init+0x68>
    3000119c:	d2806015 	mov	x21, #0x300                 	// #768
    300011a0:	52800056 	mov	w22, #0x2                   	// #2
    300011a4:	f2a07935 	movk	x21, #0x3c9, lsl #16
    300011a8:	aa1403e0 	mov	x0, x20
    300011ac:	940000e4 	bl	3000153c <tegra_ivc_channel_reset>
    300011b0:	aa1403e0 	mov	x0, x20
    300011b4:	940000e7 	bl	30001550 <tegra_ivc_channel_notified>
    300011b8:	2a0003f3 	mov	w19, w0
    300011bc:	34fffa60 	cbz	w0, 30001108 <tegra_bpmp_ipc_init+0x68>
    300011c0:	b90002b6 	str	w22, [x21]
    300011c4:	17fffffb 	b	300011b0 <tegra_bpmp_ipc_init+0x110>

00000000300011c8 <tegra_bpmp_ipc_enable_clock>:
    300011c8:	a9bd7bfd 	stp	x29, x30, [sp, #-48]!
    300011cc:	71019c1f 	cmp	w0, #0x67
    300011d0:	7a401804 	ccmp	w0, #0x0, #0x4, ne  // ne = any
    300011d4:	910003fd 	mov	x29, sp
    300011d8:	a90153f3 	stp	x19, x20, [sp, #16]
    300011dc:	540002c1 	b.ne	30001234 <tegra_bpmp_ipc_enable_clock+0x6c>  // b.any
    300011e0:	9100c3a1 	add	x1, x29, #0x30
    300011e4:	2a0003f3 	mov	w19, w0
    300011e8:	12005c00 	and	w0, w0, #0xffffff
    300011ec:	52800082 	mov	w2, #0x4                   	// #4
    300011f0:	32080800 	orr	w0, w0, #0x7000000
    300011f4:	b81f8c20 	str	w0, [x1, #-8]!
    300011f8:	528002c0 	mov	w0, #0x16                  	// #22
    300011fc:	97ffff5c 	bl	30000f6c <tegra_bpmp_ipc_send_req_atomic.constprop.0>
    30001200:	2a0003f4 	mov	w20, w0
    30001204:	34000100 	cbz	w0, 30001224 <tegra_bpmp_ipc_enable_clock+0x5c>
    30001208:	2a0003e3 	mov	w3, w0
    3000120c:	b0000061 	adrp	x1, 3000e000 <__TEXT_END__>
    30001210:	b0000060 	adrp	x0, 3000e000 <__TEXT_END__>
    30001214:	2a1303e2 	mov	w2, w19
    30001218:	9113f821 	add	x1, x1, #0x4fe
    3000121c:	9118b800 	add	x0, x0, #0x62e
    30001220:	94001841 	bl	30007324 <tf_printf>
    30001224:	2a1403e0 	mov	w0, w20
    30001228:	a94153f3 	ldp	x19, x20, [sp, #16]
    3000122c:	a8c37bfd 	ldp	x29, x30, [sp], #48
    30001230:	d65f03c0 	ret
    30001234:	12800594 	mov	w20, #0xffffffd3            	// #-45
    30001238:	17fffffb 	b	30001224 <tegra_bpmp_ipc_enable_clock+0x5c>

000000003000123c <tegra_bpmp_ipc_disable_clock>:
    3000123c:	a9bd7bfd 	stp	x29, x30, [sp, #-48]!
    30001240:	71019c1f 	cmp	w0, #0x67
    30001244:	7a401804 	ccmp	w0, #0x0, #0x4, ne  // ne = any
    30001248:	910003fd 	mov	x29, sp
    3000124c:	a90153f3 	stp	x19, x20, [sp, #16]
    30001250:	540002c1 	b.ne	300012a8 <tegra_bpmp_ipc_disable_clock+0x6c>  // b.any
    30001254:	9100c3a1 	add	x1, x29, #0x30
    30001258:	2a0003f3 	mov	w19, w0
    3000125c:	12005c00 	and	w0, w0, #0xffffff
    30001260:	52800082 	mov	w2, #0x4                   	// #4
    30001264:	32050000 	orr	w0, w0, #0x8000000
    30001268:	b81f8c20 	str	w0, [x1, #-8]!
    3000126c:	528002c0 	mov	w0, #0x16                  	// #22
    30001270:	97ffff3f 	bl	30000f6c <tegra_bpmp_ipc_send_req_atomic.constprop.0>
    30001274:	2a0003f4 	mov	w20, w0
    30001278:	34000100 	cbz	w0, 30001298 <tegra_bpmp_ipc_disable_clock+0x5c>
    3000127c:	2a0003e3 	mov	w3, w0
    30001280:	b0000061 	adrp	x1, 3000e000 <__TEXT_END__>
    30001284:	b0000060 	adrp	x0, 3000e000 <__TEXT_END__>
    30001288:	2a1303e2 	mov	w2, w19
    3000128c:	91146821 	add	x1, x1, #0x51a
    30001290:	9118b800 	add	x0, x0, #0x62e
    30001294:	94001824 	bl	30007324 <tf_printf>
    30001298:	2a1403e0 	mov	w0, w20
    3000129c:	a94153f3 	ldp	x19, x20, [sp, #16]
    300012a0:	a8c37bfd 	ldp	x29, x30, [sp], #48
    300012a4:	d65f03c0 	ret
    300012a8:	12800594 	mov	w20, #0xffffffd3            	// #-45
    300012ac:	17fffffb 	b	30001298 <tegra_bpmp_ipc_disable_clock+0x5c>

00000000300012b0 <ivc_advance_tx>:
    300012b0:	f9400402 	ldr	x2, [x0, #8]
    300012b4:	b9400041 	ldr	w1, [x2]
    300012b8:	11000421 	add	w1, w1, #0x1
    300012bc:	b9000041 	str	w1, [x2]
    300012c0:	b9402002 	ldr	w2, [x0, #32]
    300012c4:	b9401001 	ldr	w1, [x0, #16]
    300012c8:	51000442 	sub	w2, w2, #0x1
    300012cc:	6b02003f 	cmp	w1, w2
    300012d0:	1a8107e1 	csinc	w1, wzr, w1, eq  // eq = none
    300012d4:	b9001001 	str	w1, [x0, #16]
    300012d8:	d65f03c0 	ret

00000000300012dc <ivc_advance_rx>:
    300012dc:	f9400002 	ldr	x2, [x0]
    300012e0:	b9404041 	ldr	w1, [x2, #64]
    300012e4:	11000421 	add	w1, w1, #0x1
    300012e8:	b9004041 	str	w1, [x2, #64]
    300012ec:	b9402002 	ldr	w2, [x0, #32]
    300012f0:	b9401401 	ldr	w1, [x0, #20]
    300012f4:	51000442 	sub	w2, w2, #0x1
    300012f8:	6b02003f 	cmp	w1, w2
    300012fc:	1a8107e1 	csinc	w1, wzr, w1, eq  // eq = none
    30001300:	b9001401 	str	w1, [x0, #20]
    30001304:	d65f03c0 	ret

0000000030001308 <ivc_check_write>:
    30001308:	f9400401 	ldr	x1, [x0, #8]
    3000130c:	b9400422 	ldr	w2, [x1, #4]
    30001310:	350001c2 	cbnz	w2, 30001348 <ivc_check_write+0x40>
    30001314:	b9402002 	ldr	w2, [x0, #32]
    30001318:	b9400020 	ldr	w0, [x1]
    3000131c:	b9404023 	ldr	w3, [x1, #64]
    30001320:	4b030000 	sub	w0, w0, w3
    30001324:	6b00005f 	cmp	w2, w0
    30001328:	54000148 	b.hi	30001350 <ivc_check_write+0x48>  // b.pmore
    3000132c:	b9400020 	ldr	w0, [x1]
    30001330:	b9404021 	ldr	w1, [x1, #64]
    30001334:	4b010000 	sub	w0, w0, w1
    30001338:	6b00005f 	cmp	w2, w0
    3000133c:	12800160 	mov	w0, #0xfffffff4            	// #-12
    30001340:	1a8083e0 	csel	w0, wzr, w0, hi  // hi = pmore
    30001344:	d65f03c0 	ret
    30001348:	128006a0 	mov	w0, #0xffffffca            	// #-54
    3000134c:	17fffffe 	b	30001344 <ivc_check_write+0x3c>
    30001350:	52800000 	mov	w0, #0x0                   	// #0
    30001354:	17fffffc 	b	30001344 <ivc_check_write+0x3c>

0000000030001358 <ivc_frame_pointer.part.4>:
    30001358:	a9bf7bfd 	stp	x29, x30, [sp, #-16]!
    3000135c:	b0000062 	adrp	x2, 3000e000 <__TEXT_END__>
    30001360:	b0000060 	adrp	x0, 3000e000 <__TEXT_END__>
    30001364:	911c2c42 	add	x2, x2, #0x70b
    30001368:	910003fd 	mov	x29, sp
    3000136c:	52801c01 	mov	w1, #0xe0                  	// #224
    30001370:	911c8000 	add	x0, x0, #0x720
    30001374:	940018b6 	bl	3000764c <__assert>

0000000030001378 <ivc_check_read>:
    30001378:	f9400401 	ldr	x1, [x0, #8]
    3000137c:	b9400421 	ldr	w1, [x1, #4]
    30001380:	35000261 	cbnz	w1, 300013cc <ivc_check_read+0x54>
    30001384:	f9400001 	ldr	x1, [x0]
    30001388:	b9402003 	ldr	w3, [x0, #32]
    3000138c:	b9400022 	ldr	w2, [x1]
    30001390:	b9404020 	ldr	w0, [x1, #64]
    30001394:	4b000044 	sub	w4, w2, w0
    30001398:	6b04007f 	cmp	w3, w4
    3000139c:	54000063 	b.cc	300013a8 <ivc_check_read+0x30>  // b.lo, b.ul, b.last
    300013a0:	6b00005f 	cmp	w2, w0
    300013a4:	54000181 	b.ne	300013d4 <ivc_check_read+0x5c>  // b.any
    300013a8:	b9400022 	ldr	w2, [x1]
    300013ac:	b9404020 	ldr	w0, [x1, #64]
    300013b0:	4b000041 	sub	w1, w2, w0
    300013b4:	6b01007f 	cmp	w3, w1
    300013b8:	54000123 	b.cc	300013dc <ivc_check_read+0x64>  // b.lo, b.ul, b.last
    300013bc:	6b00005f 	cmp	w2, w0
    300013c0:	12800160 	mov	w0, #0xfffffff4            	// #-12
    300013c4:	1a8013e0 	csel	w0, wzr, w0, ne  // ne = any
    300013c8:	d65f03c0 	ret
    300013cc:	128006a0 	mov	w0, #0xffffffca            	// #-54
    300013d0:	17fffffe 	b	300013c8 <ivc_check_read+0x50>
    300013d4:	52800000 	mov	w0, #0x0                   	// #0
    300013d8:	17fffffc 	b	300013c8 <ivc_check_read+0x50>
    300013dc:	12800160 	mov	w0, #0xfffffff4            	// #-12
    300013e0:	17fffffa 	b	300013c8 <ivc_check_read+0x50>

00000000300013e4 <tegra_ivc_read_get_next_frame>:
    300013e4:	aa0003e5 	mov	x5, x0
    300013e8:	a9bf7bfd 	stp	x29, x30, [sp, #-16]!
    300013ec:	910003fd 	mov	x29, sp
    300013f0:	97ffffe2 	bl	30001378 <ivc_check_read>
    300013f4:	350001a0 	cbnz	w0, 30001428 <tegra_ivc_read_get_next_frame+0x44>
    300013f8:	d5033dbf 	dmb	ld
    300013fc:	b94014a0 	ldr	w0, [x5, #20]
    30001400:	b94020a2 	ldr	w2, [x5, #32]
    30001404:	f94000a1 	ldr	x1, [x5]
    30001408:	6b02001f 	cmp	w0, w2
    3000140c:	54000043 	b.cc	30001414 <tegra_ivc_read_get_next_frame+0x30>  // b.lo, b.ul, b.last
    30001410:	97ffffd2 	bl	30001358 <ivc_frame_pointer.part.4>
    30001414:	b94024a2 	ldr	w2, [x5, #36]
    30001418:	91020021 	add	x1, x1, #0x80
    3000141c:	9ba20400 	umaddl	x0, w0, w2, x1
    30001420:	a8c17bfd 	ldp	x29, x30, [sp], #16
    30001424:	d65f03c0 	ret
    30001428:	d2800000 	mov	x0, #0x0                   	// #0
    3000142c:	17fffffd 	b	30001420 <tegra_ivc_read_get_next_frame+0x3c>

0000000030001430 <tegra_ivc_read_advance>:
    30001430:	a9be7bfd 	stp	x29, x30, [sp, #-32]!
    30001434:	aa0003e5 	mov	x5, x0
    30001438:	910003fd 	mov	x29, sp
    3000143c:	f9000bf3 	str	x19, [sp, #16]
    30001440:	97ffffce 	bl	30001378 <ivc_check_read>
    30001444:	2a0003f3 	mov	w19, w0
    30001448:	350001e0 	cbnz	w0, 30001484 <tegra_ivc_read_advance+0x54>
    3000144c:	aa0503e0 	mov	x0, x5
    30001450:	97ffffa3 	bl	300012dc <ivc_advance_rx>
    30001454:	d5033bbf 	dmb	ish
    30001458:	f94000a1 	ldr	x1, [x5]
    3000145c:	b9400020 	ldr	w0, [x1]
    30001460:	b9404022 	ldr	w2, [x1, #64]
    30001464:	b94020a1 	ldr	w1, [x5, #32]
    30001468:	4b020000 	sub	w0, w0, w2
    3000146c:	51000421 	sub	w1, w1, #0x1
    30001470:	6b00003f 	cmp	w1, w0
    30001474:	54000081 	b.ne	30001484 <tegra_ivc_read_advance+0x54>  // b.any
    30001478:	f9400ca1 	ldr	x1, [x5, #24]
    3000147c:	aa0503e0 	mov	x0, x5
    30001480:	d63f0020 	blr	x1
    30001484:	2a1303e0 	mov	w0, w19
    30001488:	f9400bf3 	ldr	x19, [sp, #16]
    3000148c:	a8c27bfd 	ldp	x29, x30, [sp], #32
    30001490:	d65f03c0 	ret

0000000030001494 <tegra_ivc_write_get_next_frame>:
    30001494:	aa0003e4 	mov	x4, x0
    30001498:	a9bf7bfd 	stp	x29, x30, [sp, #-16]!
    3000149c:	910003fd 	mov	x29, sp
    300014a0:	97ffff9a 	bl	30001308 <ivc_check_write>
    300014a4:	35000180 	cbnz	w0, 300014d4 <tegra_ivc_write_get_next_frame+0x40>
    300014a8:	b9401080 	ldr	w0, [x4, #16]
    300014ac:	b9402082 	ldr	w2, [x4, #32]
    300014b0:	f9400481 	ldr	x1, [x4, #8]
    300014b4:	6b02001f 	cmp	w0, w2
    300014b8:	54000043 	b.cc	300014c0 <tegra_ivc_write_get_next_frame+0x2c>  // b.lo, b.ul, b.last
    300014bc:	97ffffa7 	bl	30001358 <ivc_frame_pointer.part.4>
    300014c0:	b9402482 	ldr	w2, [x4, #36]
    300014c4:	91020021 	add	x1, x1, #0x80
    300014c8:	9ba20400 	umaddl	x0, w0, w2, x1
    300014cc:	a8c17bfd 	ldp	x29, x30, [sp], #16
    300014d0:	d65f03c0 	ret
    300014d4:	d2800000 	mov	x0, #0x0                   	// #0
    300014d8:	17fffffd 	b	300014cc <tegra_ivc_write_get_next_frame+0x38>

00000000300014dc <tegra_ivc_write_advance>:
    300014dc:	a9be7bfd 	stp	x29, x30, [sp, #-32]!
    300014e0:	aa0003e4 	mov	x4, x0
    300014e4:	910003fd 	mov	x29, sp
    300014e8:	f9000bf3 	str	x19, [sp, #16]
    300014ec:	97ffff87 	bl	30001308 <ivc_check_write>
    300014f0:	2a0003f3 	mov	w19, w0
    300014f4:	350001c0 	cbnz	w0, 3000152c <tegra_ivc_write_advance+0x50>
    300014f8:	d5033ebf 	dmb	st
    300014fc:	aa0403e0 	mov	x0, x4
    30001500:	97ffff6c 	bl	300012b0 <ivc_advance_tx>
    30001504:	d5033bbf 	dmb	ish
    30001508:	f9400481 	ldr	x1, [x4, #8]
    3000150c:	b9400020 	ldr	w0, [x1]
    30001510:	b9404021 	ldr	w1, [x1, #64]
    30001514:	4b010000 	sub	w0, w0, w1
    30001518:	7100041f 	cmp	w0, #0x1
    3000151c:	54000081 	b.ne	3000152c <tegra_ivc_write_advance+0x50>  // b.any
    30001520:	f9400c81 	ldr	x1, [x4, #24]
    30001524:	aa0403e0 	mov	x0, x4
    30001528:	d63f0020 	blr	x1
    3000152c:	2a1303e0 	mov	w0, w19
    30001530:	f9400bf3 	ldr	x19, [sp, #16]
    30001534:	a8c27bfd 	ldp	x29, x30, [sp], #32
    30001538:	d65f03c0 	ret

000000003000153c <tegra_ivc_channel_reset>:
    3000153c:	f9400402 	ldr	x2, [x0, #8]
    30001540:	52800023 	mov	w3, #0x1                   	// #1
    30001544:	f9400c01 	ldr	x1, [x0, #24]
    30001548:	b9000443 	str	w3, [x2, #4]
    3000154c:	d61f0020 	br	x1

0000000030001550 <tegra_ivc_channel_notified>:
    30001550:	a9be7bfd 	stp	x29, x30, [sp, #-32]!
    30001554:	910003fd 	mov	x29, sp
    30001558:	f9400001 	ldr	x1, [x0]
    3000155c:	b9400422 	ldr	w2, [x1, #4]
    30001560:	f9000bf3 	str	x19, [sp, #16]
    30001564:	aa0003f3 	mov	x19, x0
    30001568:	7100045f 	cmp	w2, #0x1
    3000156c:	540002a1 	b.ne	300015c0 <tegra_ivc_channel_notified+0x70>  // b.any
    30001570:	d5033dbf 	dmb	ld
    30001574:	f9400401 	ldr	x1, [x0, #8]
    30001578:	b900003f 	str	wzr, [x1]
    3000157c:	f9400001 	ldr	x1, [x0]
    30001580:	b900403f 	str	wzr, [x1, #64]
    30001584:	f900081f 	str	xzr, [x0, #16]
    30001588:	d5033ebf 	dmb	st
    3000158c:	f9400401 	ldr	x1, [x0, #8]
    30001590:	52800042 	mov	w2, #0x2                   	// #2
    30001594:	b9000422 	str	w2, [x1, #4]
    30001598:	f9400e61 	ldr	x1, [x19, #24]
    3000159c:	d63f0020 	blr	x1
    300015a0:	f9400660 	ldr	x0, [x19, #8]
    300015a4:	f9400bf3 	ldr	x19, [sp, #16]
    300015a8:	a8c27bfd 	ldp	x29, x30, [sp], #32
    300015ac:	b9400400 	ldr	w0, [x0, #4]
    300015b0:	7100001f 	cmp	w0, #0x0
    300015b4:	12800440 	mov	w0, #0xffffffdd            	// #-35
    300015b8:	1a9f1000 	csel	w0, w0, wzr, ne  // ne = any
    300015bc:	d65f03c0 	ret
    300015c0:	f9400401 	ldr	x1, [x0, #8]
    300015c4:	b9400421 	ldr	w1, [x1, #4]
    300015c8:	7100043f 	cmp	w1, #0x1
    300015cc:	540001a1 	b.ne	30001600 <tegra_ivc_channel_notified+0xb0>  // b.any
    300015d0:	7100085f 	cmp	w2, #0x2
    300015d4:	54fffe61 	b.ne	300015a0 <tegra_ivc_channel_notified+0x50>  // b.any
    300015d8:	d5033dbf 	dmb	ld
    300015dc:	f9400401 	ldr	x1, [x0, #8]
    300015e0:	b900003f 	str	wzr, [x1]
    300015e4:	f9400001 	ldr	x1, [x0]
    300015e8:	b900403f 	str	wzr, [x1, #64]
    300015ec:	f900081f 	str	xzr, [x0, #16]
    300015f0:	d5033ebf 	dmb	st
    300015f4:	f9400661 	ldr	x1, [x19, #8]
    300015f8:	b900043f 	str	wzr, [x1, #4]
    300015fc:	17ffffe7 	b	30001598 <tegra_ivc_channel_notified+0x48>
    30001600:	7100083f 	cmp	w1, #0x2
    30001604:	54fffce1 	b.ne	300015a0 <tegra_ivc_channel_notified+0x50>  // b.any
    30001608:	d5033dbf 	dmb	ld
    3000160c:	17fffffa 	b	300015f4 <tegra_ivc_channel_notified+0xa4>

0000000030001610 <tegra_ivc_align>:
    30001610:	9100fc00 	add	x0, x0, #0x3f
    30001614:	927a6400 	and	x0, x0, #0xffffffc0
    30001618:	d65f03c0 	ret

000000003000161c <tegra_ivc_total_queue_size>:
    3000161c:	f240141f 	tst	x0, #0x3f
    30001620:	54000160 	b.eq	3000164c <tegra_ivc_total_queue_size+0x30>  // b.none
    30001624:	a9bf7bfd 	stp	x29, x30, [sp, #-16]!
    30001628:	2a0003e1 	mov	w1, w0
    3000162c:	52800802 	mov	w2, #0x40                  	// #64
    30001630:	b0000060 	adrp	x0, 3000e000 <__TEXT_END__>
    30001634:	910003fd 	mov	x29, sp
    30001638:	91201000 	add	x0, x0, #0x804
    3000163c:	9400173a 	bl	30007324 <tf_printf>
    30001640:	d2800000 	mov	x0, #0x0                   	// #0
    30001644:	a8c17bfd 	ldp	x29, x30, [sp], #16
    30001648:	d65f03c0 	ret
    3000164c:	91020000 	add	x0, x0, #0x80
    30001650:	d65f03c0 	ret

0000000030001654 <tegra_ivc_init>:
    30001654:	f100001f 	cmp	x0, #0x0
    30001658:	fa4018a4 	ccmp	x5, #0x0, #0x4, ne  // ne = any
    3000165c:	54000740 	b.eq	30001744 <tegra_ivc_init+0xf0>  // b.none
    30001660:	aa0203e6 	mov	x6, x2
    30001664:	2a0403e2 	mov	w2, w4
    30001668:	a9bf7bfd 	stp	x29, x30, [sp, #-16]!
    3000166c:	aa0603e4 	mov	x4, x6
    30001670:	b2407fe8 	mov	x8, #0xffffffff            	// #4294967295
    30001674:	aa0103e6 	mov	x6, x1
    30001678:	9ba27c67 	umull	x7, w3, w2
    3000167c:	910003fd 	mov	x29, sp
    30001680:	eb0800ff 	cmp	x7, x8
    30001684:	540000e9 	b.ls	300016a0 <tegra_ivc_init+0x4c>  // b.plast
    30001688:	b0000060 	adrp	x0, 3000e000 <__TEXT_END__>
    3000168c:	911d4000 	add	x0, x0, #0x750
    30001690:	94001725 	bl	30007324 <tf_printf>
    30001694:	128002a0 	mov	w0, #0xffffffea            	// #-22
    30001698:	a8c17bfd 	ldp	x29, x30, [sp], #16
    3000169c:	d65f03c0 	ret
    300016a0:	f240143f 	tst	x1, #0x3f
    300016a4:	540000a0 	b.eq	300016b8 <tegra_ivc_init+0x64>  // b.none
    300016a8:	b0000060 	adrp	x0, 3000e000 <__TEXT_END__>
    300016ac:	911de400 	add	x0, x0, #0x779
    300016b0:	9400171d 	bl	30007324 <tf_printf>
    300016b4:	17fffff8 	b	30001694 <tegra_ivc_init+0x40>
    300016b8:	f240149f 	tst	x4, #0x3f
    300016bc:	54000060 	b.eq	300016c8 <tegra_ivc_init+0x74>  // b.none
    300016c0:	aa0403e1 	mov	x1, x4
    300016c4:	17fffff9 	b	300016a8 <tegra_ivc_init+0x54>
    300016c8:	f240145f 	tst	x2, #0x3f
    300016cc:	540000c0 	b.eq	300016e4 <tegra_ivc_init+0x90>  // b.none
    300016d0:	2a0203e1 	mov	w1, w2
    300016d4:	b0000060 	adrp	x0, 3000e000 <__TEXT_END__>
    300016d8:	911e9800 	add	x0, x0, #0x7a6
    300016dc:	94001712 	bl	30007324 <tf_printf>
    300016e0:	17ffffed 	b	30001694 <tegra_ivc_init+0x40>
    300016e4:	eb04003f 	cmp	x1, x4
    300016e8:	54000122 	b.cs	3000170c <tegra_ivc_init+0xb8>  // b.hs, b.nlast
    300016ec:	8b070027 	add	x7, x1, x7
    300016f0:	eb07009f 	cmp	x4, x7
    300016f4:	54000182 	b.cs	30001724 <tegra_ivc_init+0xd0>  // b.hs, b.nlast
    300016f8:	1b027c63 	mul	w3, w3, w2
    300016fc:	b0000060 	adrp	x0, 3000e000 <__TEXT_END__>
    30001700:	911f5800 	add	x0, x0, #0x7d6
    30001704:	94001708 	bl	30007324 <tf_printf>
    30001708:	17ffffe3 	b	30001694 <tegra_ivc_init+0x40>
    3000170c:	8b070087 	add	x7, x4, x7
    30001710:	eb07003f 	cmp	x1, x7
    30001714:	54000082 	b.cs	30001724 <tegra_ivc_init+0xd0>  // b.hs, b.nlast
    30001718:	1b027c63 	mul	w3, w3, w2
    3000171c:	aa0403e1 	mov	x1, x4
    30001720:	17fffff7 	b	300016fc <tegra_ivc_init+0xa8>
    30001724:	52b00001 	mov	w1, #0x80000000            	// #-2147483648
    30001728:	6b01005f 	cmp	w2, w1
    3000172c:	54000108 	b.hi	3000174c <tegra_ivc_init+0xf8>  // b.pmore
    30001730:	a9001006 	stp	x6, x4, [x0]
    30001734:	a901141f 	stp	xzr, x5, [x0, #16]
    30001738:	29040803 	stp	w3, w2, [x0, #32]
    3000173c:	52800000 	mov	w0, #0x0                   	// #0
    30001740:	17ffffd6 	b	30001698 <tegra_ivc_init+0x44>
    30001744:	128002a0 	mov	w0, #0xffffffea            	// #-22
    30001748:	d65f03c0 	ret
    3000174c:	128000c0 	mov	w0, #0xfffffff9            	// #-7
    30001750:	17ffffd2 	b	30001698 <tegra_ivc_init+0x44>

0000000030001754 <tegra_gic_pcpu_distif_init.constprop.1>:
    30001754:	a9bb7bfd 	stp	x29, x30, [sp, #-80]!
    30001758:	d2820000 	mov	x0, #0x1000                	// #4096
    3000175c:	12800002 	mov	w2, #0xffffffff            	// #-1
    30001760:	52800001 	mov	w1, #0x0                   	// #0
    30001764:	910003fd 	mov	x29, sp
    30001768:	a90153f3 	stp	x19, x20, [sp, #16]
    3000176c:	d2820014 	mov	x20, #0x1000                	// #4096
    30001770:	52800013 	mov	w19, #0x0                   	// #0
    30001774:	f2a07114 	movk	x20, #0x388, lsl #16
    30001778:	a9025bf5 	stp	x21, x22, [sp, #32]
    3000177c:	f2a07100 	movk	x0, #0x388, lsl #16
    30001780:	a90363f7 	stp	x23, x24, [sp, #48]
    30001784:	a9046bf9 	stp	x25, x26, [sp, #64]
    30001788:	97fffda8 	bl	30000e28 <gicd_write_icenabler>
    3000178c:	2a1303e1 	mov	w1, w19
    30001790:	3201c3e2 	mov	w2, #0x80808080            	// #-2139062144
    30001794:	aa1403e0 	mov	x0, x20
    30001798:	11001273 	add	w19, w19, #0x4
    3000179c:	97fffda8 	bl	30000e3c <gicd_write_ipriorityr>
    300017a0:	7100827f 	cmp	w19, #0x20
    300017a4:	54ffff41 	b.ne	3000178c <tegra_gic_pcpu_distif_init.constprop.1+0x38>  // b.any
    300017a8:	b00000a0 	adrp	x0, 30016000 <__STACKS_START__+0x1440>
    300017ac:	52800013 	mov	w19, #0x0                   	// #0
    300017b0:	aa0003f5 	mov	x21, x0
    300017b4:	f946e001 	ldr	x1, [x0, #3520]
    300017b8:	b5000461 	cbnz	x1, 30001844 <tegra_gic_pcpu_distif_init.constprop.1+0xf0>
    300017bc:	d2820000 	mov	x0, #0x1000                	// #4096
    300017c0:	2a3303e2 	mvn	w2, w19
    300017c4:	52800001 	mov	w1, #0x0                   	// #0
    300017c8:	f2a07100 	movk	x0, #0x388, lsl #16
    300017cc:	97fffd8d 	bl	30000e00 <gicd_write_igroupr>
    300017d0:	2a1303e2 	mov	w2, w19
    300017d4:	d2820000 	mov	x0, #0x1000                	// #4096
    300017d8:	a94153f3 	ldp	x19, x20, [sp, #16]
    300017dc:	52800001 	mov	w1, #0x0                   	// #0
    300017e0:	a9425bf5 	ldp	x21, x22, [sp, #32]
    300017e4:	f2a07100 	movk	x0, #0x388, lsl #16
    300017e8:	a94363f7 	ldp	x23, x24, [sp, #48]
    300017ec:	a9446bf9 	ldp	x25, x26, [sp, #64]
    300017f0:	a8c57bfd 	ldp	x29, x30, [sp], #80
    300017f4:	17fffd88 	b	30000e14 <gicd_write_isenabler>
    300017f8:	9bb97e80 	umull	x0, w20, w25
    300017fc:	f946e2a1 	ldr	x1, [x21, #3520]
    30001800:	b8606836 	ldr	w22, [x1, x0]
    30001804:	71007edf 	cmp	w22, #0x1f
    30001808:	54000148 	b.hi	30001830 <tegra_gic_pcpu_distif_init.constprop.1+0xdc>  // b.pmore
    3000180c:	9ad62340 	lsl	x0, x26, x22
    30001810:	2a1603e1 	mov	w1, w22
    30001814:	2a000273 	orr	w19, w19, w0
    30001818:	aa1803e0 	mov	x0, x24
    3000181c:	97fffd99 	bl	30000e80 <gicd_clr_igroupr>
    30001820:	52800002 	mov	w2, #0x0                   	// #0
    30001824:	2a1603e1 	mov	w1, w22
    30001828:	aa1803e0 	mov	x0, x24
    3000182c:	97fffda4 	bl	30000ebc <gicd_set_ipriorityr>
    30001830:	11000694 	add	w20, w20, #0x1
    30001834:	b94002e0 	ldr	w0, [x23]
    30001838:	6b00029f 	cmp	w20, w0
    3000183c:	54fffde3 	b.cc	300017f8 <tegra_gic_pcpu_distif_init.constprop.1+0xa4>  // b.lo, b.ul, b.last
    30001840:	17ffffdf 	b	300017bc <tegra_gic_pcpu_distif_init.constprop.1+0x68>
    30001844:	d2820018 	mov	x24, #0x1000                	// #4096
    30001848:	b00000b7 	adrp	x23, 30016000 <__STACKS_START__+0x1440>
    3000184c:	52800014 	mov	w20, #0x0                   	// #0
    30001850:	913722f7 	add	x23, x23, #0xdc8
    30001854:	52800199 	mov	w25, #0xc                   	// #12
    30001858:	d280003a 	mov	x26, #0x1                   	// #1
    3000185c:	f2a07118 	movk	x24, #0x388, lsl #16
    30001860:	17fffff5 	b	30001834 <tegra_gic_pcpu_distif_init.constprop.1+0xe0>

0000000030001864 <tegra_gic_cpuif_deactivate>:
    30001864:	d2840001 	mov	x1, #0x2000                	// #8192
    30001868:	f2a07101 	movk	x1, #0x388, lsl #16
    3000186c:	b9400020 	ldr	w0, [x1]
    30001870:	121e7400 	and	w0, w0, #0xfffffffc
    30001874:	321b0c00 	orr	w0, w0, #0x1e0
    30001878:	b9000020 	str	w0, [x1]
    3000187c:	d65f03c0 	ret

0000000030001880 <tegra_gic_init>:
    30001880:	a9bb7bfd 	stp	x29, x30, [sp, #-80]!
    30001884:	d2820080 	mov	x0, #0x1004                	// #4100
    30001888:	f2a07100 	movk	x0, #0x388, lsl #16
    3000188c:	910003fd 	mov	x29, sp
    30001890:	a90153f3 	stp	x19, x20, [sp, #16]
    30001894:	52800414 	mov	w20, #0x20                  	// #32
    30001898:	b9400013 	ldr	w19, [x0]
    3000189c:	a9025bf5 	stp	x21, x22, [sp, #32]
    300018a0:	d2820015 	mov	x21, #0x1000                	// #4096
    300018a4:	a90363f7 	stp	x23, x24, [sp, #48]
    300018a8:	f2a07115 	movk	x21, #0x388, lsl #16
    300018ac:	531b1273 	ubfiz	w19, w19, #5, #5
    300018b0:	a9046bf9 	stp	x25, x26, [sp, #64]
    300018b4:	11008273 	add	w19, w19, #0x20
    300018b8:	6b14027f 	cmp	w19, w20
    300018bc:	54000368 	b.hi	30001928 <tegra_gic_init+0xa8>  // b.pmore
    300018c0:	d2820015 	mov	x21, #0x1000                	// #4096
    300018c4:	52800414 	mov	w20, #0x20                  	// #32
    300018c8:	f2a07115 	movk	x21, #0x388, lsl #16
    300018cc:	6b14027f 	cmp	w19, w20
    300018d0:	54000388 	b.hi	30001940 <tegra_gic_init+0xc0>  // b.pmore
    300018d4:	b00000a0 	adrp	x0, 30016000 <__STACKS_START__+0x1440>
    300018d8:	aa0003f6 	mov	x22, x0
    300018dc:	f946e001 	ldr	x1, [x0, #3520]
    300018e0:	b5000821 	cbnz	x1, 300019e4 <tegra_gic_init+0x164>
    300018e4:	d2820000 	mov	x0, #0x1000                	// #4096
    300018e8:	52800061 	mov	w1, #0x3                   	// #3
    300018ec:	f2a07100 	movk	x0, #0x388, lsl #16
    300018f0:	b9000001 	str	w1, [x0]
    300018f4:	97ffff98 	bl	30001754 <tegra_gic_pcpu_distif_init.constprop.1>
    300018f8:	d2840000 	mov	x0, #0x2000                	// #8192
    300018fc:	52803d61 	mov	w1, #0x1eb                 	// #491
    30001900:	f2a07100 	movk	x0, #0x388, lsl #16
    30001904:	a94153f3 	ldp	x19, x20, [sp, #16]
    30001908:	a9425bf5 	ldp	x21, x22, [sp, #32]
    3000190c:	a94363f7 	ldp	x23, x24, [sp, #48]
    30001910:	a9446bf9 	ldp	x25, x26, [sp, #64]
    30001914:	b9000001 	str	w1, [x0]
    30001918:	52801fe1 	mov	w1, #0xff                  	// #255
    3000191c:	b9000401 	str	w1, [x0, #4]
    30001920:	a8c57bfd 	ldp	x29, x30, [sp], #80
    30001924:	d65f03c0 	ret
    30001928:	2a1403e1 	mov	w1, w20
    3000192c:	12800002 	mov	w2, #0xffffffff            	// #-1
    30001930:	aa1503e0 	mov	x0, x21
    30001934:	11008294 	add	w20, w20, #0x20
    30001938:	97fffd32 	bl	30000e00 <gicd_write_igroupr>
    3000193c:	17ffffdf 	b	300018b8 <tegra_gic_init+0x38>
    30001940:	2a1403e1 	mov	w1, w20
    30001944:	3201c3e2 	mov	w2, #0x80808080            	// #-2139062144
    30001948:	aa1503e0 	mov	x0, x21
    3000194c:	11001294 	add	w20, w20, #0x4
    30001950:	97fffd3b 	bl	30000e3c <gicd_write_ipriorityr>
    30001954:	17ffffde 	b	300018cc <tegra_gic_init+0x4c>
    30001958:	9bb97ea0 	umull	x0, w21, w25
    3000195c:	f946e2c1 	ldr	x1, [x22, #3520]
    30001960:	8b000022 	add	x2, x1, x0
    30001964:	b8606833 	ldr	w19, [x1, x0]
    30001968:	71007e7f 	cmp	w19, #0x1f
    3000196c:	54000329 	b.ls	300019d0 <tegra_gic_init+0x150>  // b.plast
    30001970:	b940045a 	ldr	w26, [x2, #4]
    30001974:	2a1303e1 	mov	w1, w19
    30001978:	aa1403e0 	mov	x0, x20
    3000197c:	97fffd41 	bl	30000e80 <gicd_clr_igroupr>
    30001980:	52800002 	mov	w2, #0x0                   	// #0
    30001984:	2a1303e1 	mov	w1, w19
    30001988:	aa1403e0 	mov	x0, x20
    3000198c:	97fffd4c 	bl	30000ebc <gicd_set_ipriorityr>
    30001990:	2a1303e1 	mov	w1, w19
    30001994:	aa1403e0 	mov	x0, x20
    30001998:	97fffd15 	bl	30000dec <gicd_read_icfgr>
    3000199c:	531f0e62 	ubfiz	w2, w19, #1, #4
    300019a0:	2a1303e1 	mov	w1, w19
    300019a4:	1ac22302 	lsl	w2, w24, w2
    300019a8:	2a000042 	orr	w2, w2, w0
    300019ac:	aa1403e0 	mov	x0, x20
    300019b0:	97fffd27 	bl	30000e4c <gicd_write_icfgr>
    300019b4:	12001f42 	and	w2, w26, #0xff
    300019b8:	2a1303e1 	mov	w1, w19
    300019bc:	aa1403e0 	mov	x0, x20
    300019c0:	97fffd58 	bl	30000f20 <gicd_set_itargetsr>
    300019c4:	2a1303e1 	mov	w1, w19
    300019c8:	aa1403e0 	mov	x0, x20
    300019cc:	97fffd39 	bl	30000eb0 <gicd_set_isenabler>
    300019d0:	110006b5 	add	w21, w21, #0x1
    300019d4:	b94002e0 	ldr	w0, [x23]
    300019d8:	6b0002bf 	cmp	w21, w0
    300019dc:	54fffbe3 	b.cc	30001958 <tegra_gic_init+0xd8>  // b.lo, b.ul, b.last
    300019e0:	17ffffc1 	b	300018e4 <tegra_gic_init+0x64>
    300019e4:	d2820014 	mov	x20, #0x1000                	// #4096
    300019e8:	b00000b7 	adrp	x23, 30016000 <__STACKS_START__+0x1440>
    300019ec:	52800015 	mov	w21, #0x0                   	// #0
    300019f0:	913722f7 	add	x23, x23, #0xdc8
    300019f4:	52800199 	mov	w25, #0xc                   	// #12
    300019f8:	f2a07114 	movk	x20, #0x388, lsl #16
    300019fc:	52800078 	mov	w24, #0x3                   	// #3
    30001a00:	17fffff5 	b	300019d4 <tegra_gic_init+0x154>

0000000030001a04 <tegra_gic_pcpu_init>:
    30001a04:	a9bf7bfd 	stp	x29, x30, [sp, #-16]!
    30001a08:	910003fd 	mov	x29, sp
    30001a0c:	97ffff52 	bl	30001754 <tegra_gic_pcpu_distif_init.constprop.1>
    30001a10:	d2840000 	mov	x0, #0x2000                	// #8192
    30001a14:	52803d61 	mov	w1, #0x1eb                 	// #491
    30001a18:	f2a07100 	movk	x0, #0x388, lsl #16
    30001a1c:	b9000001 	str	w1, [x0]
    30001a20:	52801fe1 	mov	w1, #0xff                  	// #255
    30001a24:	b9000401 	str	w1, [x0, #4]
    30001a28:	a8c17bfd 	ldp	x29, x30, [sp], #16
    30001a2c:	d65f03c0 	ret

0000000030001a30 <tegra_gic_setup>:
    30001a30:	b4000300 	cbz	x0, 30001a90 <tegra_gic_setup+0x60>
    30001a34:	a9bf7bfd 	stp	x29, x30, [sp, #-16]!
    30001a38:	910003fd 	mov	x29, sp
    30001a3c:	f9400001 	ldr	x1, [x0]
    30001a40:	b50000e1 	cbnz	x1, 30001a5c <tegra_gic_setup+0x2c>
    30001a44:	b0000062 	adrp	x2, 3000e000 <__TEXT_END__>
    30001a48:	b0000060 	adrp	x0, 3000e000 <__TEXT_END__>
    30001a4c:	9122a042 	add	x2, x2, #0x8a8
    30001a50:	528019a1 	mov	w1, #0xcd                  	// #205
    30001a54:	9122f400 	add	x0, x0, #0x8bd
    30001a58:	940016fd 	bl	3000764c <__assert>
    30001a5c:	b9401000 	ldr	w0, [x0, #16]
    30001a60:	350000e0 	cbnz	w0, 30001a7c <tegra_gic_setup+0x4c>
    30001a64:	b0000062 	adrp	x2, 3000e000 <__TEXT_END__>
    30001a68:	b0000060 	adrp	x0, 3000e000 <__TEXT_END__>
    30001a6c:	9123a842 	add	x2, x2, #0x8ea
    30001a70:	528019c1 	mov	w1, #0xce                  	// #206
    30001a74:	9122f400 	add	x0, x0, #0x8bd
    30001a78:	940016f5 	bl	3000764c <__assert>
    30001a7c:	b00000a2 	adrp	x2, 30016000 <__STACKS_START__+0x1440>
    30001a80:	a8c17bfd 	ldp	x29, x30, [sp], #16
    30001a84:	f906e041 	str	x1, [x2, #3520]
    30001a88:	b00000a1 	adrp	x1, 30016000 <__STACKS_START__+0x1440>
    30001a8c:	b90dc820 	str	w0, [x1, #3528]
    30001a90:	17ffff7c 	b	30001880 <tegra_gic_init>

0000000030001a94 <plat_ic_get_pending_interrupt_id>:
    30001a94:	d2840300 	mov	x0, #0x2018                	// #8216
    30001a98:	f2a07100 	movk	x0, #0x388, lsl #16
    30001a9c:	b9400000 	ldr	w0, [x0]
    30001aa0:	12002400 	and	w0, w0, #0x3ff
    30001aa4:	710ff41f 	cmp	w0, #0x3fd
    30001aa8:	540000e9 	b.ls	30001ac4 <plat_ic_get_pending_interrupt_id+0x30>  // b.plast
    30001aac:	710ffc1f 	cmp	w0, #0x3ff
    30001ab0:	540000c0 	b.eq	30001ac8 <plat_ic_get_pending_interrupt_id+0x34>  // b.none
    30001ab4:	d2840500 	mov	x0, #0x2028                	// #8232
    30001ab8:	f2a07100 	movk	x0, #0x388, lsl #16
    30001abc:	b9400000 	ldr	w0, [x0]
    30001ac0:	12002400 	and	w0, w0, #0x3ff
    30001ac4:	d65f03c0 	ret
    30001ac8:	12800000 	mov	w0, #0xffffffff            	// #-1
    30001acc:	17fffffe 	b	30001ac4 <plat_ic_get_pending_interrupt_id+0x30>

0000000030001ad0 <plat_ic_get_pending_interrupt_type>:
    30001ad0:	d2840300 	mov	x0, #0x2018                	// #8216
    30001ad4:	f2a07100 	movk	x0, #0x388, lsl #16
    30001ad8:	b9400000 	ldr	w0, [x0]
    30001adc:	12002400 	and	w0, w0, #0x3ff
    30001ae0:	710ff41f 	cmp	w0, #0x3fd
    30001ae4:	54000228 	b.hi	30001b28 <plat_ic_get_pending_interrupt_type+0x58>  // b.pmore
    30001ae8:	b00000a1 	adrp	x1, 30016000 <__STACKS_START__+0x1440>
    30001aec:	b00000a2 	adrp	x2, 30016000 <__STACKS_START__+0x1440>
    30001af0:	52800183 	mov	w3, #0xc                   	// #12
    30001af4:	f946e021 	ldr	x1, [x1, #3520]
    30001af8:	b94dc842 	ldr	w2, [x2, #3528]
    30001afc:	9ba30442 	umaddl	x2, w2, w3, x1
    30001b00:	eb02003f 	cmp	x1, x2
    30001b04:	54000061 	b.ne	30001b10 <plat_ic_get_pending_interrupt_type+0x40>  // b.any
    30001b08:	52800040 	mov	w0, #0x2                   	// #2
    30001b0c:	14000006 	b	30001b24 <plat_ic_get_pending_interrupt_type+0x54>
    30001b10:	aa0103e3 	mov	x3, x1
    30001b14:	b840c424 	ldr	w4, [x1], #12
    30001b18:	6b04001f 	cmp	w0, w4
    30001b1c:	54ffff21 	b.ne	30001b00 <plat_ic_get_pending_interrupt_type+0x30>  // b.any
    30001b20:	b9400860 	ldr	w0, [x3, #8]
    30001b24:	d65f03c0 	ret
    30001b28:	710ffc1f 	cmp	w0, #0x3ff
    30001b2c:	1a9f17e0 	cset	w0, eq  // eq = none
    30001b30:	11000800 	add	w0, w0, #0x2
    30001b34:	17fffffc 	b	30001b24 <plat_ic_get_pending_interrupt_type+0x54>

0000000030001b38 <plat_ic_acknowledge_interrupt>:
    30001b38:	d2840180 	mov	x0, #0x200c                	// #8204
    30001b3c:	f2a07100 	movk	x0, #0x388, lsl #16
    30001b40:	b9400000 	ldr	w0, [x0]
    30001b44:	d65f03c0 	ret

0000000030001b48 <plat_ic_end_of_interrupt>:
    30001b48:	d2840201 	mov	x1, #0x2010                	// #8208
    30001b4c:	f2a07101 	movk	x1, #0x388, lsl #16
    30001b50:	b9000020 	str	w0, [x1]
    30001b54:	d65f03c0 	ret

0000000030001b58 <plat_interrupt_type_to_line>:
    30001b58:	a9bf7bfd 	stp	x29, x30, [sp, #-16]!
    30001b5c:	7100081f 	cmp	w0, #0x2
    30001b60:	910003fd 	mov	x29, sp
    30001b64:	540000e9 	b.ls	30001b80 <plat_interrupt_type_to_line+0x28>  // b.plast
    30001b68:	b0000062 	adrp	x2, 3000e000 <__TEXT_END__>
    30001b6c:	9120d842 	add	x2, x2, #0x836
    30001b70:	52801ca1 	mov	w1, #0xe5                  	// #229
    30001b74:	b0000060 	adrp	x0, 3000e000 <__TEXT_END__>
    30001b78:	9122f400 	add	x0, x0, #0x8bd
    30001b7c:	940016b4 	bl	3000764c <__assert>
    30001b80:	7100043f 	cmp	w1, #0x1
    30001b84:	540000a9 	b.ls	30001b98 <plat_interrupt_type_to_line+0x40>  // b.plast
    30001b88:	b0000062 	adrp	x2, 3000e000 <__TEXT_END__>
    30001b8c:	52801ce1 	mov	w1, #0xe7                  	// #231
    30001b90:	91221442 	add	x2, x2, #0x885
    30001b94:	17fffff8 	b	30001b74 <plat_interrupt_type_to_line+0x1c>
    30001b98:	a8c17bfd 	ldp	x29, x30, [sp], #16
    30001b9c:	2a0003e1 	mov	w1, w0
    30001ba0:	52840000 	mov	w0, #0x2000                	// #8192
    30001ba4:	72a07100 	movk	w0, #0x388, lsl #16
    30001ba8:	17fffce3 	b	30000f34 <gicv2_interrupt_type_to_line>

0000000030001bac <tegra_gpcdma_memcpy_priv>:
    30001bac:	a9bb7bfd 	stp	x29, x30, [sp, #-80]!
    30001bb0:	910003fd 	mov	x29, sp
    30001bb4:	a90153f3 	stp	x19, x20, [sp, #16]
    30001bb8:	aa0003f3 	mov	x19, x0
    30001bbc:	a9025bf5 	stp	x21, x22, [sp, #32]
    30001bc0:	52a80000 	mov	w0, #0x40000000            	// #1073741824
    30001bc4:	a90363f7 	stp	x23, x24, [sp, #48]
    30001bc8:	aa0103f5 	mov	x21, x1
    30001bcc:	f90023f9 	str	x25, [sp, #64]
    30001bd0:	2a0203f4 	mov	w20, w2
    30001bd4:	2a0303f7 	mov	w23, w3
    30001bd8:	6b00005f 	cmp	w2, w0
    30001bdc:	540003c8 	b.hi	30001c54 <tegra_gpcdma_memcpy_priv+0xa8>  // b.pmore
    30001be0:	f240069f 	tst	x20, #0x3
    30001be4:	128002b6 	mov	w22, #0xffffffea            	// #-22
    30001be8:	1a9603f6 	csel	w22, wzr, w22, eq  // eq = none
    30001bec:	b00000b9 	adrp	x25, 30016000 <__STACKS_START__+0x1440>
    30001bf0:	39773320 	ldrb	w0, [x25, #3532]
    30001bf4:	35000180 	cbnz	w0, 30001c24 <tegra_gpcdma_memcpy_priv+0x78>
    30001bf8:	d2800080 	mov	x0, #0x4                   	// #4
    30001bfc:	52800058 	mov	w24, #0x2                   	// #2
    30001c00:	f2a0ad40 	movk	x0, #0x56a, lsl #16
    30001c04:	b9000018 	str	w24, [x0]
    30001c08:	2a1803e0 	mov	w0, w24
    30001c0c:	97fff956 	bl	30000164 <udelay>
    30001c10:	d2800100 	mov	x0, #0x8                   	// #8
    30001c14:	f2a0ad40 	movk	x0, #0x56a, lsl #16
    30001c18:	b9000018 	str	w24, [x0]
    30001c1c:	52800020 	mov	w0, #0x1                   	// #1
    30001c20:	39373320 	strb	w0, [x25, #3532]
    30001c24:	d2800080 	mov	x0, #0x4                   	// #4
    30001c28:	f2a04c20 	movk	x0, #0x261, lsl #16
    30001c2c:	b9400001 	ldr	w1, [x0]
    30001c30:	36f80161 	tbz	w1, #31, 30001c5c <tegra_gpcdma_memcpy_priv+0xb0>
    30001c34:	a94153f3 	ldp	x19, x20, [sp, #16]
    30001c38:	b0000060 	adrp	x0, 3000e000 <__TEXT_END__>
    30001c3c:	a9425bf5 	ldp	x21, x22, [sp, #32]
    30001c40:	91240000 	add	x0, x0, #0x900
    30001c44:	a94363f7 	ldp	x23, x24, [sp, #48]
    30001c48:	f94023f9 	ldr	x25, [sp, #64]
    30001c4c:	a8c57bfd 	ldp	x29, x30, [sp], #80
    30001c50:	140015b5 	b	30007324 <tf_printf>
    30001c54:	128002b6 	mov	w22, #0xffffffea            	// #-22
    30001c58:	17ffffe5 	b	30001bec <tegra_gpcdma_memcpy_priv+0x40>
    30001c5c:	35000676 	cbnz	w22, 30001d28 <tegra_gpcdma_memcpy_priv+0x17c>
    30001c60:	d2a04c22 	mov	x2, #0x2610000             	// #39911424
    30001c64:	d2800701 	mov	x1, #0x38                  	// #56
    30001c68:	f2a04c21 	movk	x1, #0x261, lsl #16
    30001c6c:	52a43003 	mov	w3, #0x21800000            	// #562036736
    30001c70:	b900005f 	str	wzr, [x2]
    30001c74:	53027e94 	lsr	w20, w20, #2
    30001c78:	b900003f 	str	wzr, [x1]
    30001c7c:	d2800301 	mov	x1, #0x18                  	// #24
    30001c80:	f2a04c21 	movk	x1, #0x261, lsl #16
    30001c84:	51000694 	sub	w20, w20, #0x1
    30001c88:	b9000023 	str	w3, [x1]
    30001c8c:	d2800283 	mov	x3, #0x14                  	// #20
    30001c90:	b9001c3f 	str	wzr, [x1, #28]
    30001c94:	d2800181 	mov	x1, #0xc                   	// #12
    30001c98:	f2a04c21 	movk	x1, #0x261, lsl #16
    30001c9c:	f2a04c23 	movk	x3, #0x261, lsl #16
    30001ca0:	b9000035 	str	w21, [x1]
    30001ca4:	d3609eb5 	ubfx	x21, x21, #32, #8
    30001ca8:	b9000433 	str	w19, [x1, #4]
    30001cac:	d360fe61 	lsr	x1, x19, #32
    30001cb0:	aa0003f3 	mov	x19, x0
    30001cb4:	53101c21 	ubfiz	w1, w1, #16, #8
    30001cb8:	2a150021 	orr	w1, w1, w21
    30001cbc:	b9000061 	str	w1, [x3]
    30001cc0:	d2800401 	mov	x1, #0x20                  	// #32
    30001cc4:	52908003 	mov	w3, #0x8400                	// #33792
    30001cc8:	f2a04c21 	movk	x1, #0x261, lsl #16
    30001ccc:	72a10003 	movk	w3, #0x800, lsl #16
    30001cd0:	2a175477 	orr	w23, w3, w23, lsl #21
    30001cd4:	b9000034 	str	w20, [x1]
    30001cd8:	52800c94 	mov	w20, #0x64                  	// #100
    30001cdc:	b9000057 	str	w23, [x2]
    30001ce0:	b9400041 	ldr	w1, [x2]
    30001ce4:	32010021 	orr	w1, w1, #0x80000000
    30001ce8:	b9000041 	str	w1, [x2]
    30001cec:	b9400260 	ldr	w0, [x19]
    30001cf0:	36f80100 	tbz	w0, #31, 30001d10 <tegra_gpcdma_memcpy_priv+0x164>
    30001cf4:	52800020 	mov	w0, #0x1                   	// #1
    30001cf8:	97fff948 	bl	30000218 <mdelay>
    30001cfc:	71000694 	subs	w20, w20, #0x1
    30001d00:	54ffff61 	b.ne	30001cec <tegra_gpcdma_memcpy_priv+0x140>  // b.any
    30001d04:	b0000060 	adrp	x0, 3000e000 <__TEXT_END__>
    30001d08:	91247800 	add	x0, x0, #0x91e
    30001d0c:	94001586 	bl	30007324 <tf_printf>
    30001d10:	d5033f9f 	dsb	sy
    30001d14:	d2800700 	mov	x0, #0x38                  	// #56
    30001d18:	52800061 	mov	w1, #0x3                   	// #3
    30001d1c:	f2a04c20 	movk	x0, #0x261, lsl #16
    30001d20:	b9000001 	str	w1, [x0]
    30001d24:	d5033fdf 	isb
    30001d28:	a94153f3 	ldp	x19, x20, [sp, #16]
    30001d2c:	a9425bf5 	ldp	x21, x22, [sp, #32]
    30001d30:	a94363f7 	ldp	x23, x24, [sp, #48]
    30001d34:	f94023f9 	ldr	x25, [sp, #64]
    30001d38:	a8c57bfd 	ldp	x29, x30, [sp], #80
    30001d3c:	d65f03c0 	ret

0000000030001d40 <tegra_gpcdma_memcpy>:
    30001d40:	52800083 	mov	w3, #0x4                   	// #4
    30001d44:	17ffff9a 	b	30001bac <tegra_gpcdma_memcpy_priv>

0000000030001d48 <tegra_gpcdma_zeromem>:
    30001d48:	2a0103e2 	mov	w2, w1
    30001d4c:	528000c3 	mov	w3, #0x6                   	// #6
    30001d50:	d2800001 	mov	x1, #0x0                   	// #0
    30001d54:	17ffff96 	b	30001bac <tegra_gpcdma_memcpy_priv>

0000000030001d58 <tegra_clear_videomem>:
    30001d58:	a9be7bfd 	stp	x29, x30, [sp, #-32]!
    30001d5c:	52800703 	mov	w3, #0x38                  	// #56
    30001d60:	910003fd 	mov	x29, sp
    30001d64:	a90153f3 	stp	x19, x20, [sp, #16]
    30001d68:	2a0103f4 	mov	w20, w1
    30001d6c:	aa0003f3 	mov	x19, x0
    30001d70:	aa1403e2 	mov	x2, x20
    30001d74:	aa0003e1 	mov	x1, x0
    30001d78:	94001722 	bl	30007a00 <mmap_add_dynamic_region>
    30001d7c:	340000e0 	cbz	w0, 30001d98 <tegra_clear_videomem+0x40>
    30001d80:	b0000062 	adrp	x2, 3000e000 <__TEXT_END__>
    30001d84:	b0000060 	adrp	x0, 3000e000 <__TEXT_END__>
    30001d88:	9124fc42 	add	x2, x2, #0x93f
    30001d8c:	528025a1 	mov	w1, #0x12d                 	// #301
    30001d90:	91252000 	add	x0, x0, #0x948
    30001d94:	9400162e 	bl	3000764c <__assert>
    30001d98:	aa1403e1 	mov	x1, x20
    30001d9c:	aa1303e0 	mov	x0, x19
    30001da0:	94001b3c 	bl	30008a90 <tegra_zeromem16>
    30001da4:	aa1403e1 	mov	x1, x20
    30001da8:	aa1303e0 	mov	x0, x19
    30001dac:	a94153f3 	ldp	x19, x20, [sp, #16]
    30001db0:	a8c27bfd 	ldp	x29, x30, [sp], #32
    30001db4:	1400171e 	b	30007a2c <mmap_remove_dynamic_region>

0000000030001db8 <tegra_memctrl_setup>:
    30001db8:	a9be7bfd 	stp	x29, x30, [sp, #-32]!
    30001dbc:	910003fd 	mov	x29, sp
    30001dc0:	f9000bf3 	str	x19, [sp, #16]
    30001dc4:	94000711 	bl	30003a08 <tegra_get_mc_settings>
    30001dc8:	aa0003f3 	mov	x19, x0
    30001dcc:	94000130 	bl	3000228c <tegra_smmu_init>
    30001dd0:	b50000f3 	cbnz	x19, 30001dec <tegra_memctrl_setup+0x34>
    30001dd4:	b0000062 	adrp	x2, 3000e000 <__TEXT_END__>
    30001dd8:	b0000060 	adrp	x0, 3000e000 <__TEXT_END__>
    30001ddc:	9125f842 	add	x2, x2, #0x97e
    30001de0:	528005c1 	mov	w1, #0x2e                  	// #46
    30001de4:	91252000 	add	x0, x0, #0x948
    30001de8:	94001619 	bl	3000764c <__assert>
    30001dec:	b9400a64 	ldr	w4, [x19, #8]
    30001df0:	d2800000 	mov	x0, #0x0                   	// #0
    30001df4:	b9401a62 	ldr	w2, [x19, #24]
    30001df8:	52a05806 	mov	w6, #0x2c00000             	// #46137344
    30001dfc:	f9400265 	ldr	x5, [x19]
    30001e00:	52800fe7 	mov	w7, #0x7f                  	// #127
    30001e04:	f9400a61 	ldr	x1, [x19, #16]
    30001e08:	6b00009f 	cmp	w4, w0
    30001e0c:	54000288 	b.hi	30001e5c <tegra_memctrl_setup+0xa4>  // b.pmore
    30001e10:	91002021 	add	x1, x1, #0x8
    30001e14:	52800300 	mov	w0, #0x18                  	// #24
    30001e18:	52a05804 	mov	w4, #0x2c00000             	// #46137344
    30001e1c:	9ba00442 	umaddl	x2, w2, w0, x1
    30001e20:	eb02003f 	cmp	x1, x2
    30001e24:	54000261 	b.ne	30001e70 <tegra_memctrl_setup+0xb8>  // b.any
    30001e28:	d2830400 	mov	x0, #0x1820                	// #6176
    30001e2c:	52800041 	mov	w1, #0x2                   	// #2
    30001e30:	f2a05820 	movk	x0, #0x2c1, lsl #16
    30001e34:	72b00001 	movk	w1, #0x8000, lsl #16
    30001e38:	b9000001 	str	w1, [x0]
    30001e3c:	f9401a60 	ldr	x0, [x19, #48]
    30001e40:	b4000040 	cbz	x0, 30001e48 <tegra_memctrl_setup+0x90>
    30001e44:	d63f0000 	blr	x0
    30001e48:	f9401e60 	ldr	x0, [x19, #56]
    30001e4c:	b4000240 	cbz	x0, 30001e94 <tegra_memctrl_setup+0xdc>
    30001e50:	f9400bf3 	ldr	x19, [sp, #16]
    30001e54:	a8c27bfd 	ldp	x29, x30, [sp], #32
    30001e58:	d61f0000 	br	x0
    30001e5c:	b86078a3 	ldr	w3, [x5, x0, lsl #2]
    30001e60:	91000400 	add	x0, x0, #0x1
    30001e64:	0b060063 	add	w3, w3, w6
    30001e68:	b9000067 	str	w7, [x3]
    30001e6c:	17ffffe7 	b	30001e08 <tegra_memctrl_setup+0x50>
    30001e70:	29408c20 	ldp	w0, w3, [x1, #4]
    30001e74:	53185c63 	lsl	w3, w3, #8
    30001e78:	2a004060 	orr	w0, w3, w0, lsl #16
    30001e7c:	b9400c23 	ldr	w3, [x1, #12]
    30001e80:	2a030000 	orr	w0, w0, w3
    30001e84:	b8418423 	ldr	w3, [x1], #24
    30001e88:	0b040063 	add	w3, w3, w4
    30001e8c:	b9000060 	str	w0, [x3]
    30001e90:	17ffffe4 	b	30001e20 <tegra_memctrl_setup+0x68>
    30001e94:	f9400bf3 	ldr	x19, [sp, #16]
    30001e98:	a8c27bfd 	ldp	x29, x30, [sp], #32
    30001e9c:	d65f03c0 	ret

0000000030001ea0 <tegra_memctrl_restore_settings>:
    30001ea0:	a9be7bfd 	stp	x29, x30, [sp, #-32]!
    30001ea4:	910003fd 	mov	x29, sp
    30001ea8:	f9000bf3 	str	x19, [sp, #16]
    30001eac:	940006d7 	bl	30003a08 <tegra_get_mc_settings>
    30001eb0:	b50000e0 	cbnz	x0, 30001ecc <tegra_memctrl_restore_settings+0x2c>
    30001eb4:	b0000062 	adrp	x2, 3000e000 <__TEXT_END__>
    30001eb8:	b0000060 	adrp	x0, 3000e000 <__TEXT_END__>
    30001ebc:	9125f842 	add	x2, x2, #0x97e
    30001ec0:	52800d21 	mov	w1, #0x69                  	// #105
    30001ec4:	91252000 	add	x0, x0, #0x948
    30001ec8:	940015e1 	bl	3000764c <__assert>
    30001ecc:	aa0003f3 	mov	x19, x0
    30001ed0:	f9401800 	ldr	x0, [x0, #48]
    30001ed4:	b4000040 	cbz	x0, 30001edc <tegra_memctrl_restore_settings+0x3c>
    30001ed8:	d63f0000 	blr	x0
    30001edc:	f9401e60 	ldr	x0, [x19, #56]
    30001ee0:	b4000040 	cbz	x0, 30001ee8 <tegra_memctrl_restore_settings+0x48>
    30001ee4:	d63f0000 	blr	x0
    30001ee8:	b00000a0 	adrp	x0, 30016000 <__STACKS_START__+0x1440>
    30001eec:	f946e800 	ldr	x0, [x0, #3536]
    30001ef0:	b40001c0 	cbz	x0, 30001f28 <tegra_memctrl_restore_settings+0x88>
    30001ef4:	d280c901 	mov	x1, #0x648                 	// #1608
    30001ef8:	f9400bf3 	ldr	x19, [sp, #16]
    30001efc:	f2a05821 	movk	x1, #0x2c1, lsl #16
    30001f00:	b9000020 	str	w0, [x1]
    30001f04:	d360fc00 	lsr	x0, x0, #32
    30001f08:	b9033020 	str	w0, [x1, #816]
    30001f0c:	b00000a0 	adrp	x0, 30016000 <__STACKS_START__+0x1440>
    30001f10:	f946ec01 	ldr	x1, [x0, #3544]
    30001f14:	d280c980 	mov	x0, #0x64c                 	// #1612
    30001f18:	f2a05820 	movk	x0, #0x2c1, lsl #16
    30001f1c:	b9000001 	str	w1, [x0]
    30001f20:	a8c27bfd 	ldp	x29, x30, [sp], #32
    30001f24:	14000228 	b	300027c4 <mce_update_gsc_videomem>
    30001f28:	f9400bf3 	ldr	x19, [sp, #16]
    30001f2c:	a8c27bfd 	ldp	x29, x30, [sp], #32
    30001f30:	d65f03c0 	ret

0000000030001f34 <tegra_memctrl_tzdram_setup>:
    30001f34:	2a0103e1 	mov	w1, w1
    30001f38:	140006b7 	b	30003a14 <plat_memctrl_tzdram_setup>

0000000030001f3c <tegra_memctrl_tzram_setup>:
    30001f3c:	a9bd7bfd 	stp	x29, x30, [sp, #-48]!
    30001f40:	910003fd 	mov	x29, sp
    30001f44:	a90153f3 	stp	x19, x20, [sp, #16]
    30001f48:	aa0003f4 	mov	x20, x0
    30001f4c:	530c7c33 	lsr	w19, w1, #12
    30001f50:	d2843400 	mov	x0, #0x21a0                	// #8608
    30001f54:	f90013f5 	str	x21, [sp, #32]
    30001f58:	53117c35 	lsr	w21, w1, #17
    30001f5c:	d2843a01 	mov	x1, #0x21d0                	// #8656
    30001f60:	f2a05820 	movk	x0, #0x2c1, lsl #16
    30001f64:	f2a05821 	movk	x1, #0x2c1, lsl #16
    30001f68:	b800441f 	str	wzr, [x0], #4
    30001f6c:	eb01001f 	cmp	x0, x1
    30001f70:	54ffffc1 	b.ne	30001f68 <tegra_memctrl_tzram_setup+0x2c>  // b.any
    30001f74:	97fffaac 	bl	30000a24 <tegra_chipid_is_t186>
    30001f78:	72001c1f 	tst	w0, #0xff
    30001f7c:	54000101 	b.ne	30001f9c <tegra_memctrl_tzram_setup+0x60>  // b.any
    30001f80:	d2843482 	mov	x2, #0x21a4                	// #8612
    30001f84:	52801001 	mov	w1, #0x80                  	// #128
    30001f88:	f2a05822 	movk	x2, #0x2c1, lsl #16
    30001f8c:	72a04001 	movk	w1, #0x200, lsl #16
    30001f90:	b9400040 	ldr	w0, [x2]
    30001f94:	2a010000 	orr	w0, w0, w1
    30001f98:	b9000040 	str	w0, [x2]
    30001f9c:	f2402e9f 	tst	x20, #0xfff
    30001fa0:	540000e0 	b.eq	30001fbc <tegra_memctrl_tzram_setup+0x80>  // b.none
    30001fa4:	b0000062 	adrp	x2, 3000e000 <__TEXT_END__>
    30001fa8:	b0000060 	adrp	x0, 3000e000 <__TEXT_END__>
    30001fac:	91265c42 	add	x2, x2, #0x997
    30001fb0:	528017c1 	mov	w1, #0xbe                  	// #190
    30001fb4:	91252000 	add	x0, x0, #0x948
    30001fb8:	940015a5 	bl	3000764c <__assert>
    30001fbc:	d2843280 	mov	x0, #0x2194                	// #8596
    30001fc0:	2a136ea1 	orr	w1, w21, w19, lsl #27
    30001fc4:	f2a05820 	movk	x0, #0x2c1, lsl #16
    30001fc8:	b9000014 	str	w20, [x0]
    30001fcc:	d3608694 	ubfx	x20, x20, #32, #2
    30001fd0:	b9000414 	str	w20, [x0, #4]
    30001fd4:	d2843214 	mov	x20, #0x2190                	// #8592
    30001fd8:	b9000801 	str	w1, [x0, #8]
    30001fdc:	f2a05834 	movk	x20, #0x2c1, lsl #16
    30001fe0:	b9400293 	ldr	w19, [x20]
    30001fe4:	97fffa90 	bl	30000a24 <tegra_chipid_is_t186>
    30001fe8:	52800042 	mov	w2, #0x2                   	// #2
    30001fec:	72001c1f 	tst	w0, #0xff
    30001ff0:	121f7a73 	and	w19, w19, #0xfffffffe
    30001ff4:	72b00002 	movk	w2, #0x8000, lsl #16
    30001ff8:	321f0261 	orr	w1, w19, #0x2
    30001ffc:	2a020273 	orr	w19, w19, w2
    30002000:	1a810273 	csel	w19, w19, w1, eq  // eq = none
    30002004:	f94013f5 	ldr	x21, [sp, #32]
    30002008:	b9000293 	str	w19, [x20]
    3000200c:	a94153f3 	ldp	x19, x20, [sp, #16]
    30002010:	a8c37bfd 	ldp	x29, x30, [sp], #48
    30002014:	140001f0 	b	300027d4 <mce_update_gsc_tzram>

0000000030002018 <tegra_memctrl_videomem_setup>:
    30002018:	a9bc7bfd 	stp	x29, x30, [sp, #-64]!
    3000201c:	910003fd 	mov	x29, sp
    30002020:	a9025bf5 	stp	x21, x22, [sp, #32]
    30002024:	900000b6 	adrp	x22, 30016000 <__STACKS_START__+0x1440>
    30002028:	a90153f3 	stp	x19, x20, [sp, #16]
    3000202c:	aa0003f4 	mov	x20, x0
    30002030:	f946eac0 	ldr	x0, [x22, #3536]
    30002034:	2a0103f3 	mov	w19, w1
    30002038:	a90363f7 	stp	x23, x24, [sp, #48]
    3000203c:	900000b8 	adrp	x24, 30016000 <__STACKS_START__+0x1440>
    30002040:	b40004a0 	cbz	x0, 300020d4 <tegra_memctrl_videomem_setup+0xbc>
    30002044:	f946ef01 	ldr	x1, [x24, #3544]
    30002048:	d284b602 	mov	x2, #0x25b0                	// #9648
    3000204c:	d284be04 	mov	x4, #0x25f0                	// #9712
    30002050:	f2a05822 	movk	x2, #0x2c1, lsl #16
    30002054:	f2a05824 	movk	x4, #0x2c1, lsl #16
    30002058:	d36cac35 	lsl	x21, x1, #20
    3000205c:	d351fea3 	lsr	x3, x21, #17
    30002060:	b800445f 	str	wzr, [x2], #4
    30002064:	eb04005f 	cmp	x2, x4
    30002068:	54ffffc1 	b.ne	30002060 <tegra_memctrl_videomem_setup+0x48>  // b.any
    3000206c:	f2402c1f 	tst	x0, #0xfff
    30002070:	540000e0 	b.eq	3000208c <tegra_memctrl_videomem_setup+0x74>  // b.none
    30002074:	90000062 	adrp	x2, 3000e000 <__TEXT_END__>
    30002078:	90000060 	adrp	x0, 3000e000 <__TEXT_END__>
    3000207c:	91265c42 	add	x2, x2, #0x997
    30002080:	52801ee1 	mov	w1, #0xf7                  	// #247
    30002084:	91252000 	add	x0, x0, #0x948
    30002088:	94001571 	bl	3000764c <__assert>
    3000208c:	d284b482 	mov	x2, #0x25a4                	// #9636
    30002090:	d3608404 	ubfx	x4, x0, #32, #2
    30002094:	f2a05822 	movk	x2, #0x2c1, lsl #16
    30002098:	8b150015 	add	x21, x0, x21
    3000209c:	eb15029f 	cmp	x20, x21
    300020a0:	b9000040 	str	w0, [x2]
    300020a4:	b9000444 	str	w4, [x2, #4]
    300020a8:	b9000843 	str	w3, [x2, #8]
    300020ac:	d284b402 	mov	x2, #0x25a0                	// #9632
    300020b0:	f2a05822 	movk	x2, #0x2c1, lsl #16
    300020b4:	52800023 	mov	w3, #0x1                   	// #1
    300020b8:	b9000043 	str	w3, [x2]
    300020bc:	54000088 	b.hi	300020cc <tegra_memctrl_videomem_setup+0xb4>  // b.pmore
    300020c0:	8b334297 	add	x23, x20, w19, uxtw
    300020c4:	eb17001f 	cmp	x0, x23
    300020c8:	54000329 	b.ls	3000212c <tegra_memctrl_videomem_setup+0x114>  // b.plast
    300020cc:	530c2c21 	lsl	w1, w1, #20
    300020d0:	97ffff22 	bl	30001d58 <tegra_clear_videomem>
    300020d4:	d280c900 	mov	x0, #0x648                 	// #1608
    300020d8:	d360fe81 	lsr	x1, x20, #32
    300020dc:	f2a05820 	movk	x0, #0x2c1, lsl #16
    300020e0:	53147e73 	lsr	w19, w19, #20
    300020e4:	b9000014 	str	w20, [x0]
    300020e8:	b9033001 	str	w1, [x0, #816]
    300020ec:	d280c980 	mov	x0, #0x64c                 	// #1612
    300020f0:	f2a05820 	movk	x0, #0x2c1, lsl #16
    300020f4:	b9000013 	str	w19, [x0]
    300020f8:	f906ead4 	str	x20, [x22, #3536]
    300020fc:	f906ef13 	str	x19, [x24, #3544]
    30002100:	940001b1 	bl	300027c4 <mce_update_gsc_videomem>
    30002104:	d284b480 	mov	x0, #0x25a4                	// #9636
    30002108:	f2a05820 	movk	x0, #0x2c1, lsl #16
    3000210c:	a94153f3 	ldp	x19, x20, [sp, #16]
    30002110:	a9425bf5 	ldp	x21, x22, [sp, #32]
    30002114:	a94363f7 	ldp	x23, x24, [sp, #48]
    30002118:	b900001f 	str	wzr, [x0]
    3000211c:	b900041f 	str	wzr, [x0, #4]
    30002120:	b900081f 	str	wzr, [x0, #8]
    30002124:	a8c47bfd 	ldp	x29, x30, [sp], #64
    30002128:	d65f03c0 	ret
    3000212c:	eb14001f 	cmp	x0, x20
    30002130:	54000062 	b.cs	3000213c <tegra_memctrl_videomem_setup+0x124>  // b.hs, b.nlast
    30002134:	4b000281 	sub	w1, w20, w0
    30002138:	97ffff08 	bl	30001d58 <tegra_clear_videomem>
    3000213c:	eb1702bf 	cmp	x21, x23
    30002140:	54fffca9 	b.ls	300020d4 <tegra_memctrl_videomem_setup+0xbc>  // b.plast
    30002144:	4b1702a1 	sub	w1, w21, w23
    30002148:	aa1703e0 	mov	x0, x23
    3000214c:	17ffffe1 	b	300020d0 <tegra_memctrl_videomem_setup+0xb8>

0000000030002150 <tegra_memctrl_disable_ahb_redirection>:
    30002150:	d65f03c0 	ret

0000000030002154 <tegra_memctrl_clear_pending_interrupts>:
    30002154:	d65f03c0 	ret

0000000030002158 <tegra_smmu_save_context>:
    30002158:	a9be7bfd 	stp	x29, x30, [sp, #-32]!
    3000215c:	910003fd 	mov	x29, sp
    30002160:	f9000bf3 	str	x19, [sp, #16]
    30002164:	aa0003f3 	mov	x19, x0
    30002168:	97fff8b9 	bl	3000044c <bl31_get_plat_params>
    3000216c:	a9401003 	ldp	x3, x4, [x0]
    30002170:	d2800480 	mov	x0, #0x24                  	// #36
    30002174:	f2a24000 	movk	x0, #0x1200, lsl #16
    30002178:	52800181 	mov	w1, #0xc                   	// #12
    3000217c:	52800202 	mov	w2, #0x10                  	// #16
    30002180:	8b030083 	add	x3, x4, x3
    30002184:	b9400000 	ldr	w0, [x0]
    30002188:	7100001f 	cmp	w0, #0x0
    3000218c:	1a81b042 	csel	w2, w2, w1, lt  // lt = tstop
    30002190:	d35c7800 	ubfx	x0, x0, #28, #3
    30002194:	52800041 	mov	w1, #0x2                   	// #2
    30002198:	11000400 	add	w0, w0, #0x1
    3000219c:	1ac22021 	lsl	w1, w1, w2
    300021a0:	1ac02020 	lsl	w0, w1, w0
    300021a4:	7160001f 	cmp	w0, #0x800, lsl #12
    300021a8:	7a500840 	ccmp	w2, #0x10, #0x0, eq  // eq = none
    300021ac:	540000e0 	b.eq	300021c8 <tegra_smmu_save_context+0x70>  // b.none
    300021b0:	90000062 	adrp	x2, 3000e000 <__TEXT_END__>
    300021b4:	9126ec42 	add	x2, x2, #0x9bb
    300021b8:	52800ae1 	mov	w1, #0x57                  	// #87
    300021bc:	90000060 	adrp	x0, 3000e000 <__TEXT_END__>
    300021c0:	9127ac00 	add	x0, x0, #0x9eb
    300021c4:	94001522 	bl	3000764c <__assert>
    300021c8:	eb13009f 	cmp	x4, x19
    300021cc:	fa539060 	ccmp	x3, x19, #0x0, ls  // ls = plast
    300021d0:	540000a2 	b.cs	300021e4 <tegra_smmu_save_context+0x8c>  // b.hs, b.nlast
    300021d4:	90000062 	adrp	x2, 3000e000 <__TEXT_END__>
    300021d8:	52800b01 	mov	w1, #0x58                  	// #88
    300021dc:	91286042 	add	x2, x2, #0xa18
    300021e0:	17fffff7 	b	300021bc <tegra_smmu_save_context+0x64>
    300021e4:	9400086e 	bl	3000439c <plat_get_smmu_ctx>
    300021e8:	52800002 	mov	w2, #0x0                   	// #0
    300021ec:	b50000c0 	cbnz	x0, 30002204 <tegra_smmu_save_context+0xac>
    300021f0:	90000062 	adrp	x2, 3000e000 <__TEXT_END__>
    300021f4:	52800b81 	mov	w1, #0x5c                  	// #92
    300021f8:	91296042 	add	x2, x2, #0xa58
    300021fc:	17fffff0 	b	300021bc <tegra_smmu_save_context+0x64>
    30002200:	11000442 	add	w2, w2, #0x1
    30002204:	d37d7c41 	ubfiz	x1, x2, #3, #32
    30002208:	b8616801 	ldr	w1, [x0, x1]
    3000220c:	3100043f 	cmn	w1, #0x1
    30002210:	54ffff81 	b.ne	30002200 <tegra_smmu_save_context+0xa8>  // b.any
    30002214:	b9400401 	ldr	w1, [x0, #4]
    30002218:	6b02003f 	cmp	w1, w2
    3000221c:	54000241 	b.ne	30002264 <tegra_smmu_save_context+0x10c>  // b.any
    30002220:	91002001 	add	x1, x0, #0x8
    30002224:	52800023 	mov	w3, #0x1                   	// #1
    30002228:	6b02007f 	cmp	w3, w2
    3000222c:	54000243 	b.cc	30002274 <tegra_smmu_save_context+0x11c>  // b.lo, b.ul, b.last
    30002230:	11000442 	add	w2, w2, #0x1
    30002234:	aa0003e1 	mov	x1, x0
    30002238:	aa1303e0 	mov	x0, x19
    3000223c:	d37df042 	lsl	x2, x2, #3
    30002240:	94001a17 	bl	30008a9c <tegra_memcpy16>
    30002244:	d280d500 	mov	x0, #0x6a8                 	// #1704
    30002248:	f2a18720 	movk	x0, #0xc39, lsl #16
    3000224c:	b9000013 	str	w19, [x0]
    30002250:	d360fe73 	lsr	x19, x19, #32
    30002254:	b9000413 	str	w19, [x0, #4]
    30002258:	f9400bf3 	ldr	x19, [sp, #16]
    3000225c:	a8c27bfd 	ldp	x29, x30, [sp], #32
    30002260:	d65f03c0 	ret
    30002264:	90000060 	adrp	x0, 3000e000 <__TEXT_END__>
    30002268:	9129b800 	add	x0, x0, #0xa6e
    3000226c:	9400142e 	bl	30007324 <tf_printf>
    30002270:	940025e1 	bl	3000b9f4 <do_panic>
    30002274:	b9400024 	ldr	w4, [x1]
    30002278:	11000463 	add	w3, w3, #0x1
    3000227c:	91002021 	add	x1, x1, #0x8
    30002280:	b9400084 	ldr	w4, [x4]
    30002284:	b81fc024 	stur	w4, [x1, #-4]
    30002288:	17ffffe8 	b	30002228 <tegra_smmu_save_context+0xd0>

000000003000228c <tegra_smmu_init>:
    3000228c:	a9bf7bfd 	stp	x29, x30, [sp, #-16]!
    30002290:	910003fd 	mov	x29, sp
    30002294:	94000847 	bl	300043b0 <plat_get_num_smmu_devices>
    30002298:	d2800203 	mov	x3, #0x10                  	// #16
    3000229c:	d2808204 	mov	x4, #0x410                 	// #1040
    300022a0:	d2800086 	mov	x6, #0x4                   	// #4
    300022a4:	52800001 	mov	w1, #0x0                   	// #0
    300022a8:	f2a24003 	movk	x3, #0x1200, lsl #16
    300022ac:	f2a24004 	movk	x4, #0x1200, lsl #16
    300022b0:	f2a25006 	movk	x6, #0x1280, lsl #16
    300022b4:	6b00003f 	cmp	w1, w0
    300022b8:	54000061 	b.ne	300022c4 <tegra_smmu_init+0x38>  // b.any
    300022bc:	a8c17bfd 	ldp	x29, x30, [sp], #16
    300022c0:	d65f03c0 	ret
    300022c4:	35000101 	cbnz	w1, 300022e4 <tegra_smmu_init+0x58>
    300022c8:	b9400062 	ldr	w2, [x3]
    300022cc:	12057842 	and	w2, w2, #0xfbffffff
    300022d0:	32100042 	orr	w2, w2, #0x10000
    300022d4:	b9000062 	str	w2, [x3]
    300022d8:	b9400082 	ldr	w2, [x4]
    300022dc:	12057842 	and	w2, w2, #0xfbffffff
    300022e0:	b9000082 	str	w2, [x4]
    300022e4:	d2800082 	mov	x2, #0x4                   	// #4
    300022e8:	f2a24802 	movk	x2, #0x1240, lsl #16
    300022ec:	35000081 	cbnz	w1, 300022fc <tegra_smmu_init+0x70>
    300022f0:	b9400045 	ldr	w5, [x2]
    300022f4:	121e78a5 	and	w5, w5, #0xfffffffd
    300022f8:	b9000045 	str	w5, [x2]
    300022fc:	91404042 	add	x2, x2, #0x10, lsl #12
    30002300:	eb06005f 	cmp	x2, x6
    30002304:	54ffff41 	b.ne	300022ec <tegra_smmu_init+0x60>  // b.any
    30002308:	350000e1 	cbnz	w1, 30002324 <tegra_smmu_init+0x98>
    3000230c:	b9400082 	ldr	w2, [x4]
    30002310:	32060042 	orr	w2, w2, #0x4000000
    30002314:	b9000082 	str	w2, [x4]
    30002318:	b9400062 	ldr	w2, [x3]
    3000231c:	32060042 	orr	w2, w2, #0x4000000
    30002320:	b9000062 	str	w2, [x3]
    30002324:	11000421 	add	w1, w1, #0x1
    30002328:	17ffffe3 	b	300022b4 <tegra_smmu_init+0x28>

000000003000232c <mce_get_curr_cpu_ari_base>:
    3000232c:	d53800a0 	mrs	x0, mpidr_el1
    30002330:	92401c00 	and	x0, x0, #0xff
    30002334:	d5380001 	mrs	x1, midr_el1
    30002338:	53187c21 	lsr	w1, w1, #24
    3000233c:	f101383f 	cmp	x1, #0x4e
    30002340:	54000041 	b.ne	30002348 <mce_get_curr_cpu_ari_base+0x1c>  // b.any
    30002344:	b27e0000 	orr	x0, x0, #0x4
    30002348:	d37cec00 	lsl	x0, x0, #4
    3000234c:	90000081 	adrp	x1, 30012000 <__RODATA_END__>
    30002350:	91078021 	add	x1, x1, #0x1e0
    30002354:	b8606820 	ldr	w0, [x1, x0]
    30002358:	d65f03c0 	ret

000000003000235c <mce_get_curr_cpu_ops>:
    3000235c:	d53800a0 	mrs	x0, mpidr_el1
    30002360:	92401c00 	and	x0, x0, #0xff
    30002364:	d5380001 	mrs	x1, midr_el1
    30002368:	53187c21 	lsr	w1, w1, #24
    3000236c:	f101383f 	cmp	x1, #0x4e
    30002370:	54000041 	b.ne	30002378 <mce_get_curr_cpu_ops+0x1c>  // b.any
    30002374:	b27e0000 	orr	x0, x0, #0x4
    30002378:	90000081 	adrp	x1, 30012000 <__RODATA_END__>
    3000237c:	91078021 	add	x1, x1, #0x1e0
    30002380:	8b001020 	add	x0, x1, x0, lsl #4
    30002384:	f9400400 	ldr	x0, [x0, #8]
    30002388:	d65f03c0 	ret

000000003000238c <mce_update_ccplex_gsc>:
    3000238c:	2a0003e3 	mov	w3, w0
    30002390:	a9bf7bfd 	stp	x29, x30, [sp, #-16]!
    30002394:	910003fd 	mov	x29, sp
    30002398:	97fffff1 	bl	3000235c <mce_get_curr_cpu_ops>
    3000239c:	f9403c02 	ldr	x2, [x0, #120]
    300023a0:	97ffffe3 	bl	3000232c <mce_get_curr_cpu_ari_base>
    300023a4:	2a0303e1 	mov	w1, w3
    300023a8:	d63f0040 	blr	x2
    300023ac:	52800000 	mov	w0, #0x0                   	// #0
    300023b0:	a8c17bfd 	ldp	x29, x30, [sp], #16
    300023b4:	d65f03c0 	ret

00000000300023b8 <mce_command_handler>:
    300023b8:	a9bc7bfd 	stp	x29, x30, [sp, #-64]!
    300023bc:	910003fd 	mov	x29, sp
    300023c0:	a90153f3 	stp	x19, x20, [sp, #16]
    300023c4:	aa0003f3 	mov	x19, x0
    300023c8:	a9025bf5 	stp	x21, x22, [sp, #32]
    300023cc:	52800020 	mov	w0, #0x1                   	// #1
    300023d0:	aa0103f5 	mov	x21, x1
    300023d4:	aa0303f6 	mov	x22, x3
    300023d8:	f9001fa2 	str	x2, [x29, #56]
    300023dc:	940008cc 	bl	3000470c <cm_get_context>
    300023e0:	b50000e0 	cbnz	x0, 300023fc <mce_command_handler+0x44>
    300023e4:	90000062 	adrp	x2, 3000e000 <__TEXT_END__>
    300023e8:	90000060 	adrp	x0, 3000e000 <__TEXT_END__>
    300023ec:	912a9c42 	add	x2, x2, #0xaa7
    300023f0:	52801441 	mov	w1, #0xa2                  	// #162
    300023f4:	912adc00 	add	x0, x0, #0xab7
    300023f8:	94001495 	bl	3000764c <__assert>
    300023fc:	aa0003f4 	mov	x20, x0
    30002400:	97ffffd7 	bl	3000235c <mce_get_curr_cpu_ops>
    30002404:	aa0003e2 	mov	x2, x0
    30002408:	97ffffc9 	bl	3000232c <mce_get_curr_cpu_ari_base>
    3000240c:	f100267f 	cmp	x19, #0x9
    30002410:	540015e0 	b.eq	300026cc <mce_command_handler+0x314>  // b.none
    30002414:	540003e8 	b.hi	30002490 <mce_command_handler+0xd8>  // b.pmore
    30002418:	f100127f 	cmp	x19, #0x4
    3000241c:	54000fe0 	b.eq	30002618 <mce_command_handler+0x260>  // b.none
    30002420:	540001c8 	b.hi	30002458 <mce_command_handler+0xa0>  // b.pmore
    30002424:	f100067f 	cmp	x19, #0x1
    30002428:	54000a40 	b.eq	30002570 <mce_command_handler+0x1b8>  // b.none
    3000242c:	b4000893 	cbz	x19, 3000253c <mce_command_handler+0x184>
    30002430:	f1000a7f 	cmp	x19, #0x2
    30002434:	54000cc0 	b.eq	300025cc <mce_command_handler+0x214>  // b.none
    30002438:	f1000e7f 	cmp	x19, #0x3
    3000243c:	54000e00 	b.eq	300025fc <mce_command_handler+0x244>  // b.none
    30002440:	aa1303e1 	mov	x1, x19
    30002444:	90000060 	adrp	x0, 3000e000 <__TEXT_END__>
    30002448:	528002d3 	mov	w19, #0x16                  	// #22
    3000244c:	91313800 	add	x0, x0, #0xc4e
    30002450:	940013b5 	bl	30007324 <tf_printf>
    30002454:	14000059 	b	300025b8 <mce_command_handler+0x200>
    30002458:	f1001a7f 	cmp	x19, #0x6
    3000245c:	54001080 	b.eq	3000266c <mce_command_handler+0x2b4>  // b.none
    30002460:	54000f43 	b.cc	30002648 <mce_command_handler+0x290>  // b.lo, b.ul, b.last
    30002464:	f1001e7f 	cmp	x19, #0x7
    30002468:	54001180 	b.eq	30002698 <mce_command_handler+0x2e0>  // b.none
    3000246c:	f100227f 	cmp	x19, #0x8
    30002470:	54fffe81 	b.ne	30002440 <mce_command_handler+0x88>  // b.any
    30002474:	f9401443 	ldr	x3, [x2, #40]
    30002478:	52800001 	mov	w1, #0x0                   	// #0
    3000247c:	2a1503e2 	mov	w2, w21
    30002480:	d63f0060 	blr	x3
    30002484:	eb0002bf 	cmp	x21, x0
    30002488:	9a9f17e0 	cset	x0, eq  // eq = none
    3000248c:	1400005f 	b	30002608 <mce_command_handler+0x250>
    30002490:	f1003a7f 	cmp	x19, #0xe
    30002494:	540014a0 	b.eq	30002728 <mce_command_handler+0x370>  // b.none
    30002498:	540001c8 	b.hi	300024d0 <mce_command_handler+0x118>  // b.pmore
    3000249c:	f1002e7f 	cmp	x19, #0xb
    300024a0:	54001300 	b.eq	30002700 <mce_command_handler+0x348>  // b.none
    300024a4:	54001223 	b.cc	300026e8 <mce_command_handler+0x330>  // b.lo, b.ul, b.last
    300024a8:	f100327f 	cmp	x19, #0xc
    300024ac:	54001520 	b.eq	30002750 <mce_command_handler+0x398>  // b.none
    300024b0:	f100367f 	cmp	x19, #0xd
    300024b4:	54fffc61 	b.ne	30002440 <mce_command_handler+0x88>  // b.any
    300024b8:	f9403843 	ldr	x3, [x2, #112]
    300024bc:	aa1503e1 	mov	x1, x21
    300024c0:	9100e3a2 	add	x2, x29, #0x38
    300024c4:	d63f0060 	blr	x3
    300024c8:	f9000680 	str	x0, [x20, #8]
    300024cc:	140000a7 	b	30002768 <mce_command_handler+0x3b0>
    300024d0:	f100467f 	cmp	x19, #0x11
    300024d4:	540014e0 	b.eq	30002770 <mce_command_handler+0x3b8>  // b.none
    300024d8:	540001a8 	b.hi	3000250c <mce_command_handler+0x154>  // b.pmore
    300024dc:	f1003e7f 	cmp	x19, #0xf
    300024e0:	54fffb01 	b.ne	30002440 <mce_command_handler+0x88>  // b.any
    300024e4:	f9403441 	ldr	x1, [x2, #104]
    300024e8:	d63f0020 	blr	x1
    300024ec:	2a0003f3 	mov	w19, w0
    300024f0:	36f80640 	tbz	w0, #31, 300025b8 <mce_command_handler+0x200>
    300024f4:	2a0003e2 	mov	w2, w0
    300024f8:	90000061 	adrp	x1, 3000e000 <__TEXT_END__>
    300024fc:	90000060 	adrp	x0, 3000e000 <__TEXT_END__>
    30002500:	912a4c21 	add	x1, x1, #0xa93
    30002504:	9130a400 	add	x0, x0, #0xc29
    30002508:	14000018 	b	30002568 <mce_command_handler+0x1b0>
    3000250c:	f1004a7f 	cmp	x19, #0x12
    30002510:	540013e0 	b.eq	3000278c <mce_command_handler+0x3d4>  // b.none
    30002514:	f103fa7f 	cmp	x19, #0xfe
    30002518:	54fff941 	b.ne	30002440 <mce_command_handler+0x88>  // b.any
    3000251c:	f9401843 	ldr	x3, [x2, #48]
    30002520:	2a1503e1 	mov	w1, w21
    30002524:	b9403ba2 	ldr	w2, [x29, #56]
    30002528:	d63f0060 	blr	x3
    3000252c:	93407c00 	sxtw	x0, w0
    30002530:	aa0003f3 	mov	x19, x0
    30002534:	f9000680 	str	x0, [x20, #8]
    30002538:	14000020 	b	300025b8 <mce_command_handler+0x200>
    3000253c:	f9400043 	ldr	x3, [x2]
    30002540:	2a1503e1 	mov	w1, w21
    30002544:	b9403ba2 	ldr	w2, [x29, #56]
    30002548:	d63f0060 	blr	x3
    3000254c:	2a0003f3 	mov	w19, w0
    30002550:	36f80340 	tbz	w0, #31, 300025b8 <mce_command_handler+0x200>
    30002554:	2a0003e2 	mov	w2, w0
    30002558:	90000061 	adrp	x1, 3000e000 <__TEXT_END__>
    3000255c:	90000060 	adrp	x0, 3000e000 <__TEXT_END__>
    30002560:	912a4c21 	add	x1, x1, #0xa93
    30002564:	912b9000 	add	x0, x0, #0xae4
    30002568:	9400136f 	bl	30007324 <tf_printf>
    3000256c:	14000013 	b	300025b8 <mce_command_handler+0x200>
    30002570:	f9400447 	ldr	x7, [x2, #8]
    30002574:	2a1603e3 	mov	w3, w22
    30002578:	3940c286 	ldrb	w6, [x20, #48]
    3000257c:	2a1503e1 	mov	w1, w21
    30002580:	39408284 	ldrb	w4, [x20, #32]
    30002584:	b9402a85 	ldr	w5, [x20, #40]
    30002588:	b9403ba2 	ldr	w2, [x29, #56]
    3000258c:	d63f00e0 	blr	x7
    30002590:	2a0003f3 	mov	w19, w0
    30002594:	36f800e0 	tbz	w0, #31, 300025b0 <mce_command_handler+0x1f8>
    30002598:	2a0003e2 	mov	w2, w0
    3000259c:	90000061 	adrp	x1, 3000e000 <__TEXT_END__>
    300025a0:	90000060 	adrp	x0, 3000e000 <__TEXT_END__>
    300025a4:	912a4c21 	add	x1, x1, #0xa93
    300025a8:	912c2800 	add	x0, x0, #0xb0a
    300025ac:	9400135e 	bl	30007324 <tf_printf>
    300025b0:	a9027e9f 	stp	xzr, xzr, [x20, #32]
    300025b4:	f9001a9f 	str	xzr, [x20, #48]
    300025b8:	2a1303e0 	mov	w0, w19
    300025bc:	a94153f3 	ldp	x19, x20, [sp, #16]
    300025c0:	a9425bf5 	ldp	x21, x22, [sp, #32]
    300025c4:	a8c47bfd 	ldp	x29, x30, [sp], #64
    300025c8:	d65f03c0 	ret
    300025cc:	f9400843 	ldr	x3, [x2, #16]
    300025d0:	2a1503e1 	mov	w1, w21
    300025d4:	b9403ba2 	ldr	w2, [x29, #56]
    300025d8:	d63f0060 	blr	x3
    300025dc:	2a0003f3 	mov	w19, w0
    300025e0:	36fffec0 	tbz	w0, #31, 300025b8 <mce_command_handler+0x200>
    300025e4:	2a0003e2 	mov	w2, w0
    300025e8:	90000061 	adrp	x1, 3000e000 <__TEXT_END__>
    300025ec:	90000060 	adrp	x0, 3000e000 <__TEXT_END__>
    300025f0:	912a4c21 	add	x1, x1, #0xa93
    300025f4:	912cd800 	add	x0, x0, #0xb36
    300025f8:	17ffffdc 	b	30002568 <mce_command_handler+0x1b0>
    300025fc:	f9400c42 	ldr	x2, [x2, #24]
    30002600:	2a1503e1 	mov	w1, w21
    30002604:	d63f0040 	blr	x2
    30002608:	f9000680 	str	x0, [x20, #8]
    3000260c:	f9000a80 	str	x0, [x20, #16]
    30002610:	52800013 	mov	w19, #0x0                   	// #0
    30002614:	17ffffe9 	b	300025b8 <mce_command_handler+0x200>
    30002618:	f9401043 	ldr	x3, [x2, #32]
    3000261c:	2a1503e1 	mov	w1, w21
    30002620:	b9403ba2 	ldr	w2, [x29, #56]
    30002624:	d63f0060 	blr	x3
    30002628:	2a0003f3 	mov	w19, w0
    3000262c:	36fffc60 	tbz	w0, #31, 300025b8 <mce_command_handler+0x200>
    30002630:	2a0003e2 	mov	w2, w0
    30002634:	90000061 	adrp	x1, 3000e000 <__TEXT_END__>
    30002638:	90000060 	adrp	x0, 3000e000 <__TEXT_END__>
    3000263c:	912a4c21 	add	x1, x1, #0xa93
    30002640:	912d9400 	add	x0, x0, #0xb65
    30002644:	17ffffc9 	b	30002568 <mce_command_handler+0x1b0>
    30002648:	f9401c43 	ldr	x3, [x2, #56]
    3000264c:	2a1503e1 	mov	w1, w21
    30002650:	b9403ba2 	ldr	w2, [x29, #56]
    30002654:	d63f0060 	blr	x3
    30002658:	93407c00 	sxtw	x0, w0
    3000265c:	aa0003f3 	mov	x19, x0
    30002660:	f9000680 	str	x0, [x20, #8]
    30002664:	f9000e80 	str	x0, [x20, #24]
    30002668:	17ffffd4 	b	300025b8 <mce_command_handler+0x200>
    3000266c:	f9402042 	ldr	x2, [x2, #64]
    30002670:	2a1503e1 	mov	w1, w21
    30002674:	d63f0040 	blr	x2
    30002678:	2a0003f3 	mov	w19, w0
    3000267c:	36fff9e0 	tbz	w0, #31, 300025b8 <mce_command_handler+0x200>
    30002680:	2a0003e2 	mov	w2, w0
    30002684:	90000061 	adrp	x1, 3000e000 <__TEXT_END__>
    30002688:	90000060 	adrp	x0, 3000e000 <__TEXT_END__>
    3000268c:	912a4c21 	add	x1, x1, #0xa93
    30002690:	912e4400 	add	x0, x0, #0xb91
    30002694:	17ffffb5 	b	30002568 <mce_command_handler+0x1b0>
    30002698:	f9402444 	ldr	x4, [x2, #72]
    3000269c:	2a1603e3 	mov	w3, w22
    300026a0:	b9403ba2 	ldr	w2, [x29, #56]
    300026a4:	2a1503e1 	mov	w1, w21
    300026a8:	d63f0080 	blr	x4
    300026ac:	2a0003f3 	mov	w19, w0
    300026b0:	36fff840 	tbz	w0, #31, 300025b8 <mce_command_handler+0x200>
    300026b4:	2a0003e2 	mov	w2, w0
    300026b8:	90000061 	adrp	x1, 3000e000 <__TEXT_END__>
    300026bc:	90000060 	adrp	x0, 3000e000 <__TEXT_END__>
    300026c0:	912a4c21 	add	x1, x1, #0xa93
    300026c4:	912ed800 	add	x0, x0, #0xbb6
    300026c8:	17ffffa8 	b	30002568 <mce_command_handler+0x1b0>
    300026cc:	f9401443 	ldr	x3, [x2, #40]
    300026d0:	52800021 	mov	w1, #0x1                   	// #1
    300026d4:	2a1503e2 	mov	w2, w21
    300026d8:	d63f0060 	blr	x3
    300026dc:	f9000680 	str	x0, [x20, #8]
    300026e0:	d360fc00 	lsr	x0, x0, #32
    300026e4:	17ffffca 	b	3000260c <mce_command_handler+0x254>
    300026e8:	f9401443 	ldr	x3, [x2, #40]
    300026ec:	52800041 	mov	w1, #0x2                   	// #2
    300026f0:	2a1503e2 	mov	w2, w21
    300026f4:	d63f0060 	blr	x3
    300026f8:	f9000680 	str	x0, [x20, #8]
    300026fc:	17ffffc5 	b	30002610 <mce_command_handler+0x258>
    30002700:	f9403041 	ldr	x1, [x2, #96]
    30002704:	d63f0020 	blr	x1
    30002708:	2a0003f3 	mov	w19, w0
    3000270c:	36fff560 	tbz	w0, #31, 300025b8 <mce_command_handler+0x200>
    30002710:	2a0003e2 	mov	w2, w0
    30002714:	90000061 	adrp	x1, 3000e000 <__TEXT_END__>
    30002718:	90000060 	adrp	x0, 3000e000 <__TEXT_END__>
    3000271c:	912a4c21 	add	x1, x1, #0xa93
    30002720:	912f6000 	add	x0, x0, #0xbd8
    30002724:	17ffff91 	b	30002568 <mce_command_handler+0x1b0>
    30002728:	f9402c41 	ldr	x1, [x2, #88]
    3000272c:	d63f0020 	blr	x1
    30002730:	2a0003f3 	mov	w19, w0
    30002734:	36fff420 	tbz	w0, #31, 300025b8 <mce_command_handler+0x200>
    30002738:	2a0003e2 	mov	w2, w0
    3000273c:	90000061 	adrp	x1, 3000e000 <__TEXT_END__>
    30002740:	90000060 	adrp	x0, 3000e000 <__TEXT_END__>
    30002744:	912a4c21 	add	x1, x1, #0xa93
    30002748:	91301000 	add	x0, x0, #0xc04
    3000274c:	17ffff87 	b	30002568 <mce_command_handler+0x1b0>
    30002750:	f9403843 	ldr	x3, [x2, #112]
    30002754:	aa1503e1 	mov	x1, x21
    30002758:	9100e3a2 	add	x2, x29, #0x38
    3000275c:	d63f0060 	blr	x3
    30002760:	f9401fa1 	ldr	x1, [x29, #56]
    30002764:	a9008680 	stp	x0, x1, [x20, #8]
    30002768:	f9000e80 	str	x0, [x20, #24]
    3000276c:	17ffffa9 	b	30002610 <mce_command_handler+0x258>
    30002770:	f9404443 	ldr	x3, [x2, #136]
    30002774:	aa1503e1 	mov	x1, x21
    30002778:	9100e3a2 	add	x2, x29, #0x38
    3000277c:	d63f0060 	blr	x3
    30002780:	2a0003f3 	mov	w19, w0
    30002784:	f9401fa0 	ldr	x0, [x29, #56]
    30002788:	17ffff6b 	b	30002534 <mce_command_handler+0x17c>
    3000278c:	f9404843 	ldr	x3, [x2, #144]
    30002790:	2a1503e1 	mov	w1, w21
    30002794:	b9403ba2 	ldr	w2, [x29, #56]
    30002798:	d63f0060 	blr	x3
    3000279c:	17ffff9d 	b	30002610 <mce_command_handler+0x258>

00000000300027a0 <mce_update_reset_vector>:
    300027a0:	a9bf7bfd 	stp	x29, x30, [sp, #-16]!
    300027a4:	910003fd 	mov	x29, sp
    300027a8:	97fffeed 	bl	3000235c <mce_get_curr_cpu_ops>
    300027ac:	f9402802 	ldr	x2, [x0, #80]
    300027b0:	97fffedf 	bl	3000232c <mce_get_curr_cpu_ari_base>
    300027b4:	d63f0040 	blr	x2
    300027b8:	52800000 	mov	w0, #0x0                   	// #0
    300027bc:	a8c17bfd 	ldp	x29, x30, [sp], #16
    300027c0:	d65f03c0 	ret

00000000300027c4 <mce_update_gsc_videomem>:
    300027c4:	52800460 	mov	w0, #0x23                  	// #35
    300027c8:	17fffef1 	b	3000238c <mce_update_ccplex_gsc>

00000000300027cc <mce_update_gsc_tzdram>:
    300027cc:	52800440 	mov	w0, #0x22                  	// #34
    300027d0:	17fffeef 	b	3000238c <mce_update_ccplex_gsc>

00000000300027d4 <mce_update_gsc_tzram>:
    300027d4:	52800160 	mov	w0, #0xb                   	// #11
    300027d8:	17fffeed 	b	3000238c <mce_update_ccplex_gsc>

00000000300027dc <mce_enter_ccplex_state>:
    300027dc:	2a0003e2 	mov	w2, w0
    300027e0:	a9bf7bfd 	stp	x29, x30, [sp, #-16]!
    300027e4:	910003fd 	mov	x29, sp
    300027e8:	97fffedd 	bl	3000235c <mce_get_curr_cpu_ops>
    300027ec:	7100045f 	cmp	w2, #0x1
    300027f0:	54000049 	b.ls	300027f8 <mce_enter_ccplex_state+0x1c>  // b.plast
    300027f4:	94002480 	bl	3000b9f4 <do_panic>
    300027f8:	f9404003 	ldr	x3, [x0, #128]
    300027fc:	97fffecc 	bl	3000232c <mce_get_curr_cpu_ari_base>
    30002800:	2a0203e1 	mov	w1, w2
    30002804:	d63f0060 	blr	x3
    30002808:	14000000 	b	30002808 <mce_enter_ccplex_state+0x2c>

000000003000280c <mce_update_cstate_info>:
    3000280c:	aa0003e7 	mov	x7, x0
    30002810:	a9bf7bfd 	stp	x29, x30, [sp, #-16]!
    30002814:	910003fd 	mov	x29, sp
    30002818:	97fffed1 	bl	3000235c <mce_get_curr_cpu_ops>
    3000281c:	f9400408 	ldr	x8, [x0, #8]
    30002820:	97fffec3 	bl	3000232c <mce_get_curr_cpu_ari_base>
    30002824:	394050e6 	ldrb	w6, [x7, #20]
    30002828:	394030e4 	ldrb	w4, [x7, #12]
    3000282c:	a8c17bfd 	ldp	x29, x30, [sp], #16
    30002830:	294008e1 	ldp	w1, w2, [x7]
    30002834:	b94008e3 	ldr	w3, [x7, #8]
    30002838:	b94010e5 	ldr	w5, [x7, #16]
    3000283c:	d61f0100 	br	x8

0000000030002840 <mce_verify_firmware_version>:
    30002840:	a9bf7bfd 	stp	x29, x30, [sp, #-16]!
    30002844:	910003fd 	mov	x29, sp
    30002848:	97fff885 	bl	30000a5c <tegra_platform_is_linsim>
    3000284c:	72001c1f 	tst	w0, #0xff
    30002850:	540002c1 	b.ne	300028a8 <mce_verify_firmware_version+0x68>  // b.any
    30002854:	97fff891 	bl	30000a98 <tegra_platform_is_virt_dev_kit>
    30002858:	72001c1f 	tst	w0, #0xff
    3000285c:	54000261 	b.ne	300028a8 <mce_verify_firmware_version+0x68>  // b.any
    30002860:	97fffebf 	bl	3000235c <mce_get_curr_cpu_ops>
    30002864:	aa0003e2 	mov	x2, x0
    30002868:	97fffeb1 	bl	3000232c <mce_get_curr_cpu_ari_base>
    3000286c:	f9401443 	ldr	x3, [x2, #40]
    30002870:	52800021 	mov	w1, #0x1                   	// #1
    30002874:	52800002 	mov	w2, #0x0                   	// #0
    30002878:	d63f0060 	blr	x3
    3000287c:	d360fc01 	lsr	x1, x0, #32
    30002880:	71000c1f 	cmp	w0, #0x3
    30002884:	540000a0 	b.eq	30002898 <mce_verify_firmware_version+0x58>  // b.none
    30002888:	90000060 	adrp	x0, 3000e000 <__TEXT_END__>
    3000288c:	9131c800 	add	x0, x0, #0xc72
    30002890:	940012a5 	bl	30007324 <tf_printf>
    30002894:	94002458 	bl	3000b9f4 <do_panic>
    30002898:	b5000081 	cbnz	x1, 300028a8 <mce_verify_firmware_version+0x68>
    3000289c:	90000060 	adrp	x0, 3000e000 <__TEXT_END__>
    300028a0:	91325c00 	add	x0, x0, #0xc97
    300028a4:	17fffffb 	b	30002890 <mce_verify_firmware_version+0x50>
    300028a8:	a8c17bfd 	ldp	x29, x30, [sp], #16
    300028ac:	d65f03c0 	ret

00000000300028b0 <ari_clobber_response>:
    300028b0:	2a0003e0 	mov	w0, w0
    300028b4:	b900141f 	str	wzr, [x0, #20]
    300028b8:	b900181f 	str	wzr, [x0, #24]
    300028bc:	d65f03c0 	ret

00000000300028c0 <ari_request_wait.constprop.1>:
    300028c0:	a9bd7bfd 	stp	x29, x30, [sp, #-48]!
    300028c4:	7101683f 	cmp	w1, #0x5a
    300028c8:	7a410842 	ccmp	w2, #0x1, #0x2, eq  // eq = none
    300028cc:	910003fd 	mov	x29, sp
    300028d0:	a90153f3 	stp	x19, x20, [sp, #16]
    300028d4:	2a0003f4 	mov	w20, w0
    300028d8:	f90013f5 	str	x21, [sp, #32]
    300028dc:	32180020 	orr	w0, w1, #0x100
    300028e0:	b9000e82 	str	w2, [x20, #12]
    300028e4:	b9001283 	str	w3, [x20, #16]
    300028e8:	b900069f 	str	wzr, [x20, #4]
    300028ec:	b9000280 	str	w0, [x20]
    300028f0:	540002e9 	b.ls	3000294c <ari_request_wait.constprop.1+0x8c>  // b.plast
    300028f4:	52909015 	mov	w21, #0x8480                	// #33920
    300028f8:	2a0103f3 	mov	w19, w1
    300028fc:	72a003d5 	movk	w21, #0x1e, lsl #16
    30002900:	b9400a80 	ldr	w0, [x20, #8]
    30002904:	f240041f 	tst	x0, #0x3
    30002908:	54000220 	b.eq	3000294c <ari_request_wait.constprop.1+0x8c>  // b.none
    3000290c:	52800020 	mov	w0, #0x1                   	// #1
    30002910:	97fff615 	bl	30000164 <udelay>
    30002914:	710006b5 	subs	w21, w21, #0x1
    30002918:	54ffff41 	b.ne	30002900 <ari_request_wait.constprop.1+0x40>  // b.any
    3000291c:	940017f1 	bl	300088e0 <plat_my_core_pos>
    30002920:	2a0003e2 	mov	w2, w0
    30002924:	2a1303e1 	mov	w1, w19
    30002928:	90000060 	adrp	x0, 3000e000 <__TEXT_END__>
    3000292c:	91376000 	add	x0, x0, #0xdd8
    30002930:	9400127d 	bl	30007324 <tf_printf>
    30002934:	90000062 	adrp	x2, 3000e000 <__TEXT_END__>
    30002938:	90000060 	adrp	x0, 3000e000 <__TEXT_END__>
    3000293c:	91382842 	add	x2, x2, #0xe0a
    30002940:	52800fe1 	mov	w1, #0x7f                  	// #127
    30002944:	91386000 	add	x0, x0, #0xe18
    30002948:	94001341 	bl	3000764c <__assert>
    3000294c:	52800000 	mov	w0, #0x0                   	// #0
    30002950:	f94013f5 	ldr	x21, [sp, #32]
    30002954:	a94153f3 	ldp	x19, x20, [sp, #16]
    30002958:	a8c37bfd 	ldp	x29, x30, [sp], #48
    3000295c:	d65f03c0 	ret

0000000030002960 <ari_enter_cstate>:
    30002960:	a9bf7bfd 	stp	x29, x30, [sp, #-16]!
    30002964:	51001824 	sub	w4, w1, #0x6
    30002968:	7100049f 	cmp	w4, #0x1
    3000296c:	910003fd 	mov	x29, sp
    30002970:	7a418820 	ccmp	w1, #0x1, #0x0, hi  // hi = pmore
    30002974:	54000149 	b.ls	3000299c <ari_enter_cstate+0x3c>  // b.plast
    30002978:	2a0103e2 	mov	w2, w1
    3000297c:	90000060 	adrp	x0, 3000e000 <__TEXT_END__>
    30002980:	90000061 	adrp	x1, 3000e000 <__TEXT_END__>
    30002984:	91344c00 	add	x0, x0, #0xd13
    30002988:	9132f021 	add	x1, x1, #0xcbc
    3000298c:	94001266 	bl	30007324 <tf_printf>
    30002990:	528002c0 	mov	w0, #0x16                  	// #22
    30002994:	a8c17bfd 	ldp	x29, x30, [sp], #16
    30002998:	d65f03c0 	ret
    3000299c:	2a0003e3 	mov	w3, w0
    300029a0:	97ffffc4 	bl	300028b0 <ari_clobber_response>
    300029a4:	2a0303e0 	mov	w0, w3
    300029a8:	b9000c01 	str	w1, [x0, #12]
    300029ac:	52801001 	mov	w1, #0x80                  	// #128
    300029b0:	b9001002 	str	w2, [x0, #16]
    300029b4:	b9000401 	str	w1, [x0, #4]
    300029b8:	52802a01 	mov	w1, #0x150                 	// #336
    300029bc:	b9000001 	str	w1, [x0]
    300029c0:	52800000 	mov	w0, #0x0                   	// #0
    300029c4:	17fffff4 	b	30002994 <ari_enter_cstate+0x34>

00000000300029c8 <ari_update_cstate_info>:
    300029c8:	2a0003e7 	mov	w7, w0
    300029cc:	12001c84 	and	w4, w4, #0xff
    300029d0:	12001cc6 	and	w6, w6, #0xff
    300029d4:	a9bf7bfd 	stp	x29, x30, [sp, #-16]!
    300029d8:	910003fd 	mov	x29, sp
    300029dc:	97ffffb5 	bl	300028b0 <ari_clobber_response>
    300029e0:	92400820 	and	x0, x1, #0x7
    300029e4:	b2790000 	orr	x0, x0, #0x80
    300029e8:	7100003f 	cmp	w1, #0x0
    300029ec:	9a9f1000 	csel	x0, x0, xzr, ne  // ne = any
    300029f0:	34000082 	cbz	w2, 30002a00 <ari_update_cstate_info+0x38>
    300029f4:	d3780442 	ubfiz	x2, x2, #8, #2
    300029f8:	b2710042 	orr	x2, x2, #0x8000
    300029fc:	aa020000 	orr	x0, x0, x2
    30002a00:	340000c3 	cbz	w3, 30002a18 <ari_update_cstate_info+0x50>
    30002a04:	d3700c62 	ubfiz	x2, x3, #16, #4
    30002a08:	d36a1c84 	ubfiz	x4, x4, #22, #8
    30002a0c:	aa000040 	orr	x0, x2, x0
    30002a10:	b2690084 	orr	x4, x4, #0x800000
    30002a14:	aa000080 	orr	x0, x4, x0
    30002a18:	34000046 	cbz	w6, 30002a20 <ari_update_cstate_info+0x58>
    30002a1c:	b2610000 	orr	x0, x0, #0x80000000
    30002a20:	a8c17bfd 	ldp	x29, x30, [sp], #16
    30002a24:	2a0003e2 	mov	w2, w0
    30002a28:	2a0503e3 	mov	w3, w5
    30002a2c:	52800a21 	mov	w1, #0x51                  	// #81
    30002a30:	2a0703e0 	mov	w0, w7
    30002a34:	17ffffa3 	b	300028c0 <ari_request_wait.constprop.1>

0000000030002a38 <ari_update_crossover_time>:
    30002a38:	51000423 	sub	w3, w1, #0x1
    30002a3c:	71001c7f 	cmp	w3, #0x7
    30002a40:	54000168 	b.hi	30002a6c <ari_update_crossover_time+0x34>  // b.pmore
    30002a44:	2a0003e4 	mov	w4, w0
    30002a48:	2a0203e3 	mov	w3, w2
    30002a4c:	2a0103e2 	mov	w2, w1
    30002a50:	a9bf7bfd 	stp	x29, x30, [sp, #-16]!
    30002a54:	910003fd 	mov	x29, sp
    30002a58:	97ffff96 	bl	300028b0 <ari_clobber_response>
    30002a5c:	2a0403e0 	mov	w0, w4
    30002a60:	a8c17bfd 	ldp	x29, x30, [sp], #16
    30002a64:	52800b81 	mov	w1, #0x5c                  	// #92
    30002a68:	17ffff96 	b	300028c0 <ari_request_wait.constprop.1>
    30002a6c:	528002c0 	mov	w0, #0x16                  	// #22
    30002a70:	d65f03c0 	ret

0000000030002a74 <ari_read_cstate_stats>:
    30002a74:	350000e1 	cbnz	w1, 30002a90 <ari_read_cstate_stats+0x1c>
    30002a78:	d28002c0 	mov	x0, #0x16                  	// #22
    30002a7c:	d65f03c0 	ret
    30002a80:	d28002c0 	mov	x0, #0x16                  	// #22
    30002a84:	f9400bf3 	ldr	x19, [sp, #16]
    30002a88:	a8c27bfd 	ldp	x29, x30, [sp], #32
    30002a8c:	d65f03c0 	ret
    30002a90:	a9be7bfd 	stp	x29, x30, [sp, #-32]!
    30002a94:	2a0103e2 	mov	w2, w1
    30002a98:	910003fd 	mov	x29, sp
    30002a9c:	f9000bf3 	str	x19, [sp, #16]
    30002aa0:	2a0003f3 	mov	w19, w0
    30002aa4:	97ffff83 	bl	300028b0 <ari_clobber_response>
    30002aa8:	52800003 	mov	w3, #0x0                   	// #0
    30002aac:	52800ba1 	mov	w1, #0x5d                  	// #93
    30002ab0:	2a1303e0 	mov	w0, w19
    30002ab4:	97ffff83 	bl	300028c0 <ari_request_wait.constprop.1>
    30002ab8:	35fffe40 	cbnz	w0, 30002a80 <ari_read_cstate_stats+0xc>
    30002abc:	b9401660 	ldr	w0, [x19, #20]
    30002ac0:	2a0003e0 	mov	w0, w0
    30002ac4:	17fffff0 	b	30002a84 <ari_read_cstate_stats+0x10>

0000000030002ac8 <ari_write_cstate_stats>:
    30002ac8:	2a0003e4 	mov	w4, w0
    30002acc:	a9bf7bfd 	stp	x29, x30, [sp, #-16]!
    30002ad0:	910003fd 	mov	x29, sp
    30002ad4:	97ffff77 	bl	300028b0 <ari_clobber_response>
    30002ad8:	2a0203e3 	mov	w3, w2
    30002adc:	a8c17bfd 	ldp	x29, x30, [sp], #16
    30002ae0:	2a0103e2 	mov	w2, w1
    30002ae4:	2a0403e0 	mov	w0, w4
    30002ae8:	52800bc1 	mov	w1, #0x5e                  	// #94
    30002aec:	17ffff75 	b	300028c0 <ari_request_wait.constprop.1>

0000000030002af0 <ari_enumeration_misc>:
    30002af0:	a9be7bfd 	stp	x29, x30, [sp, #-32]!
    30002af4:	910003fd 	mov	x29, sp
    30002af8:	f9000bf3 	str	x19, [sp, #16]
    30002afc:	2a0003f3 	mov	w19, w0
    30002b00:	97ffff6c 	bl	300028b0 <ari_clobber_response>
    30002b04:	7100003f 	cmp	w1, #0x0
    30002b08:	1a9f0043 	csel	w3, w2, wzr, eq  // eq = none
    30002b0c:	2a1303e0 	mov	w0, w19
    30002b10:	2a0103e2 	mov	w2, w1
    30002b14:	52800001 	mov	w1, #0x0                   	// #0
    30002b18:	97ffff6a 	bl	300028c0 <ari_request_wait.constprop.1>
    30002b1c:	340000a0 	cbz	w0, 30002b30 <ari_enumeration_misc+0x40>
    30002b20:	93407c00 	sxtw	x0, w0
    30002b24:	f9400bf3 	ldr	x19, [sp, #16]
    30002b28:	a8c27bfd 	ldp	x29, x30, [sp], #32
    30002b2c:	d65f03c0 	ret
    30002b30:	b9401660 	ldr	w0, [x19, #20]
    30002b34:	2a0003e1 	mov	w1, w0
    30002b38:	b9401a60 	ldr	w0, [x19, #24]
    30002b3c:	aa008020 	orr	x0, x1, x0, lsl #32
    30002b40:	17fffff9 	b	30002b24 <ari_enumeration_misc+0x34>

0000000030002b44 <ari_is_ccx_allowed>:
    30002b44:	a9be7bfd 	stp	x29, x30, [sp, #-32]!
    30002b48:	910003fd 	mov	x29, sp
    30002b4c:	f9000bf3 	str	x19, [sp, #16]
    30002b50:	2a0003f3 	mov	w19, w0
    30002b54:	97ffff57 	bl	300028b0 <ari_clobber_response>
    30002b58:	2a0203e3 	mov	w3, w2
    30002b5c:	2a1303e0 	mov	w0, w19
    30002b60:	12000822 	and	w2, w1, #0x7
    30002b64:	52800541 	mov	w1, #0x2a                  	// #42
    30002b68:	97ffff56 	bl	300028c0 <ari_request_wait.constprop.1>
    30002b6c:	34000160 	cbz	w0, 30002b98 <ari_is_ccx_allowed+0x54>
    30002b70:	2a0003e2 	mov	w2, w0
    30002b74:	90000061 	adrp	x1, 3000e000 <__TEXT_END__>
    30002b78:	90000060 	adrp	x0, 3000e000 <__TEXT_END__>
    30002b7c:	91333421 	add	x1, x1, #0xccd
    30002b80:	9134d400 	add	x0, x0, #0xd35
    30002b84:	940011e8 	bl	30007324 <tf_printf>
    30002b88:	52800000 	mov	w0, #0x0                   	// #0
    30002b8c:	f9400bf3 	ldr	x19, [sp, #16]
    30002b90:	a8c27bfd 	ldp	x29, x30, [sp], #32
    30002b94:	d65f03c0 	ret
    30002b98:	b9401660 	ldr	w0, [x19, #20]
    30002b9c:	12000000 	and	w0, w0, #0x1
    30002ba0:	17fffffb 	b	30002b8c <ari_is_ccx_allowed+0x48>

0000000030002ba4 <ari_is_sc7_allowed>:
    30002ba4:	a9be7bfd 	stp	x29, x30, [sp, #-32]!
    30002ba8:	51001823 	sub	w3, w1, #0x6
    30002bac:	7100047f 	cmp	w3, #0x1
    30002bb0:	910003fd 	mov	x29, sp
    30002bb4:	f9000bf3 	str	x19, [sp, #16]
    30002bb8:	7a418820 	ccmp	w1, #0x1, #0x0, hi  // hi = pmore
    30002bbc:	54000169 	b.ls	30002be8 <ari_is_sc7_allowed+0x44>  // b.plast
    30002bc0:	2a0103e2 	mov	w2, w1
    30002bc4:	90000060 	adrp	x0, 3000e000 <__TEXT_END__>
    30002bc8:	90000061 	adrp	x1, 3000e000 <__TEXT_END__>
    30002bcc:	91344c00 	add	x0, x0, #0xd13
    30002bd0:	91338021 	add	x1, x1, #0xce0
    30002bd4:	940011d4 	bl	30007324 <tf_printf>
    30002bd8:	528002c0 	mov	w0, #0x16                  	// #22
    30002bdc:	f9400bf3 	ldr	x19, [sp, #16]
    30002be0:	a8c27bfd 	ldp	x29, x30, [sp], #32
    30002be4:	d65f03c0 	ret
    30002be8:	2a0003f3 	mov	w19, w0
    30002bec:	97ffff31 	bl	300028b0 <ari_clobber_response>
    30002bf0:	2a1303e0 	mov	w0, w19
    30002bf4:	2a0203e3 	mov	w3, w2
    30002bf8:	2a0103e2 	mov	w2, w1
    30002bfc:	52800a41 	mov	w1, #0x52                  	// #82
    30002c00:	97ffff30 	bl	300028c0 <ari_request_wait.constprop.1>
    30002c04:	34000120 	cbz	w0, 30002c28 <ari_is_sc7_allowed+0x84>
    30002c08:	2a0003e2 	mov	w2, w0
    30002c0c:	90000061 	adrp	x1, 3000e000 <__TEXT_END__>
    30002c10:	90000060 	adrp	x0, 3000e000 <__TEXT_END__>
    30002c14:	91338021 	add	x1, x1, #0xce0
    30002c18:	9134d400 	add	x0, x0, #0xd35
    30002c1c:	940011c2 	bl	30007324 <tf_printf>
    30002c20:	52800000 	mov	w0, #0x0                   	// #0
    30002c24:	17ffffee 	b	30002bdc <ari_is_sc7_allowed+0x38>
    30002c28:	b9401660 	ldr	w0, [x19, #20]
    30002c2c:	7100001f 	cmp	w0, #0x0
    30002c30:	1a9f07e0 	cset	w0, ne  // ne = any
    30002c34:	17ffffea 	b	30002bdc <ari_is_sc7_allowed+0x38>

0000000030002c38 <ari_online_core>:
    30002c38:	a9bf7bfd 	stp	x29, x30, [sp, #-16]!
    30002c3c:	2a0003e4 	mov	w4, w0
    30002c40:	2a0103e2 	mov	w2, w1
    30002c44:	910003fd 	mov	x29, sp
    30002c48:	d53800a0 	mrs	x0, mpidr_el1
    30002c4c:	92401c03 	and	x3, x0, #0xff
    30002c50:	d53800a0 	mrs	x0, mpidr_el1
    30002c54:	d5380001 	mrs	x1, midr_el1
    30002c58:	d348fc00 	lsr	x0, x0, #8
    30002c5c:	71001c5f 	cmp	w2, #0x7
    30002c60:	d37e1c00 	ubfiz	x0, x0, #2, #8
    30002c64:	aa030000 	orr	x0, x0, x3
    30002c68:	54000068 	b.hi	30002c74 <ari_online_core+0x3c>  // b.pmore
    30002c6c:	eb22401f 	cmp	x0, w2, uxtw
    30002c70:	54000121 	b.ne	30002c94 <ari_online_core+0x5c>  // b.any
    30002c74:	90000061 	adrp	x1, 3000e000 <__TEXT_END__>
    30002c78:	90000060 	adrp	x0, 3000e000 <__TEXT_END__>
    30002c7c:	9133cc21 	add	x1, x1, #0xcf3
    30002c80:	9135c400 	add	x0, x0, #0xd71
    30002c84:	940011a8 	bl	30007324 <tf_printf>
    30002c88:	528002c0 	mov	w0, #0x16                  	// #22
    30002c8c:	a8c17bfd 	ldp	x29, x30, [sp], #16
    30002c90:	d65f03c0 	ret
    30002c94:	53187c20 	lsr	w0, w1, #24
    30002c98:	f101381f 	cmp	x0, #0x4e
    30002c9c:	54000121 	b.ne	30002cc0 <ari_online_core+0x88>  // b.any
    30002ca0:	51000840 	sub	w0, w2, #0x2
    30002ca4:	7100041f 	cmp	w0, #0x1
    30002ca8:	540000c8 	b.hi	30002cc0 <ari_online_core+0x88>  // b.pmore
    30002cac:	90000061 	adrp	x1, 3000e000 <__TEXT_END__>
    30002cb0:	90000060 	adrp	x0, 3000e000 <__TEXT_END__>
    30002cb4:	9133cc21 	add	x1, x1, #0xcf3
    30002cb8:	91366000 	add	x0, x0, #0xd98
    30002cbc:	17fffff2 	b	30002c84 <ari_online_core+0x4c>
    30002cc0:	2a0403e0 	mov	w0, w4
    30002cc4:	97fffefb 	bl	300028b0 <ari_clobber_response>
    30002cc8:	a8c17bfd 	ldp	x29, x30, [sp], #16
    30002ccc:	52800003 	mov	w3, #0x0                   	// #0
    30002cd0:	52800081 	mov	w1, #0x4                   	// #4
    30002cd4:	2a0403e0 	mov	w0, w4
    30002cd8:	17fffefa 	b	300028c0 <ari_request_wait.constprop.1>

0000000030002cdc <ari_cc3_ctrl>:
    30002cdc:	2a0003e4 	mov	w4, w0
    30002ce0:	12001c63 	and	w3, w3, #0xff
    30002ce4:	a9bf7bfd 	stp	x29, x30, [sp, #-16]!
    30002ce8:	910003fd 	mov	x29, sp
    30002cec:	97fffef1 	bl	300028b0 <ari_clobber_response>
    30002cf0:	7100007f 	cmp	w3, #0x0
    30002cf4:	a8c17bfd 	ldp	x29, x30, [sp], #16
    30002cf8:	12002021 	and	w1, w1, #0x1ff
    30002cfc:	53101842 	ubfiz	w2, w2, #16, #7
    30002d00:	52b00000 	mov	w0, #0x80000000            	// #-2147483648
    30002d04:	2a010042 	orr	w2, w2, w1
    30002d08:	1a9f1000 	csel	w0, w0, wzr, ne  // ne = any
    30002d0c:	2a000042 	orr	w2, w2, w0
    30002d10:	52800003 	mov	w3, #0x0                   	// #0
    30002d14:	52800561 	mov	w1, #0x2b                  	// #43
    30002d18:	2a0403e0 	mov	w0, w4
    30002d1c:	17fffee9 	b	300028c0 <ari_request_wait.constprop.1>

0000000030002d20 <ari_reset_vector_update>:
    30002d20:	2a0003e4 	mov	w4, w0
    30002d24:	a9bf7bfd 	stp	x29, x30, [sp, #-16]!
    30002d28:	910003fd 	mov	x29, sp
    30002d2c:	97fffee1 	bl	300028b0 <ari_clobber_response>
    30002d30:	2a0403e0 	mov	w0, w4
    30002d34:	52800003 	mov	w3, #0x0                   	// #0
    30002d38:	52800002 	mov	w2, #0x0                   	// #0
    30002d3c:	52800be1 	mov	w1, #0x5f                  	// #95
    30002d40:	97fffee0 	bl	300028c0 <ari_request_wait.constprop.1>
    30002d44:	52800000 	mov	w0, #0x0                   	// #0
    30002d48:	a8c17bfd 	ldp	x29, x30, [sp], #16
    30002d4c:	d65f03c0 	ret

0000000030002d50 <ari_roc_flush_cache_trbits>:
    30002d50:	2a0003e4 	mov	w4, w0
    30002d54:	a9bf7bfd 	stp	x29, x30, [sp, #-16]!
    30002d58:	910003fd 	mov	x29, sp
    30002d5c:	97fffed5 	bl	300028b0 <ari_clobber_response>
    30002d60:	2a0403e0 	mov	w0, w4
    30002d64:	a8c17bfd 	ldp	x29, x30, [sp], #16
    30002d68:	52800003 	mov	w3, #0x0                   	// #0
    30002d6c:	52800002 	mov	w2, #0x0                   	// #0
    30002d70:	52800b21 	mov	w1, #0x59                  	// #89
    30002d74:	17fffed3 	b	300028c0 <ari_request_wait.constprop.1>

0000000030002d78 <ari_roc_flush_cache>:
    30002d78:	2a0003e4 	mov	w4, w0
    30002d7c:	a9bf7bfd 	stp	x29, x30, [sp, #-16]!
    30002d80:	910003fd 	mov	x29, sp
    30002d84:	97fffecb 	bl	300028b0 <ari_clobber_response>
    30002d88:	2a0403e0 	mov	w0, w4
    30002d8c:	a8c17bfd 	ldp	x29, x30, [sp], #16
    30002d90:	52800003 	mov	w3, #0x0                   	// #0
    30002d94:	52800002 	mov	w2, #0x0                   	// #0
    30002d98:	52800b01 	mov	w1, #0x58                  	// #88
    30002d9c:	17fffec9 	b	300028c0 <ari_request_wait.constprop.1>

0000000030002da0 <ari_roc_clean_cache>:
    30002da0:	2a0003e4 	mov	w4, w0
    30002da4:	a9bf7bfd 	stp	x29, x30, [sp, #-16]!
    30002da8:	910003fd 	mov	x29, sp
    30002dac:	97fffec1 	bl	300028b0 <ari_clobber_response>
    30002db0:	2a0403e0 	mov	w0, w4
    30002db4:	a8c17bfd 	ldp	x29, x30, [sp], #16
    30002db8:	52800003 	mov	w3, #0x0                   	// #0
    30002dbc:	52800002 	mov	w2, #0x0                   	// #0
    30002dc0:	52800c01 	mov	w1, #0x60                  	// #96
    30002dc4:	17fffebf 	b	300028c0 <ari_request_wait.constprop.1>

0000000030002dc8 <ari_read_write_mca>:
    30002dc8:	a9be7bfd 	stp	x29, x30, [sp, #-32]!
    30002dcc:	910003fd 	mov	x29, sp
    30002dd0:	a90153f3 	stp	x19, x20, [sp, #16]
    30002dd4:	aa0203f4 	mov	x20, x2
    30002dd8:	b4000242 	cbz	x2, 30002e20 <ari_read_write_mca+0x58>
    30002ddc:	f9400042 	ldr	x2, [x2]
    30002de0:	2a0003f3 	mov	w19, w0
    30002de4:	d360fc43 	lsr	x3, x2, #32
    30002de8:	b9001661 	str	w1, [x19, #20]
    30002dec:	d360fc21 	lsr	x1, x1, #32
    30002df0:	b9001a61 	str	w1, [x19, #24]
    30002df4:	52800b61 	mov	w1, #0x5b                  	// #91
    30002df8:	97fffeb2 	bl	300028c0 <ari_request_wait.constprop.1>
    30002dfc:	35000220 	cbnz	w0, 30002e40 <ari_read_write_mca+0x78>
    30002e00:	b9401660 	ldr	w0, [x19, #20]
    30002e04:	b9401a61 	ldr	w1, [x19, #24]
    30002e08:	6b4163ff 	negs	wzr, w1, lsr #24
    30002e0c:	540000e1 	b.ne	30002e28 <ari_read_write_mca+0x60>  // b.any
    30002e10:	92401c00 	and	x0, x0, #0xff
    30002e14:	a94153f3 	ldp	x19, x20, [sp, #16]
    30002e18:	a8c27bfd 	ldp	x29, x30, [sp], #32
    30002e1c:	d65f03c0 	ret
    30002e20:	d2800002 	mov	x2, #0x0                   	// #0
    30002e24:	17ffffef 	b	30002de0 <ari_read_write_mca+0x18>
    30002e28:	b40000d4 	cbz	x20, 30002e40 <ari_read_write_mca+0x78>
    30002e2c:	b9400e61 	ldr	w1, [x19, #12]
    30002e30:	b9401260 	ldr	w0, [x19, #16]
    30002e34:	2a0103e1 	mov	w1, w1
    30002e38:	aa008020 	orr	x0, x1, x0, lsl #32
    30002e3c:	f9000280 	str	x0, [x20]
    30002e40:	d2800000 	mov	x0, #0x0                   	// #0
    30002e44:	17fffff4 	b	30002e14 <ari_read_write_mca+0x4c>

0000000030002e48 <ari_update_ccplex_gsc>:
    30002e48:	71008c3f 	cmp	w1, #0x23
    30002e4c:	540001a8 	b.hi	30002e80 <ari_update_ccplex_gsc+0x38>  // b.pmore
    30002e50:	2a0003e4 	mov	w4, w0
    30002e54:	2a0103e2 	mov	w2, w1
    30002e58:	a9bf7bfd 	stp	x29, x30, [sp, #-16]!
    30002e5c:	910003fd 	mov	x29, sp
    30002e60:	97fffe94 	bl	300028b0 <ari_clobber_response>
    30002e64:	2a0403e0 	mov	w0, w4
    30002e68:	52800003 	mov	w3, #0x0                   	// #0
    30002e6c:	52800aa1 	mov	w1, #0x55                  	// #85
    30002e70:	97fffe94 	bl	300028c0 <ari_request_wait.constprop.1>
    30002e74:	52800000 	mov	w0, #0x0                   	// #0
    30002e78:	a8c17bfd 	ldp	x29, x30, [sp], #16
    30002e7c:	d65f03c0 	ret
    30002e80:	528002c0 	mov	w0, #0x16                  	// #22
    30002e84:	d65f03c0 	ret

0000000030002e88 <ari_enter_ccplex_state>:
    30002e88:	2a0003e4 	mov	w4, w0
    30002e8c:	a9bf7bfd 	stp	x29, x30, [sp, #-16]!
    30002e90:	910003fd 	mov	x29, sp
    30002e94:	97fffe87 	bl	300028b0 <ari_clobber_response>
    30002e98:	2a0103e2 	mov	w2, w1
    30002e9c:	a8c17bfd 	ldp	x29, x30, [sp], #16
    30002ea0:	52800003 	mov	w3, #0x0                   	// #0
    30002ea4:	52800b41 	mov	w1, #0x5a                  	// #90
    30002ea8:	2a0403e0 	mov	w0, w4
    30002eac:	17fffe85 	b	300028c0 <ari_request_wait.constprop.1>

0000000030002eb0 <ari_read_write_uncore_perfmon>:
    30002eb0:	a9bd7bfd 	stp	x29, x30, [sp, #-48]!
    30002eb4:	910003fd 	mov	x29, sp
    30002eb8:	a90153f3 	stp	x19, x20, [sp, #16]
    30002ebc:	12001c33 	and	w19, w1, #0xff
    30002ec0:	2a0003f4 	mov	w20, w0
    30002ec4:	f90013f5 	str	x21, [sp, #32]
    30002ec8:	97fffe7a 	bl	300028b0 <ari_clobber_response>
    30002ecc:	7100027f 	cmp	w19, #0x0
    30002ed0:	fa400840 	ccmp	x2, #0x0, #0x0, eq  // eq = none
    30002ed4:	54000121 	b.ne	30002ef8 <ari_read_write_uncore_perfmon+0x48>  // b.any
    30002ed8:	90000060 	adrp	x0, 3000e000 <__TEXT_END__>
    30002edc:	9136ec00 	add	x0, x0, #0xdbb
    30002ee0:	94001111 	bl	30007324 <tf_printf>
    30002ee4:	528002c0 	mov	w0, #0x16                  	// #22
    30002ee8:	a94153f3 	ldp	x19, x20, [sp, #16]
    30002eec:	f94013f5 	ldr	x21, [sp, #32]
    30002ef0:	a8c37bfd 	ldp	x29, x30, [sp], #48
    30002ef4:	d65f03c0 	ret
    30002ef8:	aa0203f5 	mov	x21, x2
    30002efc:	7100067f 	cmp	w19, #0x1
    30002f00:	54000201 	b.ne	30002f40 <ari_read_write_uncore_perfmon+0x90>  // b.any
    30002f04:	b9400042 	ldr	w2, [x2]
    30002f08:	2a0103e3 	mov	w3, w1
    30002f0c:	2a1403e0 	mov	w0, w20
    30002f10:	52800a81 	mov	w1, #0x54                  	// #84
    30002f14:	97fffe6b 	bl	300028c0 <ari_request_wait.constprop.1>
    30002f18:	35fffe80 	cbnz	w0, 30002ee8 <ari_read_write_uncore_perfmon+0x38>
    30002f1c:	b9401a80 	ldr	w0, [x20, #24]
    30002f20:	2a000273 	orr	w19, w19, w0
    30002f24:	12001e73 	and	w19, w19, #0xff
    30002f28:	35000093 	cbnz	w19, 30002f38 <ari_read_write_uncore_perfmon+0x88>
    30002f2c:	b9401681 	ldr	w1, [x20, #20]
    30002f30:	2a0103e1 	mov	w1, w1
    30002f34:	f90002a1 	str	x1, [x21]
    30002f38:	12001c00 	and	w0, w0, #0xff
    30002f3c:	17ffffeb 	b	30002ee8 <ari_read_write_uncore_perfmon+0x38>
    30002f40:	52800002 	mov	w2, #0x0                   	// #0
    30002f44:	17fffff1 	b	30002f08 <ari_read_write_uncore_perfmon+0x58>

0000000030002f48 <ari_misc_ccplex>:
    30002f48:	71000c3f 	cmp	w1, #0x3
    30002f4c:	54000088 	b.hi	30002f5c <ari_misc_ccplex+0x14>  // b.pmore
    30002f50:	7100083f 	cmp	w1, #0x2
    30002f54:	7a410840 	ccmp	w2, #0x1, #0x0, eq  // eq = none
    30002f58:	540000c9 	b.ls	30002f70 <ari_misc_ccplex+0x28>  // b.plast
    30002f5c:	90000061 	adrp	x1, 3000e000 <__TEXT_END__>
    30002f60:	90000060 	adrp	x0, 3000e000 <__TEXT_END__>
    30002f64:	91340c21 	add	x1, x1, #0xd03
    30002f68:	91353c00 	add	x0, x0, #0xd4f
    30002f6c:	140010ee 	b	30007324 <tf_printf>
    30002f70:	2a0003e4 	mov	w4, w0
    30002f74:	2a0203e3 	mov	w3, w2
    30002f78:	2a0103e2 	mov	w2, w1
    30002f7c:	a9bf7bfd 	stp	x29, x30, [sp, #-16]!
    30002f80:	910003fd 	mov	x29, sp
    30002f84:	97fffe4b 	bl	300028b0 <ari_clobber_response>
    30002f88:	2a0403e0 	mov	w0, w4
    30002f8c:	a8c17bfd 	ldp	x29, x30, [sp], #16
    30002f90:	52800b41 	mov	w1, #0x5a                  	// #90
    30002f94:	17fffe4b 	b	300028c0 <ari_request_wait.constprop.1>

0000000030002f98 <nvg_enter_cstate>:
    30002f98:	a9be7bfd 	stp	x29, x30, [sp, #-32]!
    30002f9c:	910003fd 	mov	x29, sp
    30002fa0:	f9000bf3 	str	x19, [sp, #16]
    30002fa4:	2a0103f3 	mov	w19, w1
    30002fa8:	51001a60 	sub	w0, w19, #0x6
    30002fac:	7100041f 	cmp	w0, #0x1
    30002fb0:	7a418a60 	ccmp	w19, #0x1, #0x0, hi  // hi = pmore
    30002fb4:	54000169 	b.ls	30002fe0 <nvg_enter_cstate+0x48>  // b.plast
    30002fb8:	2a1303e2 	mov	w2, w19
    30002fbc:	90000061 	adrp	x1, 3000e000 <__TEXT_END__>
    30002fc0:	90000060 	adrp	x0, 3000e000 <__TEXT_END__>
    30002fc4:	91391421 	add	x1, x1, #0xe45
    30002fc8:	91344c00 	add	x0, x0, #0xd13
    30002fcc:	940010d6 	bl	30007324 <tf_printf>
    30002fd0:	528002c0 	mov	w0, #0x16                  	// #22
    30002fd4:	f9400bf3 	ldr	x19, [sp, #16]
    30002fd8:	a8c27bfd 	ldp	x29, x30, [sp], #32
    30002fdc:	d65f03c0 	ret
    30002fe0:	2a0203e1 	mov	w1, w2
    30002fe4:	d2800060 	mov	x0, #0x3                   	// #3
    30002fe8:	940017c7 	bl	30008f04 <nvg_set_request_data>
    30002fec:	d5381020 	mrs	x0, actlr_el1
    30002ff0:	927cec00 	and	x0, x0, #0xfffffffffffffff0
    30002ff4:	aa130013 	orr	x19, x0, x19
    30002ff8:	d5181033 	msr	actlr_el1, x19
    30002ffc:	52800000 	mov	w0, #0x0                   	// #0
    30003000:	17fffff5 	b	30002fd4 <nvg_enter_cstate+0x3c>

0000000030003004 <nvg_update_cstate_info>:
    30003004:	a9bf7bfd 	stp	x29, x30, [sp, #-16]!
    30003008:	92400820 	and	x0, x1, #0x7
    3000300c:	b2790000 	orr	x0, x0, #0x80
    30003010:	7100003f 	cmp	w1, #0x0
    30003014:	910003fd 	mov	x29, sp
    30003018:	12001c84 	and	w4, w4, #0xff
    3000301c:	12001cc6 	and	w6, w6, #0xff
    30003020:	9a9f1000 	csel	x0, x0, xzr, ne  // ne = any
    30003024:	34000082 	cbz	w2, 30003034 <nvg_update_cstate_info+0x30>
    30003028:	d3780442 	ubfiz	x2, x2, #8, #2
    3000302c:	b2710042 	orr	x2, x2, #0x8000
    30003030:	aa020000 	orr	x0, x0, x2
    30003034:	340000c3 	cbz	w3, 3000304c <nvg_update_cstate_info+0x48>
    30003038:	d3700c63 	ubfiz	x3, x3, #16, #4
    3000303c:	d36a1c84 	ubfiz	x4, x4, #22, #8
    30003040:	aa000060 	orr	x0, x3, x0
    30003044:	b2690084 	orr	x4, x4, #0x800000
    30003048:	aa000080 	orr	x0, x4, x0
    3000304c:	34000046 	cbz	w6, 30003054 <nvg_update_cstate_info+0x50>
    30003050:	b2610000 	orr	x0, x0, #0x80000000
    30003054:	aa058001 	orr	x1, x0, x5, lsl #32
    30003058:	d2800080 	mov	x0, #0x4                   	// #4
    3000305c:	940017aa 	bl	30008f04 <nvg_set_request_data>
    30003060:	52800000 	mov	w0, #0x0                   	// #0
    30003064:	a8c17bfd 	ldp	x29, x30, [sp], #16
    30003068:	d65f03c0 	ret

000000003000306c <nvg_update_crossover_time>:
    3000306c:	7100203f 	cmp	w1, #0x8
    30003070:	54000148 	b.hi	30003098 <nvg_update_crossover_time+0x2c>  // b.pmore
    30003074:	a9bf7bfd 	stp	x29, x30, [sp, #-16]!
    30003078:	2a0103e0 	mov	w0, w1
    3000307c:	91001400 	add	x0, x0, #0x5
    30003080:	2a0203e1 	mov	w1, w2
    30003084:	910003fd 	mov	x29, sp
    30003088:	9400179f 	bl	30008f04 <nvg_set_request_data>
    3000308c:	52800000 	mov	w0, #0x0                   	// #0
    30003090:	a8c17bfd 	ldp	x29, x30, [sp], #16
    30003094:	d65f03c0 	ret
    30003098:	528002c0 	mov	w0, #0x16                  	// #22
    3000309c:	d65f03c0 	ret

00000000300030a0 <nvg_read_cstate_stats>:
    300030a0:	34000101 	cbz	w1, 300030c0 <nvg_read_cstate_stats+0x20>
    300030a4:	a9bf7bfd 	stp	x29, x30, [sp, #-16]!
    300030a8:	2a0103e0 	mov	w0, w1
    300030ac:	91003400 	add	x0, x0, #0xd
    300030b0:	910003fd 	mov	x29, sp
    300030b4:	94001797 	bl	30008f10 <nvg_set_request>
    300030b8:	a8c17bfd 	ldp	x29, x30, [sp], #16
    300030bc:	14001797 	b	30008f18 <nvg_get_result>
    300030c0:	d28002c0 	mov	x0, #0x16                  	// #22
    300030c4:	d65f03c0 	ret

00000000300030c8 <nvg_write_cstate_stats>:
    300030c8:	a9bf7bfd 	stp	x29, x30, [sp, #-16]!
    300030cc:	2a0103e0 	mov	w0, w1
    300030d0:	aa028001 	orr	x1, x0, x2, lsl #32
    300030d4:	91003400 	add	x0, x0, #0xd
    300030d8:	910003fd 	mov	x29, sp
    300030dc:	9400178a 	bl	30008f04 <nvg_set_request_data>
    300030e0:	52800000 	mov	w0, #0x0                   	// #0
    300030e4:	a8c17bfd 	ldp	x29, x30, [sp], #16
    300030e8:	d65f03c0 	ret

00000000300030ec <nvg_is_ccx_allowed>:
    300030ec:	52800000 	mov	w0, #0x0                   	// #0
    300030f0:	d65f03c0 	ret

00000000300030f4 <nvg_is_sc7_allowed>:
    300030f4:	a9bf7bfd 	stp	x29, x30, [sp, #-16]!
    300030f8:	51001820 	sub	w0, w1, #0x6
    300030fc:	7100041f 	cmp	w0, #0x1
    30003100:	910003fd 	mov	x29, sp
    30003104:	7a418820 	ccmp	w1, #0x1, #0x0, hi  // hi = pmore
    30003108:	54000149 	b.ls	30003130 <nvg_is_sc7_allowed+0x3c>  // b.plast
    3000310c:	2a0103e2 	mov	w2, w1
    30003110:	f0000040 	adrp	x0, 3000e000 <__TEXT_END__>
    30003114:	f0000041 	adrp	x1, 3000e000 <__TEXT_END__>
    30003118:	91344c00 	add	x0, x0, #0xd13
    3000311c:	91395821 	add	x1, x1, #0xe56
    30003120:	94001081 	bl	30007324 <tf_printf>
    30003124:	528002c0 	mov	w0, #0x16                  	// #22
    30003128:	a8c17bfd 	ldp	x29, x30, [sp], #16
    3000312c:	d65f03c0 	ret
    30003130:	92400821 	and	x1, x1, #0x7
    30003134:	d2800560 	mov	x0, #0x2b                  	// #43
    30003138:	aa028021 	orr	x1, x1, x2, lsl #32
    3000313c:	94001772 	bl	30008f04 <nvg_set_request_data>
    30003140:	94001776 	bl	30008f18 <nvg_get_result>
    30003144:	f100001f 	cmp	x0, #0x0
    30003148:	1a9f07e0 	cset	w0, ne  // ne = any
    3000314c:	17fffff7 	b	30003128 <nvg_is_sc7_allowed+0x34>

0000000030003150 <nvg_online_core>:
    30003150:	a9bf7bfd 	stp	x29, x30, [sp, #-16]!
    30003154:	2a0103e2 	mov	w2, w1
    30003158:	910003fd 	mov	x29, sp
    3000315c:	d53800a3 	mrs	x3, mpidr_el1
    30003160:	d5380000 	mrs	x0, midr_el1
    30003164:	71001c3f 	cmp	w1, #0x7
    30003168:	540000a8 	b.hi	3000317c <nvg_online_core+0x2c>  // b.pmore
    3000316c:	92401c63 	and	x3, x3, #0xff
    30003170:	2a0103e1 	mov	w1, w1
    30003174:	eb03003f 	cmp	x1, x3
    30003178:	54000121 	b.ne	3000319c <nvg_online_core+0x4c>  // b.any
    3000317c:	f0000041 	adrp	x1, 3000e000 <__TEXT_END__>
    30003180:	f0000040 	adrp	x0, 3000e000 <__TEXT_END__>
    30003184:	9139a421 	add	x1, x1, #0xe69
    30003188:	9135c400 	add	x0, x0, #0xd71
    3000318c:	94001066 	bl	30007324 <tf_printf>
    30003190:	528002c0 	mov	w0, #0x16                  	// #22
    30003194:	a8c17bfd 	ldp	x29, x30, [sp], #16
    30003198:	d65f03c0 	ret
    3000319c:	53187c00 	lsr	w0, w0, #24
    300031a0:	f101381f 	cmp	x0, #0x4e
    300031a4:	54000121 	b.ne	300031c8 <nvg_online_core+0x78>  // b.any
    300031a8:	51000840 	sub	w0, w2, #0x2
    300031ac:	7100041f 	cmp	w0, #0x1
    300031b0:	540000c8 	b.hi	300031c8 <nvg_online_core+0x78>  // b.pmore
    300031b4:	f0000041 	adrp	x1, 3000e000 <__TEXT_END__>
    300031b8:	f0000040 	adrp	x0, 3000e000 <__TEXT_END__>
    300031bc:	9139a421 	add	x1, x1, #0xe69
    300031c0:	91366000 	add	x0, x0, #0xd98
    300031c4:	17fffff2 	b	3000318c <nvg_online_core+0x3c>
    300031c8:	d2800580 	mov	x0, #0x2c                  	// #44
    300031cc:	9400174e 	bl	30008f04 <nvg_set_request_data>
    300031d0:	52800000 	mov	w0, #0x0                   	// #0
    300031d4:	17fffff0 	b	30003194 <nvg_online_core+0x44>

00000000300031d8 <nvg_cc3_ctrl>:
    300031d8:	12002021 	and	w1, w1, #0x1ff
    300031dc:	53101842 	ubfiz	w2, w2, #16, #7
    300031e0:	2a010042 	orr	w2, w2, w1
    300031e4:	72001c7f 	tst	w3, #0xff
    300031e8:	a9bf7bfd 	stp	x29, x30, [sp, #-16]!
    300031ec:	52b00001 	mov	w1, #0x80000000            	// #-2147483648
    300031f0:	1a9f1021 	csel	w1, w1, wzr, ne  // ne = any
    300031f4:	d28005a0 	mov	x0, #0x2d                  	// #45
    300031f8:	910003fd 	mov	x29, sp
    300031fc:	2a010041 	orr	w1, w2, w1
    30003200:	94001741 	bl	30008f04 <nvg_set_request_data>
    30003204:	52800000 	mov	w0, #0x0                   	// #0
    30003208:	a8c17bfd 	ldp	x29, x30, [sp], #16
    3000320c:	d65f03c0 	ret

0000000030003210 <tegra_se_save_sha256_hash>:
    30003210:	a9b97bfd 	stp	x29, x30, [sp, #-112]!
    30003214:	910003fd 	mov	x29, sp
    30003218:	a9046bf9 	stp	x25, x26, [sp, #64]
    3000321c:	aa0003fa 	mov	x26, x0
    30003220:	d2800300 	mov	x0, #0x18                  	// #24
    30003224:	a90153f3 	stp	x19, x20, [sp, #16]
    30003228:	f2a07580 	movk	x0, #0x3ac, lsl #16
    3000322c:	a9025bf5 	stp	x21, x22, [sp, #32]
    30003230:	a90363f7 	stp	x23, x24, [sp, #48]
    30003234:	b9400002 	ldr	w2, [x0]
    30003238:	b9006fa2 	str	w2, [x29, #108]
    3000323c:	a90573fb 	stp	x27, x28, [sp, #80]
    30003240:	2a0203e2 	mov	w2, w2
    30003244:	32100042 	orr	w2, w2, #0x10000
    30003248:	b9000002 	str	w2, [x0]
    3000324c:	12bfe000 	mov	w0, #0xffffff              	// #16777215
    30003250:	6b00003f 	cmp	w1, w0
    30003254:	54000229 	b.ls	30003298 <tegra_se_save_sha256_hash+0x88>  // b.plast
    30003258:	f0000040 	adrp	x0, 3000e000 <__TEXT_END__>
    3000325c:	913abc00 	add	x0, x0, #0xeaf
    30003260:	94001031 	bl	30007324 <tf_printf>
    30003264:	f0000041 	adrp	x1, 3000e000 <__TEXT_END__>
    30003268:	f0000040 	adrp	x0, 3000e000 <__TEXT_END__>
    3000326c:	913a5421 	add	x1, x1, #0xe95
    30003270:	913f3000 	add	x0, x0, #0xfcc
    30003274:	9400102c 	bl	30007324 <tf_printf>
    30003278:	128002a0 	mov	w0, #0xffffffea            	// #-22
    3000327c:	a94153f3 	ldp	x19, x20, [sp, #16]
    30003280:	a9425bf5 	ldp	x21, x22, [sp, #32]
    30003284:	a94363f7 	ldp	x23, x24, [sp, #48]
    30003288:	a9446bf9 	ldp	x25, x26, [sp, #64]
    3000328c:	a94573fb 	ldp	x27, x28, [sp, #80]
    30003290:	a8c77bfd 	ldp	x29, x30, [sp], #112
    30003294:	d65f03c0 	ret
    30003298:	b4fffe7a 	cbz	x26, 30003264 <tegra_se_save_sha256_hash+0x54>
    3000329c:	d2802080 	mov	x0, #0x104                 	// #260
    300032a0:	2a0103f6 	mov	w22, w1
    300032a4:	f2a07580 	movk	x0, #0x3ac, lsl #16
    300032a8:	531d7039 	lsl	w25, w1, #3
    300032ac:	d2802594 	mov	x20, #0x12c                 	// #300
    300032b0:	52860081 	mov	w1, #0x3004                	// #12292
    300032b4:	72a0a001 	movk	w1, #0x500, lsl #16
    300032b8:	f2a07594 	movk	x20, #0x3ac, lsl #16
    300032bc:	b9000001 	str	w1, [x0]
    300032c0:	d360ff55 	lsr	x21, x26, #32
    300032c4:	b9001819 	str	w25, [x0, #24]
    300032c8:	2a1603fc 	mov	w28, w22
    300032cc:	b9000299 	str	w25, [x20]
    300032d0:	53081eb5 	lsl	w21, w21, #24
    300032d4:	b9001c1f 	str	wzr, [x0, #28]
    300032d8:	52800037 	mov	w23, #0x1                   	// #1
    300032dc:	b900201f 	str	wzr, [x0, #32]
    300032e0:	b900241f 	str	wzr, [x0, #36]
    300032e4:	b9002c1f 	str	wzr, [x0, #44]
    300032e8:	b900301f 	str	wzr, [x0, #48]
    300032ec:	b900341f 	str	wzr, [x0, #52]
    300032f0:	32183fe0 	mov	w0, #0xffff00              	// #16776960
    300032f4:	1ac00ad8 	udiv	w24, w22, w0
    300032f8:	1b00db13 	msub	w19, w24, w0, w22
    300032fc:	7100027f 	cmp	w19, #0x0
    30003300:	1a980718 	cinc	w24, w24, ne  // ne = any
    30003304:	531d7273 	lsl	w19, w19, #3
    30003308:	6b1802ff 	cmp	w23, w24
    3000330c:	54000229 	b.ls	30003350 <tegra_se_save_sha256_hash+0x140>  // b.plast
    30003310:	d2800300 	mov	x0, #0x18                  	// #24
    30003314:	b9406fa1 	ldr	w1, [x29, #108]
    30003318:	f2a07580 	movk	x0, #0x3ac, lsl #16
    3000331c:	d280e182 	mov	x2, #0x70c                 	// #1804
    30003320:	f2a111a2 	movk	x2, #0x88d, lsl #16
    30003324:	b9000001 	str	w1, [x0]
    30003328:	d2802b81 	mov	x1, #0x15c                 	// #348
    3000332c:	91049000 	add	x0, x0, #0x124
    30003330:	f2a07581 	movk	x1, #0x3ac, lsl #16
    30003334:	b9400003 	ldr	w3, [x0]
    30003338:	b8226803 	str	w3, [x0, x2]
    3000333c:	91001000 	add	x0, x0, #0x4
    30003340:	eb01001f 	cmp	x0, x1
    30003344:	54ffff81 	b.ne	30003334 <tegra_se_save_sha256_hash+0x124>  // b.any
    30003348:	52800000 	mov	w0, #0x0                   	// #0
    3000334c:	17ffffcc 	b	3000327c <tegra_se_save_sha256_hash+0x6c>
    30003350:	710006ff 	cmp	w23, #0x1
    30003354:	540007e0 	b.eq	30003450 <tegra_se_save_sha256_hash+0x240>  // b.none
    30003358:	d2802781 	mov	x1, #0x13c                 	// #316
    3000335c:	f2a07581 	movk	x1, #0x3ac, lsl #16
    30003360:	b9400022 	ldr	w2, [x1]
    30003364:	b8004422 	str	w2, [x1], #4
    30003368:	d2802b82 	mov	x2, #0x15c                 	// #348
    3000336c:	f2a07582 	movk	x2, #0x3ac, lsl #16
    30003370:	eb02003f 	cmp	x1, x2
    30003374:	54ffff61 	b.ne	30003360 <tegra_se_save_sha256_hash+0x150>  // b.any
    30003378:	531d7000 	lsl	w0, w0, #3
    3000337c:	4b000321 	sub	w1, w25, w0
    30003380:	6b19001f 	cmp	w0, w25
    30003384:	1a933039 	csel	w25, w1, w19, cc  // cc = lo, ul, last
    30003388:	52800000 	mov	w0, #0x0                   	// #0
    3000338c:	b9000299 	str	w25, [x20]
    30003390:	d2802101 	mov	x1, #0x108                 	// #264
    30003394:	f2a07581 	movk	x1, #0x3ac, lsl #16
    30003398:	b9000020 	str	w0, [x1]
    3000339c:	529fdfe0 	mov	w0, #0xfeff                	// #65279
    300033a0:	72a01fe0 	movk	w0, #0xff, lsl #16
    300033a4:	6b00039f 	cmp	w28, w0
    300033a8:	54000589 	b.ls	30003458 <tegra_se_save_sha256_hash+0x248>  // b.plast
    300033ac:	517fff9b 	sub	w27, w28, #0xfff, lsl #12
    300033b0:	52800002 	mov	w2, #0x0                   	// #0
    300033b4:	513c037b 	sub	w27, w27, #0xf00
    300033b8:	32183ffc 	mov	w28, #0xffff00              	// #16776960
    300033bc:	d2802181 	mov	x1, #0x10c                 	// #268
    300033c0:	2a1c02a0 	orr	w0, w21, w28
    300033c4:	f2a07581 	movk	x1, #0x3ac, lsl #16
    300033c8:	b900003a 	str	w26, [x1]
    300033cc:	b9000420 	str	w0, [x1, #4]
    300033d0:	d2803080 	mov	x0, #0x184                 	// #388
    300033d4:	f2a07580 	movk	x0, #0x3ac, lsl #16
    300033d8:	b9400001 	ldr	w1, [x0]
    300033dc:	34000041 	cbz	w1, 300033e4 <tegra_se_save_sha256_hash+0x1d4>
    300033e0:	b900001f 	str	wzr, [x0]
    300033e4:	d2803000 	mov	x0, #0x180                 	// #384
    300033e8:	b9006ba2 	str	w2, [x29, #104]
    300033ec:	f2a07580 	movk	x0, #0x3ac, lsl #16
    300033f0:	52800341 	mov	w1, #0x1a                  	// #26
    300033f4:	b9000001 	str	w1, [x0]
    300033f8:	aa1a03e0 	mov	x0, x26
    300033fc:	2a1603e1 	mov	w1, w22
    30003400:	9400218e 	bl	3000ba38 <flush_dcache_range>
    30003404:	b9406ba2 	ldr	w2, [x29, #104]
    30003408:	d2802f80 	mov	x0, #0x17c                 	// #380
    3000340c:	f2a07580 	movk	x0, #0x3ac, lsl #16
    30003410:	340002c2 	cbz	w2, 30003468 <tegra_se_save_sha256_hash+0x258>
    30003414:	320083e1 	mov	w1, #0x10001               	// #65537
    30003418:	b9000001 	str	w1, [x0]
    3000341c:	5284e200 	mov	w0, #0x2710                	// #10000
    30003420:	97fff351 	bl	30000164 <udelay>
    30003424:	d2803080 	mov	x0, #0x184                 	// #388
    30003428:	f2a07580 	movk	x0, #0x3ac, lsl #16
    3000342c:	b9400002 	ldr	w2, [x0]
    30003430:	36200202 	tbz	w2, #4, 30003470 <tegra_se_save_sha256_hash+0x260>
    30003434:	b9400402 	ldr	w2, [x0, #4]
    30003438:	34000362 	cbz	w2, 300034a4 <tegra_se_save_sha256_hash+0x294>
    3000343c:	f0000041 	adrp	x1, 3000e000 <__TEXT_END__>
    30003440:	f0000040 	adrp	x0, 3000e000 <__TEXT_END__>
    30003444:	9139e421 	add	x1, x1, #0xe79
    30003448:	913c5c00 	add	x0, x0, #0xf17
    3000344c:	1400000d 	b	30003480 <tegra_se_save_sha256_hash+0x270>
    30003450:	2a1703e0 	mov	w0, w23
    30003454:	17ffffcf 	b	30003390 <tegra_se_save_sha256_hash+0x180>
    30003458:	340001fc 	cbz	w28, 30003494 <tegra_se_save_sha256_hash+0x284>
    3000345c:	2a1c03fb 	mov	w27, w28
    30003460:	52800022 	mov	w2, #0x1                   	// #1
    30003464:	17ffffd6 	b	300033bc <tegra_se_save_sha256_hash+0x1ac>
    30003468:	52800021 	mov	w1, #0x1                   	// #1
    3000346c:	17ffffeb 	b	30003418 <tegra_se_save_sha256_hash+0x208>
    30003470:	f0000041 	adrp	x1, 3000e000 <__TEXT_END__>
    30003474:	f0000040 	adrp	x0, 3000e000 <__TEXT_END__>
    30003478:	9139e421 	add	x1, x1, #0xe79
    3000347c:	913b7000 	add	x0, x0, #0xedc
    30003480:	94000fa9 	bl	30007324 <tf_printf>
    30003484:	12800761 	mov	w1, #0xffffffc4            	// #-60
    30003488:	f0000040 	adrp	x0, 3000e000 <__TEXT_END__>
    3000348c:	913ddc00 	add	x0, x0, #0xf77
    30003490:	94000fa5 	bl	30007324 <tf_printf>
    30003494:	f0000040 	adrp	x0, 3000e000 <__TEXT_END__>
    30003498:	128002a1 	mov	w1, #0xffffffea            	// #-22
    3000349c:	913e8c00 	add	x0, x0, #0xfa3
    300034a0:	17ffff70 	b	30003260 <tegra_se_save_sha256_hash+0x50>
    300034a4:	d2803180 	mov	x0, #0x18c                 	// #396
    300034a8:	f2a07580 	movk	x0, #0x3ac, lsl #16
    300034ac:	b9400002 	ldr	w2, [x0]
    300034b0:	34000102 	cbz	w2, 300034d0 <tegra_se_save_sha256_hash+0x2c0>
    300034b4:	f0000041 	adrp	x1, 3000e000 <__TEXT_END__>
    300034b8:	f0000040 	adrp	x0, 3000e000 <__TEXT_END__>
    300034bc:	9139e421 	add	x1, x1, #0xe79
    300034c0:	913d1000 	add	x0, x0, #0xf44
    300034c4:	94000f98 	bl	30007324 <tf_printf>
    300034c8:	12800581 	mov	w1, #0xffffffd3            	// #-45
    300034cc:	17ffffef 	b	30003488 <tegra_se_save_sha256_hash+0x278>
    300034d0:	2a1c03e0 	mov	w0, w28
    300034d4:	110006f7 	add	w23, w23, #0x1
    300034d8:	2a1b03fc 	mov	w28, w27
    300034dc:	17ffff8b 	b	30003308 <tegra_se_save_sha256_hash+0xf8>

00000000300034e0 <tegra186_memctrl_reconfig_mss_clients>:
    300034e0:	d2804001 	mov	x1, #0x200                 	// #512
    300034e4:	a9bf7bfd 	stp	x29, x30, [sp, #-16]!
    300034e8:	f2a05821 	movk	x1, #0x2c1, lsl #16
    300034ec:	910003fd 	mov	x29, sp
    300034f0:	b9400020 	ldr	w0, [x1]
    300034f4:	340000e0 	cbz	w0, 30003510 <tegra186_memctrl_reconfig_mss_clients+0x30>
    300034f8:	90000062 	adrp	x2, 3000f000 <__func__.2610+0x16b>
    300034fc:	91082842 	add	x2, x2, #0x20a
    30003500:	52801b61 	mov	w1, #0xdb                  	// #219
    30003504:	90000060 	adrp	x0, 3000f000 <__func__.2610+0x16b>
    30003508:	9108d000 	add	x0, x0, #0x234
    3000350c:	94001050 	bl	3000764c <__assert>
    30003510:	52901020 	mov	w0, #0x8081                	// #32897
    30003514:	72a00300 	movk	w0, #0x18, lsl #16
    30003518:	b9000020 	str	w0, [x1]
    3000351c:	d2804081 	mov	x1, #0x204                 	// #516
    30003520:	f2a05821 	movk	x1, #0x2c1, lsl #16
    30003524:	aa0103e2 	mov	x2, x1
    30003528:	b9400023 	ldr	w3, [x1]
    3000352c:	6a23001f 	bics	wzr, w0, w3
    30003530:	54ffffc1 	b.ne	30003528 <tegra186_memctrl_reconfig_mss_clients+0x48>  // b.any
    30003534:	52901020 	mov	w0, #0x8081                	// #32897
    30003538:	72a00300 	movk	w0, #0x18, lsl #16
    3000353c:	b9400041 	ldr	w1, [x2]
    30003540:	6a21001f 	bics	wzr, w0, w1
    30003544:	54ffffc1 	b.ne	3000353c <tegra186_memctrl_reconfig_mss_clients+0x5c>  // b.any
    30003548:	d2812e01 	mov	x1, #0x970                 	// #2416
    3000354c:	f2a05821 	movk	x1, #0x2c1, lsl #16
    30003550:	b9400020 	ldr	w0, [x1]
    30003554:	340000a0 	cbz	w0, 30003568 <tegra186_memctrl_reconfig_mss_clients+0x88>
    30003558:	90000062 	adrp	x2, 3000f000 <__func__.2610+0x16b>
    3000355c:	52801e21 	mov	w1, #0xf1                  	// #241
    30003560:	91097842 	add	x2, x2, #0x25e
    30003564:	17ffffe8 	b	30003504 <tegra186_memctrl_reconfig_mss_clients+0x24>
    30003568:	52821820 	mov	w0, #0x10c1                	// #4289
    3000356c:	72a03b80 	movk	w0, #0x1dc, lsl #16
    30003570:	b9000020 	str	w0, [x1]
    30003574:	d2812e81 	mov	x1, #0x974                 	// #2420
    30003578:	f2a05821 	movk	x1, #0x2c1, lsl #16
    3000357c:	aa0103e3 	mov	x3, x1
    30003580:	b9400022 	ldr	w2, [x1]
    30003584:	6a22001f 	bics	wzr, w0, w2
    30003588:	54ffffc1 	b.ne	30003580 <tegra186_memctrl_reconfig_mss_clients+0xa0>  // b.any
    3000358c:	52821822 	mov	w2, #0x10c1                	// #4289
    30003590:	72a03b82 	movk	w2, #0x1dc, lsl #16
    30003594:	b9400060 	ldr	w0, [x3]
    30003598:	6a20005f 	bics	wzr, w2, w0
    3000359c:	54ffffc1 	b.ne	30003594 <tegra186_memctrl_reconfig_mss_clients+0xb4>  // b.any
    300035a0:	d2860301 	mov	x1, #0x3018                	// #12312
    300035a4:	52802000 	mov	w0, #0x100                 	// #256
    300035a8:	f2a04821 	movk	x1, #0x241, lsl #16
    300035ac:	52822223 	mov	w3, #0x1111                	// #4369
    300035b0:	d2824b04 	mov	x4, #0x1258                	// #4696
    300035b4:	b9000020 	str	w0, [x1]
    300035b8:	d2940101 	mov	x1, #0xa008                	// #40968
    300035bc:	f2a04801 	movk	x1, #0x240, lsl #16
    300035c0:	f2a05824 	movk	x4, #0x2c1, lsl #16
    300035c4:	b9000020 	str	w0, [x1]
    300035c8:	d2860501 	mov	x1, #0x3028                	// #12328
    300035cc:	f2a04821 	movk	x1, #0x241, lsl #16
    300035d0:	b9000020 	str	w0, [x1]
    300035d4:	d28a0301 	mov	x1, #0x5018                	// #20504
    300035d8:	f2a04821 	movk	x1, #0x241, lsl #16
    300035dc:	b9000020 	str	w0, [x1]
    300035e0:	d28a0101 	mov	x1, #0x5008                	// #20488
    300035e4:	f2a04821 	movk	x1, #0x241, lsl #16
    300035e8:	b9000020 	str	w0, [x1]
    300035ec:	d28a0201 	mov	x1, #0x5010                	// #20496
    300035f0:	f2a04801 	movk	x1, #0x240, lsl #16
    300035f4:	b9000020 	str	w0, [x1]
    300035f8:	d2840301 	mov	x1, #0x2018                	// #8216
    300035fc:	f2a04821 	movk	x1, #0x241, lsl #16
    30003600:	b9000020 	str	w0, [x1]
    30003604:	d2880201 	mov	x1, #0x4010                	// #16400
    30003608:	f2a04801 	movk	x1, #0x240, lsl #16
    3000360c:	b9000020 	str	w0, [x1]
    30003610:	b9002820 	str	w0, [x1, #40]
    30003614:	d28e0101 	mov	x1, #0x7008                	// #28680
    30003618:	f2a04801 	movk	x1, #0x240, lsl #16
    3000361c:	b9000020 	str	w0, [x1]
    30003620:	d2860701 	mov	x1, #0x3038                	// #12344
    30003624:	f2a04821 	movk	x1, #0x241, lsl #16
    30003628:	b9000020 	str	w0, [x1]
    3000362c:	d2860101 	mov	x1, #0x3008                	// #12296
    30003630:	f2a04821 	movk	x1, #0x241, lsl #16
    30003634:	b9000020 	str	w0, [x1]
    30003638:	d29a0501 	mov	x1, #0xd028                	// #53288
    3000363c:	f2a04801 	movk	x1, #0x240, lsl #16
    30003640:	b9000020 	str	w0, [x1]
    30003644:	d2960301 	mov	x1, #0xb018                	// #45080
    30003648:	f2a04801 	movk	x1, #0x240, lsl #16
    3000364c:	b9000020 	str	w0, [x1]
    30003650:	b9200020 	str	w0, [x1, #8192]
    30003654:	d2821501 	mov	x1, #0x10a8                	// #4264
    30003658:	f2a05821 	movk	x1, #0x2c1, lsl #16
    3000365c:	52802200 	mov	w0, #0x110                 	// #272
    30003660:	b9000020 	str	w0, [x1]
    30003664:	b903f820 	str	w0, [x1, #1016]
    30003668:	d2820001 	mov	x1, #0x1000                	// #4096
    3000366c:	f2a05821 	movk	x1, #0x2c1, lsl #16
    30003670:	b9000020 	str	w0, [x1]
    30003674:	b9049020 	str	w0, [x1, #1168]
    30003678:	d2828f01 	mov	x1, #0x1478                	// #5240
    3000367c:	f2a05821 	movk	x1, #0x2c1, lsl #16
    30003680:	b9000020 	str	w0, [x1]
    30003684:	d2827f01 	mov	x1, #0x13f8                	// #5112
    30003688:	f2a05821 	movk	x1, #0x2c1, lsl #16
    3000368c:	b9000020 	str	w0, [x1]
    30003690:	d2824401 	mov	x1, #0x1220                	// #4640
    30003694:	f2a05821 	movk	x1, #0x2c1, lsl #16
    30003698:	b9000020 	str	w0, [x1]
    3000369c:	b9010820 	str	w0, [x1, #264]
    300036a0:	b9014020 	str	w0, [x1, #320]
    300036a4:	d2823901 	mov	x1, #0x11c8                	// #4552
    300036a8:	f2a05821 	movk	x1, #0x2c1, lsl #16
    300036ac:	b900003f 	str	wzr, [x1]
    300036b0:	b900f820 	str	w0, [x1, #248]
    300036b4:	b9029820 	str	w0, [x1, #664]
    300036b8:	b9032820 	str	w0, [x1, #808]
    300036bc:	d2826601 	mov	x1, #0x1330                	// #4912
    300036c0:	f2a05821 	movk	x1, #0x2c1, lsl #16
    300036c4:	b9000020 	str	w0, [x1]
    300036c8:	b9014020 	str	w0, [x1, #320]
    300036cc:	b901c823 	str	w3, [x1, #456]
    300036d0:	d2821c01 	mov	x1, #0x10e0                	// #4320
    300036d4:	f2a05821 	movk	x1, #0x2c1, lsl #16
    300036d8:	b9000020 	str	w0, [x1]
    300036dc:	b9023820 	str	w0, [x1, #568]
    300036e0:	b9043020 	str	w0, [x1, #1072]
    300036e4:	d2829501 	mov	x1, #0x14a8                	// #5288
    300036e8:	f2a05821 	movk	x1, #0x2c1, lsl #16
    300036ec:	b9000020 	str	w0, [x1]
    300036f0:	d2827201 	mov	x1, #0x1390                	// #5008
    300036f4:	f2a05821 	movk	x1, #0x2c1, lsl #16
    300036f8:	b9000020 	str	w0, [x1]
    300036fc:	d2826101 	mov	x1, #0x1308                	// #4872
    30003700:	f2a05821 	movk	x1, #0x2c1, lsl #16
    30003704:	b9000020 	str	w0, [x1]
    30003708:	b9016020 	str	w0, [x1, #352]
    3000370c:	d2824c01 	mov	x1, #0x1260                	// #4704
    30003710:	f2a05821 	movk	x1, #0x2c1, lsl #16
    30003714:	b9000020 	str	w0, [x1]
    30003718:	b9022020 	str	w0, [x1, #544]
    3000371c:	d2825501 	mov	x1, #0x12a8                	// #4776
    30003720:	f2a05821 	movk	x1, #0x2c1, lsl #16
    30003724:	b9000020 	str	w0, [x1]
    30003728:	b9002020 	str	w0, [x1, #32]
    3000372c:	d2821f01 	mov	x1, #0x10f8                	// #4344
    30003730:	f2a05821 	movk	x1, #0x2c1, lsl #16
    30003734:	b9000020 	str	w0, [x1]
    30003738:	52802401 	mov	w1, #0x120                 	// #288
    3000373c:	b9000081 	str	w1, [x4]
    30003740:	b901e080 	str	w0, [x4, #480]
    30003744:	b901e880 	str	w0, [x4, #488]
    30003748:	b9029080 	str	w0, [x4, #656]
    3000374c:	d2828904 	mov	x4, #0x1448                	// #5192
    30003750:	f2a05824 	movk	x4, #0x2c1, lsl #16
    30003754:	b9000080 	str	w0, [x4]
    30003758:	b9008880 	str	w0, [x4, #136]
    3000375c:	b900b883 	str	w3, [x4, #184]
    30003760:	d2829803 	mov	x3, #0x14c0                	// #5312
    30003764:	f2a05823 	movk	x3, #0x2c1, lsl #16
    30003768:	52822204 	mov	w4, #0x1110                	// #4368
    3000376c:	b9000060 	str	w0, [x3]
    30003770:	d2821603 	mov	x3, #0x10b0                	// #4272
    30003774:	f2a05823 	movk	x3, #0x2c1, lsl #16
    30003778:	b9000060 	str	w0, [x3]
    3000377c:	b9037060 	str	w0, [x3, #880]
    30003780:	d2828103 	mov	x3, #0x1408                	// #5128
    30003784:	f2a05823 	movk	x3, #0x2c1, lsl #16
    30003788:	b9000060 	str	w0, [x3]
    3000378c:	d2827e03 	mov	x3, #0x13f0                	// #5104
    30003790:	f2a05823 	movk	x3, #0x2c1, lsl #16
    30003794:	b9000060 	str	w0, [x3]
    30003798:	d2827803 	mov	x3, #0x13c0                	// #5056
    3000379c:	f2a05823 	movk	x3, #0x2c1, lsl #16
    300037a0:	b9000060 	str	w0, [x3]
    300037a4:	b9007060 	str	w0, [x3, #112]
    300037a8:	b900f060 	str	w0, [x3, #240]
    300037ac:	d2827a03 	mov	x3, #0x13d0                	// #5072
    300037b0:	f2a05823 	movk	x3, #0x2c1, lsl #16
    300037b4:	b9000060 	str	w0, [x3]
    300037b8:	b9014860 	str	w0, [x3, #328]
    300037bc:	d2824a03 	mov	x3, #0x1250                	// #4688
    300037c0:	f2a05823 	movk	x3, #0x2c1, lsl #16
    300037c4:	b9000060 	str	w0, [x3]
    300037c8:	d2824603 	mov	x3, #0x1230                	// #4656
    300037cc:	f2a05823 	movk	x3, #0x2c1, lsl #16
    300037d0:	b9000060 	str	w0, [x3]
    300037d4:	b901d060 	str	w0, [x3, #464]
    300037d8:	b902a860 	str	w0, [x3, #680]
    300037dc:	d2829703 	mov	x3, #0x14b8                	// #5304
    300037e0:	f2a05823 	movk	x3, #0x2c1, lsl #16
    300037e4:	b9000060 	str	w0, [x3]
    300037e8:	d2822703 	mov	x3, #0x1138                	// #4408
    300037ec:	f2a05823 	movk	x3, #0x2c1, lsl #16
    300037f0:	b900007f 	str	wzr, [x3]
    300037f4:	b901e860 	str	w0, [x3, #488]
    300037f8:	d2823503 	mov	x3, #0x11a8                	// #4520
    300037fc:	f2a05823 	movk	x3, #0x2c1, lsl #16
    30003800:	b9000060 	str	w0, [x3]
    30003804:	b9022060 	str	w0, [x3, #544]
    30003808:	b902e060 	str	w0, [x3, #736]
    3000380c:	b9032060 	str	w0, [x3, #800]
    30003810:	d2823d03 	mov	x3, #0x11e8                	// #4584
    30003814:	f2a05823 	movk	x3, #0x2c1, lsl #16
    30003818:	b9000061 	str	w1, [x3]
    3000381c:	b9024060 	str	w0, [x3, #576]
    30003820:	d2826d03 	mov	x3, #0x1368                	// #4968
    30003824:	f2a05823 	movk	x3, #0x2c1, lsl #16
    30003828:	b9000060 	str	w0, [x3]
    3000382c:	d2822b03 	mov	x3, #0x1158                	// #4440
    30003830:	f2a05823 	movk	x3, #0x2c1, lsl #16
    30003834:	b9000060 	str	w0, [x3]
    30003838:	d2820e03 	mov	x3, #0x1070                	// #4208
    3000383c:	f2a05823 	movk	x3, #0x2c1, lsl #16
    30003840:	b9000064 	str	w4, [x3]
    30003844:	b902c860 	str	w0, [x3, #712]
    30003848:	d2826003 	mov	x3, #0x1300                	// #4864
    3000384c:	f2a05823 	movk	x3, #0x2c1, lsl #16
    30003850:	b9000060 	str	w0, [x3]
    30003854:	b9020860 	str	w0, [x3, #520]
    30003858:	d2824703 	mov	x3, #0x1238                	// #4664
    3000385c:	f2a05823 	movk	x3, #0x2c1, lsl #16
    30003860:	b9000060 	str	w0, [x3]
    30003864:	b9026060 	str	w0, [x3, #608]
    30003868:	d2827b03 	mov	x3, #0x13d8                	// #5080
    3000386c:	f2a05823 	movk	x3, #0x2c1, lsl #16
    30003870:	b9000060 	str	w0, [x3]
    30003874:	d2826203 	mov	x3, #0x1310                	// #4880
    30003878:	f2a05823 	movk	x3, #0x2c1, lsl #16
    3000387c:	b9000060 	str	w0, [x3]
    30003880:	d2824d03 	mov	x3, #0x1268                	// #4712
    30003884:	f2a05823 	movk	x3, #0x2c1, lsl #16
    30003888:	b9000061 	str	w1, [x3]
    3000388c:	d2825401 	mov	x1, #0x12a0                	// #4768
    30003890:	f2a05821 	movk	x1, #0x2c1, lsl #16
    30003894:	52822403 	mov	w3, #0x1120                	// #4384
    30003898:	b9000020 	str	w0, [x1]
    3000389c:	d2823101 	mov	x1, #0x1188                	// #4488
    300038a0:	f2a05821 	movk	x1, #0x2c1, lsl #16
    300038a4:	b9000023 	str	w3, [x1]
    300038a8:	b9035820 	str	w0, [x1, #856]
    300038ac:	d281ba80 	mov	x0, #0xdd4                 	// #3540
    300038b0:	f2a05820 	movk	x0, #0x2c1, lsl #16
    300038b4:	52a00041 	mov	w1, #0x20000               	// #131072
    300038b8:	b900001f 	str	wzr, [x0]
    300038bc:	b9000401 	str	w1, [x0, #4]
    300038c0:	52900001 	mov	w1, #0x8000                	// #32768
    300038c4:	b900081f 	str	wzr, [x0, #8]
    300038c8:	b9000c01 	str	w1, [x0, #12]
    300038cc:	d2817e80 	mov	x0, #0xbf4                 	// #3060
    300038d0:	f2a05820 	movk	x0, #0x2c1, lsl #16
    300038d4:	52901021 	mov	w1, #0x8081                	// #32897
    300038d8:	72a00301 	movk	w1, #0x18, lsl #16
    300038dc:	b900001f 	str	wzr, [x0]
    300038e0:	d2804000 	mov	x0, #0x200                 	// #512
    300038e4:	f2a05820 	movk	x0, #0x2c1, lsl #16
    300038e8:	b9400003 	ldr	w3, [x0]
    300038ec:	6b01007f 	cmp	w3, w1
    300038f0:	540000a0 	b.eq	30003904 <tegra186_memctrl_reconfig_mss_clients+0x424>  // b.none
    300038f4:	90000062 	adrp	x2, 3000f000 <__func__.2610+0x16b>
    300038f8:	528038c1 	mov	w1, #0x1c6                 	// #454
    300038fc:	910a2042 	add	x2, x2, #0x288
    30003900:	17ffff01 	b	30003504 <tegra186_memctrl_reconfig_mss_clients+0x24>
    30003904:	b900001f 	str	wzr, [x0]
    30003908:	d2812e00 	mov	x0, #0x970                 	// #2416
    3000390c:	f2a05820 	movk	x0, #0x2c1, lsl #16
    30003910:	b9400001 	ldr	w1, [x0]
    30003914:	6b02003f 	cmp	w1, w2
    30003918:	540000a0 	b.eq	3000392c <tegra186_memctrl_reconfig_mss_clients+0x44c>  // b.none
    3000391c:	90000062 	adrp	x2, 3000f000 <__func__.2610+0x16b>
    30003920:	52803981 	mov	w1, #0x1cc                 	// #460
    30003924:	910a5c42 	add	x2, x2, #0x297
    30003928:	17fffef7 	b	30003504 <tegra186_memctrl_reconfig_mss_clients+0x24>
    3000392c:	b900001f 	str	wzr, [x0]
    30003930:	a8c17bfd 	ldp	x29, x30, [sp], #16
    30003934:	d65f03c0 	ret

0000000030003938 <tegra186_memctrl_set_overrides>:
    30003938:	a9be7bfd 	stp	x29, x30, [sp, #-32]!
    3000393c:	f0000060 	adrp	x0, 30012000 <__RODATA_END__>
    30003940:	91090000 	add	x0, x0, #0x240
    30003944:	910003fd 	mov	x29, sp
    30003948:	a90153f3 	stp	x19, x20, [sp, #16]
    3000394c:	b9402814 	ldr	w20, [x0, #40]
    30003950:	f9401013 	ldr	x19, [x0, #32]
    30003954:	97fff434 	bl	30000a24 <tegra_chipid_is_t186>
    30003958:	72001c1f 	tst	w0, #0xff
    3000395c:	540001c1 	b.ne	30003994 <tegra186_memctrl_set_overrides+0x5c>  // b.any
    30003960:	91001260 	add	x0, x19, #0x4
    30003964:	52a05824 	mov	w4, #0x2c10000             	// #46202880
    30003968:	8b344c14 	add	x20, x0, w20, uxtw #3
    3000396c:	eb14001f 	cmp	x0, x20
    30003970:	54000380 	b.eq	300039e0 <tegra186_memctrl_set_overrides+0xa8>  // b.none
    30003974:	b85fc001 	ldur	w1, [x0, #-4]
    30003978:	38408402 	ldrb	w2, [x0], #8
    3000397c:	0b040021 	add	w1, w1, w4
    30003980:	b9400023 	ldr	w3, [x1]
    30003984:	121e7463 	and	w3, w3, #0xfffffffc
    30003988:	2a030042 	orr	w2, w2, w3
    3000398c:	b9000022 	str	w2, [x1]
    30003990:	17fffff7 	b	3000396c <tegra186_memctrl_set_overrides+0x34>
    30003994:	97fff42b 	bl	30000a40 <tegra_platform_is_silicon>
    30003998:	72001c1f 	tst	w0, #0xff
    3000399c:	54000281 	b.ne	300039ec <tegra186_memctrl_set_overrides+0xb4>  // b.any
    300039a0:	d2825901 	mov	x1, #0x12c8                	// #4808
    300039a4:	f2a05821 	movk	x1, #0x2c1, lsl #16
    300039a8:	b9400020 	ldr	w0, [x1]
    300039ac:	121e7400 	and	w0, w0, #0xfffffffc
    300039b0:	321f0000 	orr	w0, w0, #0x2
    300039b4:	b9000020 	str	w0, [x1]
    300039b8:	b9418020 	ldr	w0, [x1, #384]
    300039bc:	121e7400 	and	w0, w0, #0xfffffffc
    300039c0:	321f0000 	orr	w0, w0, #0x2
    300039c4:	b9018020 	str	w0, [x1, #384]
    300039c8:	d2822b01 	mov	x1, #0x1158                	// #4440
    300039cc:	f2a05821 	movk	x1, #0x2c1, lsl #16
    300039d0:	b9400020 	ldr	w0, [x1]
    300039d4:	121e7400 	and	w0, w0, #0xfffffffc
    300039d8:	32000000 	orr	w0, w0, #0x1
    300039dc:	b9000020 	str	w0, [x1]
    300039e0:	a94153f3 	ldp	x19, x20, [sp, #16]
    300039e4:	a8c27bfd 	ldp	x29, x30, [sp], #32
    300039e8:	d65f03c0 	ret
    300039ec:	97fff415 	bl	30000a40 <tegra_platform_is_silicon>
    300039f0:	72001c1f 	tst	w0, #0xff
    300039f4:	54fffb60 	b.eq	30003960 <tegra186_memctrl_set_overrides+0x28>  // b.none
    300039f8:	97fff3ea 	bl	300009a0 <tegra_get_chipid_minor>
    300039fc:	7100041f 	cmp	w0, #0x1
    30003a00:	54fffb01 	b.ne	30003960 <tegra186_memctrl_set_overrides+0x28>  // b.any
    30003a04:	17ffffe7 	b	300039a0 <tegra186_memctrl_set_overrides+0x68>

0000000030003a08 <tegra_get_mc_settings>:
    30003a08:	f0000060 	adrp	x0, 30012000 <__RODATA_END__>
    30003a0c:	91090000 	add	x0, x0, #0x240
    30003a10:	d65f03c0 	ret

0000000030003a14 <plat_memctrl_tzdram_setup>:
    30003a14:	a9bd7bfd 	stp	x29, x30, [sp, #-48]!
    30003a18:	910003fd 	mov	x29, sp
    30003a1c:	a90153f3 	stp	x19, x20, [sp, #16]
    30003a20:	aa0003f3 	mov	x19, x0
    30003a24:	a9025bf5 	stp	x21, x22, [sp, #32]
    30003a28:	aa0103f6 	mov	x22, x1
    30003a2c:	97fff288 	bl	3000044c <bl31_get_plat_params>
    30003a30:	aa0003f5 	mov	x21, x0
    30003a34:	940013a5 	bl	300088c8 <tegra_get_bl31_rw_end>
    30003a38:	aa0003f4 	mov	x20, x0
    30003a3c:	9400139a 	bl	300088a4 <tegra_get_bl31_phys_base>
    30003a40:	cb000294 	sub	x20, x20, x0
    30003a44:	f94006b5 	ldr	x21, [x21, #8]
    30003a48:	94001d9e 	bl	3000b0c0 <tegra186_get_cpu_reset_handler_size>
    30003a4c:	d2800e04 	mov	x4, #0x70                  	// #112
    30003a50:	d2813783 	mov	x3, #0x9bc                 	// #2492
    30003a54:	f2a05824 	movk	x4, #0x2c1, lsl #16
    30003a58:	f2a05823 	movk	x3, #0x2c1, lsl #16
    30003a5c:	d2800e81 	mov	x1, #0x74                  	// #116
    30003a60:	d354fed6 	lsr	x22, x22, #20
    30003a64:	b9000093 	str	w19, [x4]
    30003a68:	f2a05821 	movk	x1, #0x2c1, lsl #16
    30003a6c:	d360fe73 	lsr	x19, x19, #32
    30003a70:	b9000073 	str	w19, [x3]
    30003a74:	b9000036 	str	w22, [x1]
    30003a78:	8b0002a0 	add	x0, x21, x0
    30003a7c:	a9425bf5 	ldp	x21, x22, [sp, #32]
    30003a80:	b9400021 	ldr	w1, [x1]
    30003a84:	12003022 	and	w2, w1, #0x1fff
    30003a88:	b9400081 	ldr	w1, [x4]
    30003a8c:	120c2c21 	and	w1, w1, #0xfff00000
    30003a90:	2a020021 	orr	w1, w1, w2
    30003a94:	d2810102 	mov	x2, #0x808                 	// #2056
    30003a98:	f2a18722 	movk	x2, #0xc39, lsl #16
    30003a9c:	b9000041 	str	w1, [x2]
    30003aa0:	b9400061 	ldr	w1, [x3]
    30003aa4:	12000421 	and	w1, w1, #0x3
    30003aa8:	b9000441 	str	w1, [x2, #4]
    30003aac:	d2810e01 	mov	x1, #0x870                 	// #2160
    30003ab0:	f2a18721 	movk	x1, #0xc39, lsl #16
    30003ab4:	b9000020 	str	w0, [x1]
    30003ab8:	d280ca80 	mov	x0, #0x654                 	// #1620
